
AVRASM ver. 2.1.17  D:\Program Files\Project\MD_IB_Exxus_5\Otladka\CV_2\List\out.asm Fri Apr 16 13:08:06 2010

D:\Program Files\Project\MD_IB_Exxus_5\Otladka\CV_2\List\out.asm(1026): warning: Register r4 already defined by the .DEF directive
D:\Program Files\Project\MD_IB_Exxus_5\Otladka\CV_2\List\out.asm(1027): warning: Register r6 already defined by the .DEF directive
D:\Program Files\Project\MD_IB_Exxus_5\Otladka\CV_2\List\out.asm(1028): warning: Register r9 already defined by the .DEF directive
D:\Program Files\Project\MD_IB_Exxus_5\Otladka\CV_2\List\out.asm(1029): warning: Register r8 already defined by the .DEF directive
D:\Program Files\Project\MD_IB_Exxus_5\Otladka\CV_2\List\out.asm(1030): warning: Register r11 already defined by the .DEF directive
D:\Program Files\Project\MD_IB_Exxus_5\Otladka\CV_2\List\out.asm(1031): warning: Register r10 already defined by the .DEF directive
D:\Program Files\Project\MD_IB_Exxus_5\Otladka\CV_2\List\out.asm(1032): warning: Register r13 already defined by the .DEF directive
D:\Program Files\Project\MD_IB_Exxus_5\Otladka\CV_2\List\out.asm(1033): warning: Register r12 already defined by the .DEF directive
                 
                 
                 ;CodeVisionAVR C Compiler V2.03.4 Standard
                 ;(C) Copyright 1998-2008 Pavel Haiduc, HP InfoTech s.r.l.
                 ;http://www.hpinfotech.com
                 
                 ;Chip type              : ATmega32
                 ;Program type           : Application
                 ;Clock frequency        : 16,384000 MHz
                 ;Memory model           : Small
                 ;Optimize for           : Size
                 ;(s)printf features     : int, width
                 ;(s)scanf features      : int, width
                 ;External RAM size      : 0
                 ;Data Stack size        : 512 byte(s)
                 ;Heap size              : 0 byte(s)
                 ;Promote char to int    : Yes
                 ;char is unsigned       : Yes
                 ;global const stored in FLASH  : No
                 ;8 bit enums            : Yes
                 ;Enhanced core instructions    : On
                 ;Smart register allocation : On
                 ;Automatic register allocation : On
                 
                 	#pragma AVRPART ADMIN PART_NAME ATmega32
                 	#pragma AVRPART MEMORY PROG_FLASH 32768
                 	#pragma AVRPART MEMORY EEPROM 1024
                 	#pragma AVRPART MEMORY INT_SRAM SIZE 2048
                 	#pragma AVRPART MEMORY INT_SRAM START_ADDR 0x60
                 
                 	.LISTMAC
                 	.EQU UDRE=0x5
                 	.EQU RXC=0x7
                 	.EQU USR=0xB
                 	.EQU UDR=0xC
                 	.EQU SPSR=0xE
                 	.EQU SPDR=0xF
                 	.EQU EERE=0x0
                 	.EQU EEWE=0x1
                 	.EQU EEMWE=0x2
                 	.EQU EECR=0x1C
                 	.EQU EEDR=0x1D
                 	.EQU EEARL=0x1E
                 	.EQU EEARH=0x1F
                 	.EQU WDTCR=0x21
                 	.EQU MCUCR=0x35
                 	.EQU GICR=0x3B
                 	.EQU SPL=0x3D
                 	.EQU SPH=0x3E
                 	.EQU SREG=0x3F
                 
                 	.DEF R0X0=R0
                 	.DEF R0X1=R1
                 	.DEF R0X2=R2
                 	.DEF R0X3=R3
                 	.DEF R0X4=R4
                 	.DEF R0X5=R5
                 	.DEF R0X6=R6
                 	.DEF R0X7=R7
                 	.DEF R0X8=R8
                 	.DEF R0X9=R9
                 	.DEF R0XA=R10
                 	.DEF R0XB=R11
                 	.DEF R0XC=R12
                 	.DEF R0XD=R13
                 	.DEF R0XE=R14
                 	.DEF R0XF=R15
                 	.DEF R0X10=R16
                 	.DEF R0X11=R17
                 	.DEF R0X12=R18
                 	.DEF R0X13=R19
                 	.DEF R0X14=R20
                 	.DEF R0X15=R21
                 	.DEF R0X16=R22
                 	.DEF R0X17=R23
                 	.DEF R0X18=R24
                 	.DEF R0X19=R25
                 	.DEF R0X1A=R26
                 	.DEF R0X1B=R27
                 	.DEF R0X1C=R28
                 	.DEF R0X1D=R29
                 	.DEF R0X1E=R30
                 	.DEF R0X1F=R31
                 
                 	.MACRO __CPD1N
                 	CPI  R30,LOW(@0)
                 	LDI  R26,HIGH(@0)
                 	CPC  R31,R26
                 	LDI  R26,BYTE3(@0)
                 	CPC  R22,R26
                 	LDI  R26,BYTE4(@0)
                 	CPC  R23,R26
                 	.ENDM
                 
                 	.MACRO __CPD2N
                 	CPI  R26,LOW(@0)
                 	LDI  R30,HIGH(@0)
                 	CPC  R27,R30
                 	LDI  R30,BYTE3(@0)
                 	CPC  R24,R30
                 	LDI  R30,BYTE4(@0)
                 	CPC  R25,R30
                 	.ENDM
                 
                 	.MACRO __CPWRR
                 	CP   R@0,R@2
                 	CPC  R@1,R@3
                 	.ENDM
                 
                 	.MACRO __CPWRN
                 	CPI  R@0,LOW(@2)
                 	LDI  R30,HIGH(@2)
                 	CPC  R@1,R30
                 	.ENDM
                 
                 	.MACRO __ADDB1MN
                 	SUBI R30,LOW(-@0-(@1))
                 	.ENDM
                 
                 	.MACRO __ADDB2MN
                 	SUBI R26,LOW(-@0-(@1))
                 	.ENDM
                 
                 	.MACRO __ADDW1MN
                 	SUBI R30,LOW(-@0-(@1))
                 	SBCI R31,HIGH(-@0-(@1))
                 	.ENDM
                 
                 	.MACRO __ADDW2MN
                 	SUBI R26,LOW(-@0-(@1))
                 	SBCI R27,HIGH(-@0-(@1))
                 	.ENDM
                 
                 	.MACRO __ADDW1FN
                 	SUBI R30,LOW(-2*@0-(@1))
                 	SBCI R31,HIGH(-2*@0-(@1))
                 	.ENDM
                 
                 	.MACRO __ADDD1FN
                 	SUBI R30,LOW(-2*@0-(@1))
                 	SBCI R31,HIGH(-2*@0-(@1))
                 	SBCI R22,BYTE3(-2*@0-(@1))
                 	.ENDM
                 
                 	.MACRO __ADDD1N
                 	SUBI R30,LOW(-@0)
                 	SBCI R31,HIGH(-@0)
                 	SBCI R22,BYTE3(-@0)
                 	SBCI R23,BYTE4(-@0)
                 	.ENDM
                 
                 	.MACRO __ADDD2N
                 	SUBI R26,LOW(-@0)
                 	SBCI R27,HIGH(-@0)
                 	SBCI R24,BYTE3(-@0)
                 	SBCI R25,BYTE4(-@0)
                 	.ENDM
                 
                 	.MACRO __SUBD1N
                 	SUBI R30,LOW(@0)
                 	SBCI R31,HIGH(@0)
                 	SBCI R22,BYTE3(@0)
                 	SBCI R23,BYTE4(@0)
                 	.ENDM
                 
                 	.MACRO __SUBD2N
                 	SUBI R26,LOW(@0)
                 	SBCI R27,HIGH(@0)
                 	SBCI R24,BYTE3(@0)
                 	SBCI R25,BYTE4(@0)
                 	.ENDM
                 
                 	.MACRO __ANDBMNN
                 	LDS  R30,@0+@1
                 	ANDI R30,LOW(@2)
                 	STS  @0+@1,R30
                 	.ENDM
                 
                 	.MACRO __ANDWMNN
                 	LDS  R30,@0+@1
                 	ANDI R30,LOW(@2)
                 	STS  @0+@1,R30
                 	LDS  R30,@0+@1+1
                 	ANDI R30,HIGH(@2)
                 	STS  @0+@1+1,R30
                 	.ENDM
                 
                 	.MACRO __ANDD1N
                 	ANDI R30,LOW(@0)
                 	ANDI R31,HIGH(@0)
                 	ANDI R22,BYTE3(@0)
                 	ANDI R23,BYTE4(@0)
                 	.ENDM
                 
                 	.MACRO __ANDD2N
                 	ANDI R26,LOW(@0)
                 	ANDI R27,HIGH(@0)
                 	ANDI R24,BYTE3(@0)
                 	ANDI R25,BYTE4(@0)
                 	.ENDM
                 
                 	.MACRO __ORBMNN
                 	LDS  R30,@0+@1
                 	ORI  R30,LOW(@2)
                 	STS  @0+@1,R30
                 	.ENDM
                 
                 	.MACRO __ORWMNN
                 	LDS  R30,@0+@1
                 	ORI  R30,LOW(@2)
                 	STS  @0+@1,R30
                 	LDS  R30,@0+@1+1
                 	ORI  R30,HIGH(@2)
                 	STS  @0+@1+1,R30
                 	.ENDM
                 
                 	.MACRO __ORD1N
                 	ORI  R30,LOW(@0)
                 	ORI  R31,HIGH(@0)
                 	ORI  R22,BYTE3(@0)
                 	ORI  R23,BYTE4(@0)
                 	.ENDM
                 
                 	.MACRO __ORD2N
                 	ORI  R26,LOW(@0)
                 	ORI  R27,HIGH(@0)
                 	ORI  R24,BYTE3(@0)
                 	ORI  R25,BYTE4(@0)
                 	.ENDM
                 
                 	.MACRO __DELAY_USB
                 	LDI  R24,LOW(@0)
                 __DELAY_USB_LOOP:
                 	DEC  R24
                 	BRNE __DELAY_USB_LOOP
                 	.ENDM
                 
                 	.MACRO __DELAY_USW
                 	LDI  R24,LOW(@0)
                 	LDI  R25,HIGH(@0)
                 __DELAY_USW_LOOP:
                 	SBIW R24,1
                 	BRNE __DELAY_USW_LOOP
                 	.ENDM
                 
                 	.MACRO __CLRD1S
                 	LDI  R30,0
                 	STD  Y+@0,R30
                 	STD  Y+@0+1,R30
                 	STD  Y+@0+2,R30
                 	STD  Y+@0+3,R30
                 	.ENDM
                 
                 	.MACRO __GETD1S
                 	LDD  R30,Y+@0
                 	LDD  R31,Y+@0+1
                 	LDD  R22,Y+@0+2
                 	LDD  R23,Y+@0+3
                 	.ENDM
                 
                 	.MACRO __PUTD1S
                 	STD  Y+@0,R30
                 	STD  Y+@0+1,R31
                 	STD  Y+@0+2,R22
                 	STD  Y+@0+3,R23
                 	.ENDM
                 
                 	.MACRO __PUTD2S
                 	STD  Y+@0,R26
                 	STD  Y+@0+1,R27
                 	STD  Y+@0+2,R24
                 	STD  Y+@0+3,R25
                 	.ENDM
                 
                 	.MACRO __POINTB1MN
                 	LDI  R30,LOW(@0+@1)
                 	.ENDM
                 
                 	.MACRO __POINTW1MN
                 	LDI  R30,LOW(@0+@1)
                 	LDI  R31,HIGH(@0+@1)
                 	.ENDM
                 
                 	.MACRO __POINTD1M
                 	LDI  R30,LOW(@0)
                 	LDI  R31,HIGH(@0)
                 	LDI  R22,BYTE3(@0)
                 	LDI  R23,BYTE4(@0)
                 	.ENDM
                 
                 	.MACRO __POINTW1FN
                 	LDI  R30,LOW(2*@0+@1)
                 	LDI  R31,HIGH(2*@0+@1)
                 	.ENDM
                 
                 	.MACRO __POINTD1FN
                 	LDI  R30,LOW(2*@0+@1)
                 	LDI  R31,HIGH(2*@0+@1)
                 	LDI  R22,BYTE3(2*@0+@1)
                 	LDI  R23,BYTE4(2*@0+@1)
                 	.ENDM
                 
                 	.MACRO __POINTB2MN
                 	LDI  R26,LOW(@0+@1)
                 	.ENDM
                 
                 	.MACRO __POINTW2MN
                 	LDI  R26,LOW(@0+@1)
                 	LDI  R27,HIGH(@0+@1)
                 	.ENDM
                 
                 	.MACRO __POINTBRM
                 	LDI  R@0,LOW(@1)
                 	.ENDM
                 
                 	.MACRO __POINTWRM
                 	LDI  R@0,LOW(@2)
                 	LDI  R@1,HIGH(@2)
                 	.ENDM
                 
                 	.MACRO __POINTBRMN
                 	LDI  R@0,LOW(@1+@2)
                 	.ENDM
                 
                 	.MACRO __POINTWRMN
                 	LDI  R@0,LOW(@2+@3)
                 	LDI  R@1,HIGH(@2+@3)
                 	.ENDM
                 
                 	.MACRO __POINTWRFN
                 	LDI  R@0,LOW(@2*2+@3)
                 	LDI  R@1,HIGH(@2*2+@3)
                 	.ENDM
                 
                 	.MACRO __GETD1N
                 	LDI  R30,LOW(@0)
                 	LDI  R31,HIGH(@0)
                 	LDI  R22,BYTE3(@0)
                 	LDI  R23,BYTE4(@0)
                 	.ENDM
                 
                 	.MACRO __GETD2N
                 	LDI  R26,LOW(@0)
                 	LDI  R27,HIGH(@0)
                 	LDI  R24,BYTE3(@0)
                 	LDI  R25,BYTE4(@0)
                 	.ENDM
                 
                 	.MACRO __GETD2S
                 	LDD  R26,Y+@0
                 	LDD  R27,Y+@0+1
                 	LDD  R24,Y+@0+2
                 	LDD  R25,Y+@0+3
                 	.ENDM
                 
                 	.MACRO __GETB1MN
                 	LDS  R30,@0+@1
                 	.ENDM
                 
                 	.MACRO __GETB1HMN
                 	LDS  R31,@0+@1
                 	.ENDM
                 
                 	.MACRO __GETW1MN
                 	LDS  R30,@0+@1
                 	LDS  R31,@0+@1+1
                 	.ENDM
                 
                 	.MACRO __GETD1MN
                 	LDS  R30,@0+@1
                 	LDS  R31,@0+@1+1
                 	LDS  R22,@0+@1+2
                 	LDS  R23,@0+@1+3
                 	.ENDM
                 
                 	.MACRO __GETBRMN
                 	LDS  R@0,@1+@2
                 	.ENDM
                 
                 	.MACRO __GETWRMN
                 	LDS  R@0,@2+@3
                 	LDS  R@1,@2+@3+1
                 	.ENDM
                 
                 	.MACRO __GETWRZ
                 	LDD  R@0,Z+@2
                 	LDD  R@1,Z+@2+1
                 	.ENDM
                 
                 	.MACRO __GETD2Z
                 	LDD  R26,Z+@0
                 	LDD  R27,Z+@0+1
                 	LDD  R24,Z+@0+2
                 	LDD  R25,Z+@0+3
                 	.ENDM
                 
                 	.MACRO __GETB2MN
                 	LDS  R26,@0+@1
                 	.ENDM
                 
                 	.MACRO __GETW2MN
                 	LDS  R26,@0+@1
                 	LDS  R27,@0+@1+1
                 	.ENDM
                 
                 	.MACRO __GETD2MN
                 	LDS  R26,@0+@1
                 	LDS  R27,@0+@1+1
                 	LDS  R24,@0+@1+2
                 	LDS  R25,@0+@1+3
                 	.ENDM
                 
                 	.MACRO __PUTB1MN
                 	STS  @0+@1,R30
                 	.ENDM
                 
                 	.MACRO __PUTW1MN
                 	STS  @0+@1,R30
                 	STS  @0+@1+1,R31
                 	.ENDM
                 
                 	.MACRO __PUTD1MN
                 	STS  @0+@1,R30
                 	STS  @0+@1+1,R31
                 	STS  @0+@1+2,R22
                 	STS  @0+@1+3,R23
                 	.ENDM
                 
                 	.MACRO __PUTB1EN
                 	LDI  R26,LOW(@0+@1)
                 	LDI  R27,HIGH(@0+@1)
                 	CALL __EEPROMWRB
                 	.ENDM
                 
                 	.MACRO __PUTW1EN
                 	LDI  R26,LOW(@0+@1)
                 	LDI  R27,HIGH(@0+@1)
                 	CALL __EEPROMWRW
                 	.ENDM
                 
                 	.MACRO __PUTD1EN
                 	LDI  R26,LOW(@0+@1)
                 	LDI  R27,HIGH(@0+@1)
                 	CALL __EEPROMWRD
                 	.ENDM
                 
                 	.MACRO __PUTBR0MN
                 	STS  @0+@1,R0
                 	.ENDM
                 
                 	.MACRO __PUTDZ2
                 	STD  Z+@0,R26
                 	STD  Z+@0+1,R27
                 	STD  Z+@0+2,R24
                 	STD  Z+@0+3,R25
                 	.ENDM
                 
                 	.MACRO __PUTBMRN
                 	STS  @0+@1,R@2
                 	.ENDM
                 
                 	.MACRO __PUTWMRN
                 	STS  @0+@1,R@2
                 	STS  @0+@1+1,R@3
                 	.ENDM
                 
                 	.MACRO __PUTBZR
                 	STD  Z+@1,R@0
                 	.ENDM
                 
                 	.MACRO __PUTWZR
                 	STD  Z+@2,R@0
                 	STD  Z+@2+1,R@1
                 	.ENDM
                 
                 	.MACRO __GETW1R
                 	MOV  R30,R@0
                 	MOV  R31,R@1
                 	.ENDM
                 
                 	.MACRO __GETW2R
                 	MOV  R26,R@0
                 	MOV  R27,R@1
                 	.ENDM
                 
                 	.MACRO __GETWRN
                 	LDI  R@0,LOW(@2)
                 	LDI  R@1,HIGH(@2)
                 	.ENDM
                 
                 	.MACRO __PUTW1R
                 	MOV  R@0,R30
                 	MOV  R@1,R31
                 	.ENDM
                 
                 	.MACRO __PUTW2R
                 	MOV  R@0,R26
                 	MOV  R@1,R27
                 	.ENDM
                 
                 	.MACRO __ADDWRN
                 	SUBI R@0,LOW(-@2)
                 	SBCI R@1,HIGH(-@2)
                 	.ENDM
                 
                 	.MACRO __ADDWRR
                 	ADD  R@0,R@2
                 	ADC  R@1,R@3
                 	.ENDM
                 
                 	.MACRO __SUBWRN
                 	SUBI R@0,LOW(@2)
                 	SBCI R@1,HIGH(@2)
                 	.ENDM
                 
                 	.MACRO __SUBWRR
                 	SUB  R@0,R@2
                 	SBC  R@1,R@3
                 	.ENDM
                 
                 	.MACRO __ANDWRN
                 	ANDI R@0,LOW(@2)
                 	ANDI R@1,HIGH(@2)
                 	.ENDM
                 
                 	.MACRO __ANDWRR
                 	AND  R@0,R@2
                 	AND  R@1,R@3
                 	.ENDM
                 
                 	.MACRO __ORWRN
                 	ORI  R@0,LOW(@2)
                 	ORI  R@1,HIGH(@2)
                 	.ENDM
                 
                 	.MACRO __ORWRR
                 	OR   R@0,R@2
                 	OR   R@1,R@3
                 	.ENDM
                 
                 	.MACRO __EORWRR
                 	EOR  R@0,R@2
                 	EOR  R@1,R@3
                 	.ENDM
                 
                 	.MACRO __GETWRS
                 	LDD  R@0,Y+@2
                 	LDD  R@1,Y+@2+1
                 	.ENDM
                 
                 	.MACRO __PUTWSR
                 	STD  Y+@2,R@0
                 	STD  Y+@2+1,R@1
                 	.ENDM
                 
                 	.MACRO __MOVEWRR
                 	MOV  R@0,R@2
                 	MOV  R@1,R@3
                 	.ENDM
                 
                 	.MACRO __INWR
                 	IN   R@0,@2
                 	IN   R@1,@2+1
                 	.ENDM
                 
                 	.MACRO __OUTWR
                 	OUT  @2+1,R@1
                 	OUT  @2,R@0
                 	.ENDM
                 
                 	.MACRO __CALL1MN
                 	LDS  R30,@0+@1
                 	LDS  R31,@0+@1+1
                 	ICALL
                 	.ENDM
                 
                 	.MACRO __CALL1FN
                 	LDI  R30,LOW(2*@0+@1)
                 	LDI  R31,HIGH(2*@0+@1)
                 	CALL __GETW1PF
                 	ICALL
                 	.ENDM
                 
                 	.MACRO __CALL2EN
                 	LDI  R26,LOW(@0+@1)
                 	LDI  R27,HIGH(@0+@1)
                 	CALL __EEPROMRDW
                 	ICALL
                 	.ENDM
                 
                 	.MACRO __GETW1STACK
                 	IN   R26,SPL
                 	IN   R27,SPH
                 	ADIW R26,@0+1
                 	LD   R30,X+
                 	LD   R31,X
                 	.ENDM
                 
                 	.MACRO __NBST
                 	BST  R@0,@1
                 	IN   R30,SREG
                 	LDI  R31,0x40
                 	EOR  R30,R31
                 	OUT  SREG,R30
                 	.ENDM
                 
                 
                 	.MACRO __PUTB1SN
                 	LDD  R26,Y+@0
                 	LDD  R27,Y+@0+1
                 	SUBI R26,LOW(-@1)
                 	SBCI R27,HIGH(-@1)
                 	ST   X,R30
                 	.ENDM
                 
                 	.MACRO __PUTW1SN
                 	LDD  R26,Y+@0
                 	LDD  R27,Y+@0+1
                 	SUBI R26,LOW(-@1)
                 	SBCI R27,HIGH(-@1)
                 	ST   X+,R30
                 	ST   X,R31
                 	.ENDM
                 
                 	.MACRO __PUTD1SN
                 	LDD  R26,Y+@0
                 	LDD  R27,Y+@0+1
                 	SUBI R26,LOW(-@1)
                 	SBCI R27,HIGH(-@1)
                 	CALL __PUTDP1
                 	.ENDM
                 
                 	.MACRO __PUTB1SNS
                 	LDD  R26,Y+@0
                 	LDD  R27,Y+@0+1
                 	ADIW R26,@1
                 	ST   X,R30
                 	.ENDM
                 
                 	.MACRO __PUTW1SNS
                 	LDD  R26,Y+@0
                 	LDD  R27,Y+@0+1
                 	ADIW R26,@1
                 	ST   X+,R30
                 	ST   X,R31
                 	.ENDM
                 
                 	.MACRO __PUTD1SNS
                 	LDD  R26,Y+@0
                 	LDD  R27,Y+@0+1
                 	ADIW R26,@1
                 	CALL __PUTDP1
                 	.ENDM
                 
                 	.MACRO __PUTB1PMN
                 	LDS  R26,@0
                 	LDS  R27,@0+1
                 	SUBI R26,LOW(-@1)
                 	SBCI R27,HIGH(-@1)
                 	ST   X,R30
                 	.ENDM
                 
                 	.MACRO __PUTW1PMN
                 	LDS  R26,@0
                 	LDS  R27,@0+1
                 	SUBI R26,LOW(-@1)
                 	SBCI R27,HIGH(-@1)
                 	ST   X+,R30
                 	ST   X,R31
                 	.ENDM
                 
                 	.MACRO __PUTD1PMN
                 	LDS  R26,@0
                 	LDS  R27,@0+1
                 	SUBI R26,LOW(-@1)
                 	SBCI R27,HIGH(-@1)
                 	CALL __PUTDP1
                 	.ENDM
                 
                 	.MACRO __PUTB1PMNS
                 	LDS  R26,@0
                 	LDS  R27,@0+1
                 	ADIW R26,@1
                 	ST   X,R30
                 	.ENDM
                 
                 	.MACRO __PUTW1PMNS
                 	LDS  R26,@0
                 	LDS  R27,@0+1
                 	ADIW R26,@1
                 	ST   X+,R30
                 	ST   X,R31
                 	.ENDM
                 
                 	.MACRO __PUTD1PMNS
                 	LDS  R26,@0
                 	LDS  R27,@0+1
                 	ADIW R26,@1
                 	CALL __PUTDP1
                 	.ENDM
                 
                 	.MACRO __PUTB1RN
                 	MOVW R26,R@0
                 	SUBI R26,LOW(-@1)
                 	SBCI R27,HIGH(-@1)
                 	ST   X,R30
                 	.ENDM
                 
                 	.MACRO __PUTW1RN
                 	MOVW R26,R@0
                 	SUBI R26,LOW(-@1)
                 	SBCI R27,HIGH(-@1)
                 	ST   X+,R30
                 	ST   X,R31
                 	.ENDM
                 
                 	.MACRO __PUTD1RN
                 	MOVW R26,R@0
                 	SUBI R26,LOW(-@1)
                 	SBCI R27,HIGH(-@1)
                 	CALL __PUTDP1
                 	.ENDM
                 
                 	.MACRO __PUTB1RNS
                 	MOVW R26,R@0
                 	ADIW R26,@1
                 	ST   X,R30
                 	.ENDM
                 
                 	.MACRO __PUTW1RNS
                 	MOVW R26,R@0
                 	ADIW R26,@1
                 	ST   X+,R30
                 	ST   X,R31
                 	.ENDM
                 
                 	.MACRO __PUTD1RNS
                 	MOVW R26,R@0
                 	ADIW R26,@1
                 	CALL __PUTDP1
                 	.ENDM
                 
                 	.MACRO __PUTB1RON
                 	MOV  R26,R@0
                 	MOV  R27,R@1
                 	SUBI R26,LOW(-@2)
                 	SBCI R27,HIGH(-@2)
                 	ST   X,R30
                 	.ENDM
                 
                 	.MACRO __PUTW1RON
                 	MOV  R26,R@0
                 	MOV  R27,R@1
                 	SUBI R26,LOW(-@2)
                 	SBCI R27,HIGH(-@2)
                 	ST   X+,R30
                 	ST   X,R31
                 	.ENDM
                 
                 	.MACRO __PUTD1RON
                 	MOV  R26,R@0
                 	MOV  R27,R@1
                 	SUBI R26,LOW(-@2)
                 	SBCI R27,HIGH(-@2)
                 	CALL __PUTDP1
                 	.ENDM
                 
                 	.MACRO __PUTB1RONS
                 	MOV  R26,R@0
                 	MOV  R27,R@1
                 	ADIW R26,@2
                 	ST   X,R30
                 	.ENDM
                 
                 	.MACRO __PUTW1RONS
                 	MOV  R26,R@0
                 	MOV  R27,R@1
                 	ADIW R26,@2
                 	ST   X+,R30
                 	ST   X,R31
                 	.ENDM
                 
                 	.MACRO __PUTD1RONS
                 	MOV  R26,R@0
                 	MOV  R27,R@1
                 	ADIW R26,@2
                 	CALL __PUTDP1
                 	.ENDM
                 
                 
                 	.MACRO __GETB1SX
                 	MOVW R30,R28
                 	SUBI R30,LOW(-@0)
                 	SBCI R31,HIGH(-@0)
                 	LD   R30,Z
                 	.ENDM
                 
                 	.MACRO __GETB1HSX
                 	MOVW R30,R28
                 	SUBI R30,LOW(-@0)
                 	SBCI R31,HIGH(-@0)
                 	LD   R31,Z
                 	.ENDM
                 
                 	.MACRO __GETW1SX
                 	MOVW R30,R28
                 	SUBI R30,LOW(-@0)
                 	SBCI R31,HIGH(-@0)
                 	LD   R0,Z+
                 	LD   R31,Z
                 	MOV  R30,R0
                 	.ENDM
                 
                 	.MACRO __GETD1SX
                 	MOVW R30,R28
                 	SUBI R30,LOW(-@0)
                 	SBCI R31,HIGH(-@0)
                 	LD   R0,Z+
                 	LD   R1,Z+
                 	LD   R22,Z+
                 	LD   R23,Z
                 	MOVW R30,R0
                 	.ENDM
                 
                 	.MACRO __GETB2SX
                 	MOVW R26,R28
                 	SUBI R26,LOW(-@0)
                 	SBCI R27,HIGH(-@0)
                 	LD   R26,X
                 	.ENDM
                 
                 	.MACRO __GETW2SX
                 	MOVW R26,R28
                 	SUBI R26,LOW(-@0)
                 	SBCI R27,HIGH(-@0)
                 	LD   R0,X+
                 	LD   R27,X
                 	MOV  R26,R0
                 	.ENDM
                 
                 	.MACRO __GETD2SX
                 	MOVW R26,R28
                 	SUBI R26,LOW(-@0)
                 	SBCI R27,HIGH(-@0)
                 	LD   R0,X+
                 	LD   R1,X+
                 	LD   R24,X+
                 	LD   R25,X
                 	MOVW R26,R0
                 	.ENDM
                 
                 	.MACRO __GETBRSX
                 	MOVW R30,R28
                 	SUBI R30,LOW(-@1)
                 	SBCI R31,HIGH(-@1)
                 	LD   R@0,Z
                 	.ENDM
                 
                 	.MACRO __GETWRSX
                 	MOVW R30,R28
                 	SUBI R30,LOW(-@2)
                 	SBCI R31,HIGH(-@2)
                 	LD   R@0,Z+
                 	LD   R@1,Z
                 	.ENDM
                 
                 	.MACRO __LSLW8SX
                 	MOVW R30,R28
                 	SUBI R30,LOW(-@0)
                 	SBCI R31,HIGH(-@0)
                 	LD   R31,Z
                 	CLR  R30
                 	.ENDM
                 
                 	.MACRO __PUTB1SX
                 	MOVW R26,R28
                 	SUBI R26,LOW(-@0)
                 	SBCI R27,HIGH(-@0)
                 	ST   X,R30
                 	.ENDM
                 
                 	.MACRO __PUTW1SX
                 	MOVW R26,R28
                 	SUBI R26,LOW(-@0)
                 	SBCI R27,HIGH(-@0)
                 	ST   X+,R30
                 	ST   X,R31
                 	.ENDM
                 
                 	.MACRO __PUTD1SX
                 	MOVW R26,R28
                 	SUBI R26,LOW(-@0)
                 	SBCI R27,HIGH(-@0)
                 	ST   X+,R30
                 	ST   X+,R31
                 	ST   X+,R22
                 	ST   X,R23
                 	.ENDM
                 
                 	.MACRO __CLRW1SX
                 	MOVW R30,R28
                 	SUBI R30,LOW(-@0)
                 	SBCI R31,HIGH(-@0)
                 	CLR  R0
                 	ST   Z+,R0
                 	ST   Z,R0
                 	.ENDM
                 
                 	.MACRO __CLRD1SX
                 	MOVW R30,R28
                 	SUBI R30,LOW(-@0)
                 	SBCI R31,HIGH(-@0)
                 	CLR  R0
                 	ST   Z+,R0
                 	ST   Z+,R0
                 	ST   Z+,R0
                 	ST   Z,R0
                 	.ENDM
                 
                 	.MACRO __PUTB2SX
                 	MOVW R30,R28
                 	SUBI R30,LOW(-@0)
                 	SBCI R31,HIGH(-@0)
                 	ST   Z,R26
                 	.ENDM
                 
                 	.MACRO __PUTW2SX
                 	MOVW R30,R28
                 	SUBI R30,LOW(-@0)
                 	SBCI R31,HIGH(-@0)
                 	ST   Z+,R26
                 	ST   Z,R27
                 	.ENDM
                 
                 	.MACRO __PUTD2SX
                 	MOVW R30,R28
                 	SUBI R30,LOW(-@0)
                 	SBCI R31,HIGH(-@0)
                 	ST   Z+,R26
                 	ST   Z+,R27
                 	ST   Z+,R24
                 	ST   Z,R25
                 	.ENDM
                 
                 	.MACRO __PUTBSRX
                 	MOVW R30,R28
                 	SUBI R30,LOW(-@0)
                 	SBCI R31,HIGH(-@0)
                 	ST   Z,R@1
                 	.ENDM
                 
                 	.MACRO __PUTWSRX
                 	MOVW R30,R28
                 	SUBI R30,LOW(-@2)
                 	SBCI R31,HIGH(-@2)
                 	ST   Z+,R@0
                 	ST   Z,R@1
                 	.ENDM
                 
                 	.MACRO __PUTB1SNX
                 	MOVW R26,R28
                 	SUBI R26,LOW(-@0)
                 	SBCI R27,HIGH(-@0)
                 	LD   R0,X+
                 	LD   R27,X
                 	MOV  R26,R0
                 	SUBI R26,LOW(-@1)
                 	SBCI R27,HIGH(-@1)
                 	ST   X,R30
                 	.ENDM
                 
                 	.MACRO __PUTW1SNX
                 	MOVW R26,R28
                 	SUBI R26,LOW(-@0)
                 	SBCI R27,HIGH(-@0)
                 	LD   R0,X+
                 	LD   R27,X
                 	MOV  R26,R0
                 	SUBI R26,LOW(-@1)
                 	SBCI R27,HIGH(-@1)
                 	ST   X+,R30
                 	ST   X,R31
                 	.ENDM
                 
                 	.MACRO __PUTD1SNX
                 	MOVW R26,R28
                 	SUBI R26,LOW(-@0)
                 	SBCI R27,HIGH(-@0)
                 	LD   R0,X+
                 	LD   R27,X
                 	MOV  R26,R0
                 	SUBI R26,LOW(-@1)
                 	SBCI R27,HIGH(-@1)
                 	ST   X+,R30
                 	ST   X+,R31
                 	ST   X+,R22
                 	ST   X,R23
                 	.ENDM
                 
                 	.MACRO __MULBRR
                 	MULS R@0,R@1
                 	MOVW R30,R0
                 	.ENDM
                 
                 	.MACRO __MULBRRU
                 	MUL  R@0,R@1
                 	MOVW R30,R0
                 	.ENDM
                 
                 	.MACRO __MULBRR0
                 	MULS R@0,R@1
                 	.ENDM
                 
                 	.MACRO __MULBRRU0
                 	MUL  R@0,R@1
                 	.ENDM
                 
                 	.MACRO __MULBNWRU
                 	LDI  R26,@2
                 	MUL  R26,R@0
                 	MOVW R30,R0
                 	MUL  R26,R@1
                 	ADD  R31,R0
                 	.ENDM
                 
                 ;NAME DEFINITIONS FOR GLOBAL VARIABLES ALLOCATED TO REGISTERS
                 	.DEF _zero_Y=R4
                 	.DEF _zero_X=R6
                 	.DEF _vol=R9
                 	.DEF _bar=R8
                 	.DEF _X=R11
                 	.DEF _Y=R10
                 	.DEF _viz_ampl=R13
                 	.DEF _viz_faza=R12
                 
                 	.CSEG
                 	.ORG 0x00
                 
                 ;INTERRUPT VECTORS
000000 940c 0248 	JMP  __RESET
000002 940c 0000 	JMP  0x00
000004 940c 0000 	JMP  0x00
000006 940c 0000 	JMP  0x00
000008 940c 0000 	JMP  0x00
00000a 940c 0000 	JMP  0x00
00000c 940c 0000 	JMP  0x00
00000e 940c 0000 	JMP  0x00
000010 940c 0000 	JMP  0x00
000012 940c 0000 	JMP  0x00
000014 940c 0000 	JMP  0x00
000016 940c 0000 	JMP  0x00
000018 940c 0000 	JMP  0x00
00001a 940c 0000 	JMP  0x00
00001c 940c 0000 	JMP  0x00
00001e 940c 0000 	JMP  0x00
000020 940c 0000 	JMP  0x00
000022 940c 0000 	JMP  0x00
000024 940c 0000 	JMP  0x00
000026 940c 0000 	JMP  0x00
000028 940c 0000 	JMP  0x00
                 
                 _tbl10_G101:
00002a 2710
00002b 03e8
00002c 0064
00002d 000a      	.DB  0x10,0x27,0xE8,0x3,0x64,0x0,0xA,0x0
00002e 0001      	.DB  0x1,0x0
                 _tbl16_G101:
00002f 1000
000030 0100
000031 0010
000032 0001      	.DB  0x0,0x10,0x0,0x1,0x10,0x0,0x1,0x0
                 
                 _0x0:
000033 6425
000034 252e
000035 5664
000036 5620      	.DB  0x25,0x64,0x2E,0x25,0x64,0x56,0x20,0x56
000037 253d
000038 2064
000039 3d42
00003a 6425      	.DB  0x3D,0x25,0x64,0x20,0x42,0x3D,0x25,0x64
00003b 2020
00003c 0020
00003d 7825
00003e 2520      	.DB  0x20,0x20,0x20,0x0,0x25,0x78,0x20,0x25
00003f 2078
000040 5a3d
000041 2b00
000042 0047      	.DB  0x78,0x20,0x3D,0x5A,0x0,0x2B,0x47,0x0
000043 522b
000044 2b00
000045 6c41
000046 006c      	.DB  0x2B,0x52,0x0,0x2B,0x41,0x6C,0x6C,0x0
000047 462d
000048 2065
000049 5600
00004a 6c6f      	.DB  0x2D,0x46,0x65,0x20,0x0,0x56,0x6F,0x6C
00004b 6d75
00004c 2065
00004d 6425
00004e 2020      	.DB  0x75,0x6D,0x65,0x20,0x25,0x64,0x20,0x20
00004f 2020
000050 2020
000051 2020
000052 4200      	.DB  0x20,0x20,0x20,0x20,0x20,0x20,0x0,0x42
000053 7261
000054 6972
000055 7265
000056 2520      	.DB  0x61,0x72,0x72,0x69,0x65,0x72,0x20,0x25
000057 2064
000058 2020
000059 2020
00005a 2020      	.DB  0x64,0x20,0x20,0x20,0x20,0x20,0x20,0x20
00005b 3e00
00005c 3e3e
00005d 3e3e
00005e 5220      	.DB  0x0,0x3E,0x3E,0x3E,0x3E,0x3E,0x20,0x52
00005f 636f
000060 206b
000061 3c3c
000062 3c3c      	.DB  0x6F,0x63,0x6B,0x20,0x3C,0x3C,0x3C,0x3C
000063 003c
000064 6625
000065 2520
000066 0066      	.DB  0x3C,0x0,0x25,0x66,0x20,0x25,0x66,0x0
000067 3e3e
000068 3e3e
000069 4720
00006a 6f72      	.DB  0x3E,0x3E,0x3E,0x3E,0x20,0x47,0x72,0x6F
00006b 6e75
00006c 2064
00006d 3c3c
00006e 3c3c      	.DB  0x75,0x6E,0x64,0x20,0x3C,0x3C,0x3C,0x3C
00006f 2500
000070 2066
000071 6625
000072 0020      	.DB  0x0,0x25,0x66,0x20,0x25,0x66,0x20,0x0
000073 3e3e
000074 3e3e
000075 203e
000076 655a      	.DB  0x3E,0x3E,0x3E,0x3E,0x3E,0x20,0x5A,0x65
000077 6f72
000078 3c20
000079 3c3c
00007a 3c3c      	.DB  0x72,0x6F,0x20,0x3C,0x3C,0x3C,0x3C,0x3C
00007b 2500
00007c 2078
00007d 7825
00007e 2520      	.DB  0x0,0x25,0x78,0x20,0x25,0x78,0x20,0x25
00007f 2078
000080 7825
000081 0020
000082 2020      	.DB  0x78,0x20,0x25,0x78,0x20,0x0,0x20,0x20
000083 2020
000084 2020
000085 2020
000086 2020      	.DB  0x20,0x20,0x20,0x20,0x20,0x20,0x20,0x20
000087 2020
000088 2020
000089 2020
00008a 5f00      	.DB  0x20,0x20,0x20,0x20,0x20,0x20,0x0,0x5F
00008b 2020
00008c 2020
00008d 2020
00008e 2020      	.DB  0x20,0x20,0x20,0x20,0x20,0x20,0x20,0x20
00008f 2020
000090 2020
000091 2020
000092 0020      	.DB  0x20,0x20,0x20,0x20,0x20,0x20,0x20,0x0
000093 20ff
000094 2020
000095 2020
000096 2020      	.DB  0xFF,0x20,0x20,0x20,0x20,0x20,0x20,0x20
000097 2020
000098 2020
000099 2020
00009a 2020      	.DB  0x20,0x20,0x20,0x20,0x20,0x20,0x20,0x20
00009b ff00
00009c 205f
00009d 2020
00009e 2020      	.DB  0x0,0xFF,0x5F,0x20,0x20,0x20,0x20,0x20
00009f 2020
0000a0 2020
0000a1 2020
0000a2 2020      	.DB  0x20,0x20,0x20,0x20,0x20,0x20,0x20,0x20
0000a3 0020
0000a4 ffff
0000a5 2020
0000a6 2020      	.DB  0x20,0x0,0xFF,0xFF,0x20,0x20,0x20,0x20
0000a7 2020
0000a8 2020
0000a9 2020
0000aa 2020      	.DB  0x20,0x20,0x20,0x20,0x20,0x20,0x20,0x20
0000ab 2020
0000ac ff00
0000ad 5fff
0000ae 2020      	.DB  0x20,0x20,0x0,0xFF,0xFF,0x5F,0x20,0x20
0000af 2020
0000b0 2020
0000b1 2020
0000b2 2020      	.DB  0x20,0x20,0x20,0x20,0x20,0x20,0x20,0x20
0000b3 2020
0000b4 0020
0000b5 ffff
0000b6 20ff      	.DB  0x20,0x20,0x20,0x0,0xFF,0xFF,0xFF,0x20
0000b7 2020
0000b8 2020
0000b9 2020
0000ba 2020      	.DB  0x20,0x20,0x20,0x20,0x20,0x20,0x20,0x20
0000bb 2020
0000bc 2020
0000bd ff00
0000be ffff      	.DB  0x20,0x20,0x20,0x20,0x0,0xFF,0xFF,0xFF
0000bf 205f
0000c0 2020
0000c1 2020
0000c2 2020      	.DB  0x5F,0x20,0x20,0x20,0x20,0x20,0x20,0x20
0000c3 2020
0000c4 2020
0000c5 0020
0000c6 ffff      	.DB  0x20,0x20,0x20,0x20,0x20,0x0,0xFF,0xFF
0000c7 ffff
0000c8 2020
0000c9 2020
0000ca 2020      	.DB  0xFF,0xFF,0x20,0x20,0x20,0x20,0x20,0x20
0000cb 2020
0000cc 2020
0000cd 2020
0000ce ff00      	.DB  0x20,0x20,0x20,0x20,0x20,0x20,0x0,0xFF
0000cf ffff
0000d0 5fff
0000d1 2020
0000d2 2020      	.DB  0xFF,0xFF,0xFF,0x5F,0x20,0x20,0x20,0x20
0000d3 2020
0000d4 2020
0000d5 2020
0000d6 0020      	.DB  0x20,0x20,0x20,0x20,0x20,0x20,0x20,0x0
0000d7 ffff
0000d8 ffff
0000d9 20ff
0000da 2020      	.DB  0xFF,0xFF,0xFF,0xFF,0xFF,0x20,0x20,0x20
0000db 2020
0000dc 2020
0000dd 2020
0000de 2020      	.DB  0x20,0x20,0x20,0x20,0x20,0x20,0x20,0x20
0000df ff00
0000e0 ffff
0000e1 ffff
0000e2 205f      	.DB  0x0,0xFF,0xFF,0xFF,0xFF,0xFF,0x5F,0x20
0000e3 2020
0000e4 2020
0000e5 2020
0000e6 2020      	.DB  0x20,0x20,0x20,0x20,0x20,0x20,0x20,0x20
0000e7 0020
0000e8 ffff
0000e9 ffff
0000ea ffff      	.DB  0x20,0x0,0xFF,0xFF,0xFF,0xFF,0xFF,0xFF
0000eb 2020
0000ec 2020
0000ed 2020
0000ee 2020      	.DB  0x20,0x20,0x20,0x20,0x20,0x20,0x20,0x20
0000ef 2020
0000f0 ff00
0000f1 ffff
0000f2 ffff      	.DB  0x20,0x20,0x0,0xFF,0xFF,0xFF,0xFF,0xFF
0000f3 5fff
0000f4 2020
0000f5 2020
0000f6 2020      	.DB  0xFF,0x5F,0x20,0x20,0x20,0x20,0x20,0x20
0000f7 2020
0000f8 0020
0000f9 ffff
0000fa ffff      	.DB  0x20,0x20,0x20,0x0,0xFF,0xFF,0xFF,0xFF
0000fb ffff
0000fc 20ff
0000fd 2020
0000fe 2020      	.DB  0xFF,0xFF,0xFF,0x20,0x20,0x20,0x20,0x20
0000ff 2020
000100 2020
000101 ff00
000102 ffff      	.DB  0x20,0x20,0x20,0x20,0x0,0xFF,0xFF,0xFF
000103 ffff
000104 ffff
000105 205f
000106 2020      	.DB  0xFF,0xFF,0xFF,0xFF,0x5F,0x20,0x20,0x20
000107 2020
000108 2020
000109 0020
00010a ffff      	.DB  0x20,0x20,0x20,0x20,0x20,0x0,0xFF,0xFF
00010b ffff
00010c ffff
00010d ffff
00010e 2020      	.DB  0xFF,0xFF,0xFF,0xFF,0xFF,0xFF,0x20,0x20
00010f 2020
000110 2020
000111 2020
000112 ff00      	.DB  0x20,0x20,0x20,0x20,0x20,0x20,0x0,0xFF
000113 ffff
000114 ffff
000115 ffff
000116 5fff      	.DB  0xFF,0xFF,0xFF,0xFF,0xFF,0xFF,0xFF,0x5F
000117 2020
000118 2020
000119 2020
00011a 0020      	.DB  0x20,0x20,0x20,0x20,0x20,0x20,0x20,0x0
00011b ffff
00011c ffff
00011d ffff
00011e ffff      	.DB  0xFF,0xFF,0xFF,0xFF,0xFF,0xFF,0xFF,0xFF
00011f 20ff
000120 2020
000121 2020
000122 2020      	.DB  0xFF,0x20,0x20,0x20,0x20,0x20,0x20,0x20
000123 ff00
000124 ffff
000125 ffff
000126 ffff      	.DB  0x0,0xFF,0xFF,0xFF,0xFF,0xFF,0xFF,0xFF
000127 ffff
000128 205f
000129 2020
00012a 2020      	.DB  0xFF,0xFF,0x5F,0x20,0x20,0x20,0x20,0x20
00012b 0020
00012c ffff
00012d ffff
00012e ffff      	.DB  0x20,0x0,0xFF,0xFF,0xFF,0xFF,0xFF,0xFF
00012f ffff
000130 ffff
000131 2020
000132 2020      	.DB  0xFF,0xFF,0xFF,0xFF,0x20,0x20,0x20,0x20
000133 2020
000134 ff00
000135 ffff
000136 ffff      	.DB  0x20,0x20,0x0,0xFF,0xFF,0xFF,0xFF,0xFF
000137 ffff
000138 ffff
000139 5fff
00013a 2020      	.DB  0xFF,0xFF,0xFF,0xFF,0xFF,0x5F,0x20,0x20
00013b 2020
00013c 0020
00013d ffff
00013e ffff      	.DB  0x20,0x20,0x20,0x0,0xFF,0xFF,0xFF,0xFF
00013f ffff
000140 ffff
000141 ffff
000142 20ff      	.DB  0xFF,0xFF,0xFF,0xFF,0xFF,0xFF,0xFF,0x20
000143 2020
000144 2020
000145 ff00
000146 ffff      	.DB  0x20,0x20,0x20,0x20,0x0,0xFF,0xFF,0xFF
000147 ffff
000148 ffff
000149 ffff
00014a ffff      	.DB  0xFF,0xFF,0xFF,0xFF,0xFF,0xFF,0xFF,0xFF
00014b 205f
00014c 2020
00014d 0020
00014e ffff      	.DB  0x5F,0x20,0x20,0x20,0x20,0x0,0xFF,0xFF
00014f ffff
000150 ffff
000151 ffff
000152 ffff      	.DB  0xFF,0xFF,0xFF,0xFF,0xFF,0xFF,0xFF,0xFF
000153 ffff
000154 2020
000155 2020
000156 ff00      	.DB  0xFF,0xFF,0x20,0x20,0x20,0x20,0x0,0xFF
000157 ffff
000158 ffff
000159 ffff
00015a ffff      	.DB  0xFF,0xFF,0xFF,0xFF,0xFF,0xFF,0xFF,0xFF
00015b ffff
00015c 5fff
00015d 2020
00015e 0020      	.DB  0xFF,0xFF,0xFF,0x5F,0x20,0x20,0x20,0x0
00015f ffff
000160 ffff
000161 ffff
000162 ffff      	.DB  0xFF,0xFF,0xFF,0xFF,0xFF,0xFF,0xFF,0xFF
000163 ffff
000164 ffff
000165 20ff
000166 2020      	.DB  0xFF,0xFF,0xFF,0xFF,0xFF,0x20,0x20,0x20
000167 ff00
000168 ffff
000169 ffff
00016a ffff      	.DB  0x0,0xFF,0xFF,0xFF,0xFF,0xFF,0xFF,0xFF
00016b ffff
00016c ffff
00016d ffff
00016e 205f      	.DB  0xFF,0xFF,0xFF,0xFF,0xFF,0xFF,0x5F,0x20
00016f 0020
000170 ffff
000171 ffff
000172 ffff      	.DB  0x20,0x0,0xFF,0xFF,0xFF,0xFF,0xFF,0xFF
000173 ffff
000174 ffff
000175 ffff
000176 ffff      	.DB  0xFF,0xFF,0xFF,0xFF,0xFF,0xFF,0xFF,0xFF
000177 2020
000178 ff00
000179 ffff
00017a ffff      	.DB  0x20,0x20,0x0,0xFF,0xFF,0xFF,0xFF,0xFF
00017b ffff
00017c ffff
00017d ffff
00017e ffff      	.DB  0xFF,0xFF,0xFF,0xFF,0xFF,0xFF,0xFF,0xFF
00017f 5fff
000180 0020
000181 ffff
000182 ffff      	.DB  0xFF,0x5F,0x20,0x0,0xFF,0xFF,0xFF,0xFF
000183 ffff
000184 ffff
000185 ffff
000186 ffff      	.DB  0xFF,0xFF,0xFF,0xFF,0xFF,0xFF,0xFF,0xFF
000187 ffff
000188 20ff
000189 ff00
00018a ffff      	.DB  0xFF,0xFF,0xFF,0x20,0x0,0xFF,0xFF,0xFF
00018b ffff
00018c ffff
00018d ffff
00018e ffff      	.DB  0xFF,0xFF,0xFF,0xFF,0xFF,0xFF,0xFF,0xFF
00018f ffff
000190 ffff
000191 005f
000192 ffff      	.DB  0xFF,0xFF,0xFF,0xFF,0x5F,0x0,0xFF,0xFF
000193 ffff
000194 ffff
000195 ffff
000196 ffff      	.DB  0xFF,0xFF,0xFF,0xFF,0xFF,0xFF,0xFF,0xFF
000197 ffff
000198 ffff
000199 ffff
00019a db00      	.DB  0xFF,0xFF,0xFF,0xFF,0xFF,0xFF,0x0,0xDB
00019b 2d2d
00019c 2d2d
00019d 2d2d
00019e 4949      	.DB  0x2D,0x2D,0x2D,0x2D,0x2D,0x2D,0x49,0x49
00019f 2d2d
0001a0 2d2d
0001a1 2d2d
0001a2 00dc      	.DB  0x2D,0x2D,0x2D,0x2D,0x2D,0x2D,0xDC,0x0
0001a3 2ddb
0001a4 2d2d
0001a5 2d2d
0001a6 232d      	.DB  0xDB,0x2D,0x2D,0x2D,0x2D,0x2D,0x2D,0x23
0001a7 2d49
0001a8 2d2d
0001a9 2d2d
0001aa dc2d      	.DB  0x49,0x2D,0x2D,0x2D,0x2D,0x2D,0x2D,0xDC
0001ab db00
0001ac 2d2d
0001ad 2d2d
0001ae 232d      	.DB  0x0,0xDB,0x2D,0x2D,0x2D,0x2D,0x2D,0x23
0001af 4949
0001b0 2d2d
0001b1 2d2d
0001b2 2d2d      	.DB  0x49,0x49,0x2D,0x2D,0x2D,0x2D,0x2D,0x2D
0001b3 00dc
0001b4 2ddb
0001b5 2d2d
0001b6 232d      	.DB  0xDC,0x0,0xDB,0x2D,0x2D,0x2D,0x2D,0x23
0001b7 492d
0001b8 2d49
0001b9 2d2d
0001ba 2d2d      	.DB  0x2D,0x49,0x49,0x2D,0x2D,0x2D,0x2D,0x2D
0001bb dc2d
0001bc db00
0001bd 2d2d
0001be 232d      	.DB  0x2D,0xDC,0x0,0xDB,0x2D,0x2D,0x2D,0x23
0001bf 2d2d
0001c0 4949
0001c1 2d2d
0001c2 2d2d      	.DB  0x2D,0x2D,0x49,0x49,0x2D,0x2D,0x2D,0x2D
0001c3 2d2d
0001c4 00dc
0001c5 2ddb
0001c6 232d      	.DB  0x2D,0x2D,0xDC,0x0,0xDB,0x2D,0x2D,0x23
0001c7 2d2d
0001c8 492d
0001c9 2d49
0001ca 2d2d      	.DB  0x2D,0x2D,0x2D,0x49,0x49,0x2D,0x2D,0x2D
0001cb 2d2d
0001cc dc2d
0001cd db00
0001ce 232d      	.DB  0x2D,0x2D,0x2D,0xDC,0x0,0xDB,0x2D,0x23
0001cf 2d2d
0001d0 2d2d
0001d1 4949
0001d2 2d2d      	.DB  0x2D,0x2D,0x2D,0x2D,0x49,0x49,0x2D,0x2D
0001d3 2d2d
0001d4 2d2d
0001d5 00dc
0001d6 23db      	.DB  0x2D,0x2D,0x2D,0x2D,0xDC,0x0,0xDB,0x23
0001d7 2d2d
0001d8 2d2d
0001d9 492d
0001da 2d49      	.DB  0x2D,0x2D,0x2D,0x2D,0x2D,0x49,0x49,0x2D
0001db 2d2d
0001dc 2d2d
0001dd dc2d
0001de 3e00      	.DB  0x2D,0x2D,0x2D,0x2D,0x2D,0xDC,0x0,0x3E
0001df 3c5f
0001e0 2d2d
0001e1 2d2d
0001e2 4949      	.DB  0x5F,0x3C,0x2D,0x2D,0x2D,0x2D,0x49,0x49
0001e3 2d2d
0001e4 2d2d
0001e5 2d2d
0001e6 00dc      	.DB  0x2D,0x2D,0x2D,0x2D,0x2D,0x2D,0xDC,0x0
0001e7 2ddb
0001e8 2d2d
0001e9 2d2d
0001ea 492d      	.DB  0xDB,0x2D,0x2D,0x2D,0x2D,0x2D,0x2D,0x49
0001eb 2d23
0001ec 2d2d
0001ed 2d2d
0001ee dc2d      	.DB  0x23,0x2D,0x2D,0x2D,0x2D,0x2D,0x2D,0xDC
0001ef db00
0001f0 2d2d
0001f1 2d2d
0001f2 2d2d      	.DB  0x0,0xDB,0x2D,0x2D,0x2D,0x2D,0x2D,0x2D
0001f3 4949
0001f4 2d23
0001f5 2d2d
0001f6 2d2d      	.DB  0x49,0x49,0x23,0x2D,0x2D,0x2D,0x2D,0x2D
0001f7 00dc
0001f8 2ddb
0001f9 2d2d
0001fa 2d2d      	.DB  0xDC,0x0,0xDB,0x2D,0x2D,0x2D,0x2D,0x2D
0001fb 492d
0001fc 2d49
0001fd 2d23
0001fe 2d2d      	.DB  0x2D,0x49,0x49,0x2D,0x23,0x2D,0x2D,0x2D
0001ff dc2d
000200 db00
000201 2d2d
000202 2d2d      	.DB  0x2D,0xDC,0x0,0xDB,0x2D,0x2D,0x2D,0x2D
000203 2d2d
000204 4949
000205 2d2d
000206 2d23      	.DB  0x2D,0x2D,0x49,0x49,0x2D,0x2D,0x23,0x2D
000207 2d2d
000208 00dc
000209 2ddb
00020a 2d2d      	.DB  0x2D,0x2D,0xDC,0x0,0xDB,0x2D,0x2D,0x2D
00020b 2d2d
00020c 492d
00020d 2d49
00020e 2d2d      	.DB  0x2D,0x2D,0x2D,0x49,0x49,0x2D,0x2D,0x2D
00020f 2d23
000210 dc2d
000211 db00
000212 2d2d      	.DB  0x23,0x2D,0x2D,0xDC,0x0,0xDB,0x2D,0x2D
000213 2d2d
000214 2d2d
000215 4949
000216 2d2d      	.DB  0x2D,0x2D,0x2D,0x2D,0x49,0x49,0x2D,0x2D
000217 2d2d
000218 2d23
000219 00dc
00021a 2ddb      	.DB  0x2D,0x2D,0x23,0x2D,0xDC,0x0,0xDB,0x2D
00021b 2d2d
00021c 2d2d
00021d 492d
00021e 2d49      	.DB  0x2D,0x2D,0x2D,0x2D,0x2D,0x49,0x49,0x2D
00021f 2d2d
000220 2d2d
000221 dc23
000222 db00      	.DB  0x2D,0x2D,0x2D,0x2D,0x23,0xDC,0x0,0xDB
000223 2d2d
000224 2d2d
000225 2d2d
000226 4949      	.DB  0x2D,0x2D,0x2D,0x2D,0x2D,0x2D,0x49,0x49
000227 2d2d
000228 2d2d
000229 5f6f
00022a 004f      	.DB  0x2D,0x2D,0x2D,0x2D,0x6F,0x5F,0x4F,0x0
00022b 2424
00022c 2024
00022d 444d
00022e 455f      	.DB  0x24,0x24,0x24,0x20,0x4D,0x44,0x5F,0x45
00022f 7878
000230 7375
000231 2420
000232 2424      	.DB  0x78,0x78,0x75,0x73,0x20,0x24,0x24,0x24
000233 7600
000234 2e31
000235 2035
000236 5f5e      	.DB  0x0,0x76,0x31,0x2E,0x35,0x20,0x5E,0x5F
000237 205e
000238 646d
000239 7534
00023a 722e      	.DB  0x5E,0x20,0x6D,0x64,0x34,0x75,0x2E,0x72
00023b 0075      	.DB  0x75,0x0
                 _0x2000003:
00023c c080      	.DB  0x80,0xC0
                 _0x20A005F:
D:\Program Files\Project\MD_IB_Exxus_5\Otladka\CV_2\List\out.asm(1202): warning: .cseg .db misalignment - padding zero byte
00023d 0001      	.DB  0x1
                 _0x20A0000:
00023e 4e2d
00023f 4e41
D:\Program Files\Project\MD_IB_Exxus_5\Otladka\CV_2\List\out.asm(1204): warning: .cseg .db misalignment - padding zero byte
000240 0000      	.DB  0x2D,0x4E,0x41,0x4E,0x0
                 
                 __GLOBAL_INI_TBL:
000241 0002      	.DW  0x02
000242 02c0      	.DW  __base_y_G100
000243 0478      	.DW  _0x2000003*2
                 
000244 0001      	.DW  0x01
000245 02c9      	.DW  __seed_G105
000246 047a      	.DW  _0x20A005F*2
                 
                 _0xFFFFFFFF:
000247 0000      	.DW  0
                 
                 __RESET:
000248 94f8      	CLI
000249 27ee      	CLR  R30
00024a bbec      	OUT  EECR,R30
                 
                 ;INTERRUPT VECTORS ARE PLACED
                 ;AT THE START OF FLASH
00024b e0f1      	LDI  R31,1
00024c bffb      	OUT  GICR,R31
00024d bfeb      	OUT  GICR,R30
00024e bfe5      	OUT  MCUCR,R30
                 
                 ;DISABLE WATCHDOG
00024f e1f8      	LDI  R31,0x18
000250 bdf1      	OUT  WDTCR,R31
000251 bde1      	OUT  WDTCR,R30
                 
                 ;CLEAR R2-R14
000252 e08d      	LDI  R24,(14-2)+1
000253 e0a2      	LDI  R26,2
000254 27bb      	CLR  R27
                 __CLEAR_REG:
000255 93ed      	ST   X+,R30
000256 958a      	DEC  R24
000257 f7e9      	BRNE __CLEAR_REG
                 
                 ;CLEAR SRAM
000258 e080      	LDI  R24,LOW(0x800)
000259 e098      	LDI  R25,HIGH(0x800)
00025a e6a0      	LDI  R26,0x60
                 __CLEAR_SRAM:
00025b 93ed      	ST   X+,R30
00025c 9701      	SBIW R24,1
00025d f7e9      	BRNE __CLEAR_SRAM
                 
                 ;GLOBAL VARIABLES INITIALIZATION
00025e e8e2      	LDI  R30,LOW(__GLOBAL_INI_TBL*2)
00025f e0f4      	LDI  R31,HIGH(__GLOBAL_INI_TBL*2)
                 __GLOBAL_INI_NEXT:
000260 9185      	LPM  R24,Z+
000261 9195      	LPM  R25,Z+
000262 9700      	SBIW R24,0
000263 f061      	BREQ __GLOBAL_INI_END
000264 91a5      	LPM  R26,Z+
000265 91b5      	LPM  R27,Z+
000266 9005      	LPM  R0,Z+
000267 9015      	LPM  R1,Z+
000268 01bf      	MOVW R22,R30
000269 01f0      	MOVW R30,R0
                 __GLOBAL_INI_LOOP:
00026a 9005      	LPM  R0,Z+
00026b 920d      	ST   X+,R0
00026c 9701      	SBIW R24,1
00026d f7e1      	BRNE __GLOBAL_INI_LOOP
00026e 01fb      	MOVW R30,R22
00026f cff0      	RJMP __GLOBAL_INI_NEXT
                 __GLOBAL_INI_END:
                 
                 ;STACK POINTER INITIALIZATION
000270 e5ef      	LDI  R30,LOW(0x85F)
000271 bfed      	OUT  SPL,R30
000272 e0e8      	LDI  R30,HIGH(0x85F)
000273 bfee      	OUT  SPH,R30
                 
                 ;DATA STACK POINTER INITIALIZATION
000274 e6c0      	LDI  R28,LOW(0x260)
000275 e0d2      	LDI  R29,HIGH(0x260)
                 
000276 940c 0764 	JMP  _main
                 
                 	.ESEG
                 	.ORG 0
                 
                 	.DSEG
                 	.ORG 0x260
                 
                 	.CSEG
                 ;/*****************************************************
                 ;This program was produced by the
                 ;CodeWizardAVR V2.03.4 Standard
                 ;Automatic Program Generator
                 ; Copyright 1998-2008 Pavel Haiduc, HP InfoTech s.r.l.
                 ;http://www.hpinfotech.com
                 ;
                 ;Project :
                 ;Version :
                 ;Date    : 04.08.2009
                 ;Author  :
                 ;Company :
                 ;Comments:
                 ;
                 ;
                 ;Chip type           : ATmega32
                 ;Program type        : Application
                 ;Clock frequency     : 8,000000 MHz
                 ;Memory model        : Small
                 ;External RAM size   : 0
                 ;Data Stack size     : 512
                 ;*****************************************************/
                 ;
                 ;#include <mega32.h>
                 	#ifndef __SLEEP_DEFINED__
                 	#define __SLEEP_DEFINED__
                 	.EQU __se_bit=0x80
                 	.EQU __sm_mask=0x70
                 	.EQU __sm_powerdown=0x20
                 	.EQU __sm_powersave=0x30
                 	.EQU __sm_standby=0x60
                 	.EQU __sm_ext_standby=0x70
                 	.EQU __sm_adc_noise_red=0x10
                 	.SET power_ctrl_reg=mcucr
                 	#endif
                 ;
                 ;// Alphanumeric LCD Module functions
                 ;#asm
                    .equ __lcd_port=0x15 ;PORTC
                 ; 0000 001D #endasm
                 ;
                 ;// I2C Bus functions
                 ;#asm
                    .equ __i2c_port=0x18 ;PORTB
                    .equ __sda_bit=1
                    .equ __scl_bit=0
                 ; 0000 0024 #endasm
                 ;
                 ;#include <lcd.h>
                 ;#include <stdio.h>
                 ;#include <delay.h>
                 ;#include <math.h>
                 ;#include <i2c.h>
                 ;
                 ;#define ADC_VREF_TYPE 0x60
                 ;#define light PORTD.6
                 ;
                 ;// Declare your global variables here
                 ;char string_LCD_1[20], string_LCD_2[20];
                 ;unsigned int zero_Y, zero_X;
                 ;float  gnd_ampl, gnd_faza, rock_ampl, rock_faza, gnd_ampl_max, gnd_faza_max, rock_ampl_max, rock_faza_max;
                 ;float now_ampl, now_faza, bar_rad;
                 ;unsigned char vol, bar;
                 ;unsigned char X, Y, viz_ampl, viz_faza;
                 ;unsigned int batt_celoe, batt_drob;
                 ;bit kn1, kn2, kn3, kn4, kn5, kn6, menu, mod_gnd, mod_rock, mod_all_met;
                 ;
                 ;float temp_ampl = 0;
                 ;float temp_faza = 0;
                 ;
                 ;// Read the 8 most significant bits
                 ;// of the AD conversion result
                 ;unsigned char read_adc(unsigned char adc_input)
                 ; 0000 003F {
                 
                 	.CSEG
                 _read_adc:
                 ; 0000 0040 ADMUX=adc_input | (ADC_VREF_TYPE & 0xff);
                 ;	adc_input -> Y+0
000278 940e 107d 	CALL SUBOPT_0x0
00027a 66e0      	ORI  R30,LOW(0x60)
00027b b9e7      	OUT  0x7,R30
                 ; 0000 0041 // Delay needed for the stabilization of the ADC input voltage
                 ; 0000 0042 delay_us(10);
                +
00027c e387     +LDI R24 , LOW ( 55 )
                +__DELAY_USB_LOOP :
00027d 958a     +DEC R24
00027e f7f1     +BRNE __DELAY_USB_LOOP
                 	__DELAY_USB 55
                 ; 0000 0043 // Start the AD conversion
                 ; 0000 0044 ADCSRA|=0x40;
00027f 940e 1080 	CALL SUBOPT_0x1
000281 64e0      	ORI  R30,0x40
000282 b9e6      	OUT  0x6,R30
                 ; 0000 0045 // Wait for the AD conversion to complete
                 ; 0000 0046 while ((ADCSRA & 0x10)==0);
                 _0x3:
000283 940e 1080 	CALL SUBOPT_0x1
000285 71e0      	ANDI R30,LOW(0x10)
000286 f3e1      	BREQ _0x3
                 ; 0000 0047 ADCSRA|=0x10;
000287 940e 1080 	CALL SUBOPT_0x1
000289 61e0      	ORI  R30,0x10
00028a b9e6      	OUT  0x6,R30
                 ; 0000 0048 return ADCH;
00028b b1e5      	IN   R30,0x5
00028c 9621      	ADIW R28,1
00028d 9508      	RET
                 ; 0000 0049 }
                 ;
                 ;void batt_zarqd(void)
                 ; 0000 004C     {
                 _batt_zarqd:
                 ; 0000 004D     unsigned int temp;
                 ; 0000 004E     temp=read_adc(0);
00028e 931a      	ST   -Y,R17
00028f 930a      	ST   -Y,R16
                 ;	temp -> R16,R17
000290 e0e0      	LDI  R30,LOW(0)
000291 93ea      	ST   -Y,R30
000292 dfe5      	RCALL _read_adc
000293 2f0e      	MOV  R16,R30
000294 2711      	CLR  R17
                 ; 0000 004F     batt_celoe=temp/10;
000295 01d8      	MOVW R26,R16
000296 e0ea      	LDI  R30,LOW(10)
000297 e0f0      	LDI  R31,HIGH(10)
000298 940e 1495 	CALL __DIVW21U
00029a 93e0 02b4 	STS  _batt_celoe,R30
00029c 93f0 02b5 	STS  _batt_celoe+1,R31
                 ; 0000 0050     batt_drob=temp%10;
00029e 01d8      	MOVW R26,R16
00029f e0ea      	LDI  R30,LOW(10)
0002a0 e0f0      	LDI  R31,HIGH(10)
0002a1 940e 14a8 	CALL __MODW21U
0002a3 93e0 02b6 	STS  _batt_drob,R30
0002a5 93f0 02b7 	STS  _batt_drob+1,R31
                 ; 0000 0051     }
0002a7 9109      	LD   R16,Y+
0002a8 9119      	LD   R17,Y+
0002a9 9508      	RET
                 ;
                 ;void kn_klava(void)
                 ; 0000 0054     {
                 _kn_klava:
                 ; 0000 0055     kn1=0;
0002aa 94e8      	CLT
0002ab f820      	BLD  R2,0
                 ; 0000 0056     kn2=0;
0002ac f821      	BLD  R2,1
                 ; 0000 0057     kn3=0;
0002ad f822      	BLD  R2,2
                 ; 0000 0058     kn4=0;
0002ae f823      	BLD  R2,3
                 ; 0000 0059     kn5=0;
0002af f824      	BLD  R2,4
                 ; 0000 005A     kn6=0;
0002b0 f825      	BLD  R2,5
                 ; 0000 005B     DDRD.2=1;
0002b1 9a8a      	SBI  0x11,2
                 ; 0000 005C     PORTD.2=0;
0002b2 9892      	CBI  0x12,2
                 ; 0000 005D     delay_ms (1);
0002b3 940e 1083 	CALL SUBOPT_0x2
                 ; 0000 005E     if (PIND.3==0 && PIND.4==0) kn1=1;
0002b5 e0a0      	LDI  R26,0
0002b6 9983      	SBIC 0x10,3
0002b7 e0a1      	LDI  R26,1
0002b8 30a0      	CPI  R26,LOW(0x0)
0002b9 f419      	BRNE _0xB
0002ba 940e 1089 	CALL SUBOPT_0x3
0002bc f009      	BREQ _0xC
                 _0xB:
0002bd c002      	RJMP _0xA
                 _0xC:
0002be 9468      	SET
0002bf f820      	BLD  R2,0
                 ; 0000 005F     if (PIND.3==1 && PIND.4==0) kn2=1;
                 _0xA:
0002c0 e0a0      	LDI  R26,0
0002c1 9983      	SBIC 0x10,3
0002c2 e0a1      	LDI  R26,1
0002c3 30a1      	CPI  R26,LOW(0x1)
0002c4 f419      	BRNE _0xE
0002c5 940e 1089 	CALL SUBOPT_0x3
0002c7 f009      	BREQ _0xF
                 _0xE:
0002c8 c002      	RJMP _0xD
                 _0xF:
0002c9 9468      	SET
0002ca f821      	BLD  R2,1
                 ; 0000 0060     DDRD.2=0;
                 _0xD:
0002cb 988a      	CBI  0x11,2
                 ; 0000 0061     DDRD.3=1;
0002cc 9a8b      	SBI  0x11,3
                 ; 0000 0062     PORTD.2=1;
0002cd 9a92      	SBI  0x12,2
                 ; 0000 0063     PORTD.3=0;
0002ce 9893      	CBI  0x12,3
                 ; 0000 0064     delay_ms (1);
0002cf 940e 1083 	CALL SUBOPT_0x2
                 ; 0000 0065     if (PIND.2==1 && PIND.4==0) kn3=1;
0002d1 e0a0      	LDI  R26,0
0002d2 9982      	SBIC 0x10,2
0002d3 e0a1      	LDI  R26,1
0002d4 30a1      	CPI  R26,LOW(0x1)
0002d5 f419      	BRNE _0x19
0002d6 940e 1089 	CALL SUBOPT_0x3
0002d8 f009      	BREQ _0x1A
                 _0x19:
0002d9 c002      	RJMP _0x18
                 _0x1A:
0002da 9468      	SET
0002db f822      	BLD  R2,2
                 ; 0000 0066     if (PIND.2==0 && PIND.4==0) kn4=1;
                 _0x18:
0002dc e0a0      	LDI  R26,0
0002dd 9982      	SBIC 0x10,2
0002de e0a1      	LDI  R26,1
0002df 30a0      	CPI  R26,LOW(0x0)
0002e0 f419      	BRNE _0x1C
0002e1 940e 1089 	CALL SUBOPT_0x3
0002e3 f009      	BREQ _0x1D
                 _0x1C:
0002e4 c002      	RJMP _0x1B
                 _0x1D:
0002e5 9468      	SET
0002e6 f823      	BLD  R2,3
                 ; 0000 0067     DDRD.3=0;
                 _0x1B:
0002e7 988b      	CBI  0x11,3
                 ; 0000 0068     DDRD.4=1;
0002e8 9a8c      	SBI  0x11,4
                 ; 0000 0069     PORTD.3=1;
0002e9 9a93      	SBI  0x12,3
                 ; 0000 006A     PORTD.4=0;
0002ea 9894      	CBI  0x12,4
                 ; 0000 006B     delay_ms (1);
0002eb 940e 1083 	CALL SUBOPT_0x2
                 ; 0000 006C     if (PIND.2==1 && PIND.3==0) kn5=1;
0002ed e0a0      	LDI  R26,0
0002ee 9982      	SBIC 0x10,2
0002ef e0a1      	LDI  R26,1
0002f0 30a1      	CPI  R26,LOW(0x1)
0002f1 f429      	BRNE _0x27
0002f2 e0a0      	LDI  R26,0
0002f3 9983      	SBIC 0x10,3
0002f4 e0a1      	LDI  R26,1
0002f5 30a0      	CPI  R26,LOW(0x0)
0002f6 f009      	BREQ _0x28
                 _0x27:
0002f7 c002      	RJMP _0x26
                 _0x28:
0002f8 9468      	SET
0002f9 f824      	BLD  R2,4
                 ; 0000 006D     if (PIND.2==0 && PIND.3==1) kn6=1;
                 _0x26:
0002fa e0a0      	LDI  R26,0
0002fb 9982      	SBIC 0x10,2
0002fc e0a1      	LDI  R26,1
0002fd 30a0      	CPI  R26,LOW(0x0)
0002fe f429      	BRNE _0x2A
0002ff e0a0      	LDI  R26,0
000300 9983      	SBIC 0x10,3
000301 e0a1      	LDI  R26,1
000302 30a1      	CPI  R26,LOW(0x1)
000303 f009      	BREQ _0x2B
                 _0x2A:
000304 c002      	RJMP _0x29
                 _0x2B:
000305 9468      	SET
000306 f825      	BLD  R2,5
                 ; 0000 006E     DDRD.4=0;
                 _0x29:
000307 988c      	CBI  0x11,4
                 ; 0000 006F     PORTD.4=1;
000308 9a94      	SBI  0x12,4
                 ; 0000 0070     }
000309 9508      	RET
                 ;
                 ;void lcd_disp(void)
                 ; 0000 0073     {
                 _lcd_disp:
                 ; 0000 0074     if (menu==1)
00030a 940e 108e 	CALL SUBOPT_0x4
00030c f011      	BREQ PC+3
00030d 940c 037f 	JMP _0x30
                 ; 0000 0075         {
                 ; 0000 0076         light=1;
00030f 940e 1093 	CALL SUBOPT_0x5
                 ; 0000 0077 
                 ; 0000 0078         lcd_gotoxy (0,0);
                 ; 0000 0079         sprintf (string_LCD_1, "%d.%dV V=%d B=%d   ", batt_celoe, batt_drob, vol, bar);
                +
000311 e6e6     +LDI R30 , LOW ( 2 * _0x0 + 0 )
000312 e0f0     +LDI R31 , HIGH ( 2 * _0x0 + 0 )
                 	__POINTW1FN _0x0,0
000313 93fa      	ST   -Y,R31
000314 93ea      	ST   -Y,R30
000315 91e0 02b4 	LDS  R30,_batt_celoe
000317 91f0 02b5 	LDS  R31,_batt_celoe+1
000319 940e 109e 	CALL SUBOPT_0x6
00031b 91e0 02b6 	LDS  R30,_batt_drob
00031d 91f0 02b7 	LDS  R31,_batt_drob+1
00031f 940e 109e 	CALL SUBOPT_0x6
000321 940e 10a3 	CALL SUBOPT_0x7
000323 940e 10aa 	CALL SUBOPT_0x8
000325 e180      	LDI  R24,16
000326 940e 0e63 	CALL _sprintf
000328 9664      	ADIW R28,20
                 ; 0000 007A         lcd_puts (string_LCD_1);
000329 940e 10b1 	CALL SUBOPT_0x9
                 ; 0000 007B 
                 ; 0000 007C         lcd_gotoxy (0,1);
                 ; 0000 007D         sprintf (string_LCD_2, "%x %x =Z", X, Y);
                +
00032b e7ea     +LDI R30 , LOW ( 2 * _0x0 + 20 )
00032c e0f0     +LDI R31 , HIGH ( 2 * _0x0 + 20 )
                 	__POINTW1FN _0x0,20
00032d 93fa      	ST   -Y,R31
00032e 93ea      	ST   -Y,R30
00032f 940e 10c2 	CALL SUBOPT_0xA
000331 940e 10c9 	CALL SUBOPT_0xB
000333 940e 10d0 	CALL SUBOPT_0xC
                 ; 0000 007E         lcd_puts (string_LCD_2);
000335 940e 10d5 	CALL SUBOPT_0xD
000337 940e 0c25 	CALL _lcd_puts
                 ; 0000 007F 
                 ; 0000 0080         lcd_gotoxy (8,1);
000339 e0e8      	LDI  R30,LOW(8)
00033a 940e 10da 	CALL SUBOPT_0xE
                 ; 0000 0081         if (mod_gnd == 1)   sprintf (string_LCD_2, "+G");
00033c e0a0      	LDI  R26,0
00033d fc27      	SBRC R2,7
00033e e0a1      	LDI  R26,1
00033f 30a1      	CPI  R26,LOW(0x1)
000340 f429      	BRNE _0x33
000341 940e 10d5 	CALL SUBOPT_0xD
                +
000343 e8e3     +LDI R30 , LOW ( 2 * _0x0 + 29 )
000344 e0f0     +LDI R31 , HIGH ( 2 * _0x0 + 29 )
                 	__POINTW1FN _0x0,29
000345 c004      	RJMP _0x11D
                 ; 0000 0082         else                    sprintf (string_LCD_2, "  ");
                 _0x33:
000346 940e 10d5 	CALL SUBOPT_0xD
                +
000348 e7e7     +LDI R30 , LOW ( 2 * _0x0 + 17 )
000349 e0f0     +LDI R31 , HIGH ( 2 * _0x0 + 17 )
                 	__POINTW1FN _0x0,17
                 _0x11D:
00034a 93fa      	ST   -Y,R31
00034b 93ea      	ST   -Y,R30
00034c 940e 10df 	CALL SUBOPT_0xF
                 ; 0000 0083         lcd_puts (string_LCD_2);
00034e 940e 10d5 	CALL SUBOPT_0xD
000350 940e 0c25 	CALL _lcd_puts
                 ; 0000 0084 
                 ; 0000 0085         lcd_gotoxy (10,1);
000352 e0ea      	LDI  R30,LOW(10)
000353 940e 10da 	CALL SUBOPT_0xE
                 ; 0000 0086         if (mod_rock == 1)   sprintf (string_LCD_2, "+R");
000355 940e 10e4 	CALL SUBOPT_0x10
000357 f429      	BRNE _0x35
000358 940e 10d5 	CALL SUBOPT_0xD
                +
00035a e8e6     +LDI R30 , LOW ( 2 * _0x0 + 32 )
00035b e0f0     +LDI R31 , HIGH ( 2 * _0x0 + 32 )
                 	__POINTW1FN _0x0,32
00035c c004      	RJMP _0x11E
                 ; 0000 0087         else                    sprintf (string_LCD_2, "  ");
                 _0x35:
00035d 940e 10d5 	CALL SUBOPT_0xD
                +
00035f e7e7     +LDI R30 , LOW ( 2 * _0x0 + 17 )
000360 e0f0     +LDI R31 , HIGH ( 2 * _0x0 + 17 )
                 	__POINTW1FN _0x0,17
                 _0x11E:
000361 93fa      	ST   -Y,R31
000362 93ea      	ST   -Y,R30
000363 940e 10df 	CALL SUBOPT_0xF
                 ; 0000 0088         lcd_puts (string_LCD_2);
000365 940e 10d5 	CALL SUBOPT_0xD
000367 940e 0c25 	CALL _lcd_puts
                 ; 0000 0089 
                 ; 0000 008A         lcd_gotoxy (12,1);
000369 e0ec      	LDI  R30,LOW(12)
00036a 940e 10da 	CALL SUBOPT_0xE
                 ; 0000 008B         if (mod_all_met == 1)   sprintf (string_LCD_2, "+All");
00036c e0a0      	LDI  R26,0
00036d fc31      	SBRC R3,1
00036e e0a1      	LDI  R26,1
00036f 30a1      	CPI  R26,LOW(0x1)
000370 f429      	BRNE _0x37
000371 940e 10d5 	CALL SUBOPT_0xD
                +
000373 e8e9     +LDI R30 , LOW ( 2 * _0x0 + 35 )
000374 e0f0     +LDI R31 , HIGH ( 2 * _0x0 + 35 )
                 	__POINTW1FN _0x0,35
000375 c004      	RJMP _0x11F
                 ; 0000 008C         else                    sprintf (string_LCD_2, "-Fe ");
                 _0x37:
000376 940e 10d5 	CALL SUBOPT_0xD
                +
000378 e8ee     +LDI R30 , LOW ( 2 * _0x0 + 40 )
000379 e0f0     +LDI R31 , HIGH ( 2 * _0x0 + 40 )
                 	__POINTW1FN _0x0,40
                 _0x11F:
00037a 93fa      	ST   -Y,R31
00037b 93ea      	ST   -Y,R30
00037c 940e 10df 	CALL SUBOPT_0xF
                 ; 0000 008D         lcd_puts (string_LCD_2);
00037e c23d      	RJMP _0x20C0007
                 ; 0000 008E 
                 ; 0000 008F         return;
                 ; 0000 0090         };
                 _0x30:
                 ; 0000 0091 
                 ; 0000 0092     if (kn2==1)
00037f 940e 10e9 	CALL SUBOPT_0x11
000381 f479      	BRNE _0x39
                 ; 0000 0093         {
                 ; 0000 0094         light=1;
000382 9a96      	SBI  0x12,6
                 ; 0000 0095         lcd_gotoxy (0,1);
000383 e0e0      	LDI  R30,LOW(0)
000384 940e 10da 	CALL SUBOPT_0xE
                 ; 0000 0096         sprintf (string_LCD_2, "Volume %d        ", vol);
000386 940e 10d5 	CALL SUBOPT_0xD
                +
000388 e9e3     +LDI R30 , LOW ( 2 * _0x0 + 45 )
000389 e0f0     +LDI R31 , HIGH ( 2 * _0x0 + 45 )
                 	__POINTW1FN _0x0,45
00038a 93fa      	ST   -Y,R31
00038b 93ea      	ST   -Y,R30
00038c 940e 10a3 	CALL SUBOPT_0x7
00038e 940e 10ee 	CALL SUBOPT_0x12
                 ; 0000 0097         lcd_puts (string_LCD_2);
000390 c22b      	RJMP _0x20C0007
                 ; 0000 0098         return;
                 ; 0000 0099         };
                 _0x39:
                 ; 0000 009A 
                 ; 0000 009B     if (kn3==1)
000391 940e 10f3 	CALL SUBOPT_0x13
000393 f479      	BRNE _0x3C
                 ; 0000 009C         {
                 ; 0000 009D         light=1;
000394 9a96      	SBI  0x12,6
                 ; 0000 009E         lcd_gotoxy (0,1);
000395 e0e0      	LDI  R30,LOW(0)
000396 940e 10da 	CALL SUBOPT_0xE
                 ; 0000 009F         sprintf (string_LCD_2, "Barrier %d       ", bar);
000398 940e 10d5 	CALL SUBOPT_0xD
                +
00039a eae5     +LDI R30 , LOW ( 2 * _0x0 + 63 )
00039b e0f0     +LDI R31 , HIGH ( 2 * _0x0 + 63 )
                 	__POINTW1FN _0x0,63
00039c 93fa      	ST   -Y,R31
00039d 93ea      	ST   -Y,R30
00039e 940e 10aa 	CALL SUBOPT_0x8
0003a0 940e 10ee 	CALL SUBOPT_0x12
                 ; 0000 00A0         lcd_puts (string_LCD_2);
0003a2 c219      	RJMP _0x20C0007
                 ; 0000 00A1         return;
                 ; 0000 00A2         };
                 _0x3C:
                 ; 0000 00A3 
                 ; 0000 00A4     if (kn4==1)
0003a3 e0a0      	LDI  R26,0
0003a4 fc23      	SBRC R2,3
0003a5 e0a1      	LDI  R26,1
0003a6 30a1      	CPI  R26,LOW(0x1)
0003a7 f4a9      	BRNE _0x3F
                 ; 0000 00A5         {
                 ; 0000 00A6         light=1;
0003a8 940e 1093 	CALL SUBOPT_0x5
                 ; 0000 00A7         lcd_gotoxy (0,0);
                 ; 0000 00A8         sprintf (string_LCD_1, ">>>>> Rock <<<<<", bar);
                +
0003aa ebe7     +LDI R30 , LOW ( 2 * _0x0 + 81 )
0003ab e0f0     +LDI R31 , HIGH ( 2 * _0x0 + 81 )
                 	__POINTW1FN _0x0,81
0003ac 93fa      	ST   -Y,R31
0003ad 93ea      	ST   -Y,R30
0003ae 940e 10aa 	CALL SUBOPT_0x8
0003b0 940e 10ee 	CALL SUBOPT_0x12
                 ; 0000 00A9         lcd_puts (string_LCD_1);
0003b2 940e 10b1 	CALL SUBOPT_0x9
                 ; 0000 00AA         lcd_gotoxy (0,1);
                 ; 0000 00AB         sprintf (string_LCD_2, "%f %f", rock_ampl, rock_faza);
                +
0003b4 ece8     +LDI R30 , LOW ( 2 * _0x0 + 98 )
0003b5 e0f0     +LDI R31 , HIGH ( 2 * _0x0 + 98 )
                 	__POINTW1FN _0x0,98
0003b6 940e 10f8 	CALL SUBOPT_0x14
0003b8 940e 1103 	CALL SUBOPT_0x15
0003ba 940e 10d0 	CALL SUBOPT_0xC
                 ; 0000 00AC         lcd_puts (string_LCD_2);
0003bc c1ff      	RJMP _0x20C0007
                 ; 0000 00AD         return;
                 ; 0000 00AE         };
                 _0x3F:
                 ; 0000 00AF 
                 ; 0000 00B0     if (kn5==1)
0003bd e0a0      	LDI  R26,0
0003be fc24      	SBRC R2,4
0003bf e0a1      	LDI  R26,1
0003c0 30a1      	CPI  R26,LOW(0x1)
0003c1 f489      	BRNE _0x42
                 ; 0000 00B1         {
                 ; 0000 00B2         light=1;
0003c2 940e 1093 	CALL SUBOPT_0x5
                 ; 0000 00B3         lcd_gotoxy (0,0);
                 ; 0000 00B4         sprintf (string_LCD_1, ">>>> Ground <<<<");
                +
0003c4 ecee     +LDI R30 , LOW ( 2 * _0x0 + 104 )
0003c5 e0f0     +LDI R31 , HIGH ( 2 * _0x0 + 104 )
                 	__POINTW1FN _0x0,104
0003c6 940e 1110 	CALL SUBOPT_0x16
                 ; 0000 00B5         lcd_puts (string_LCD_1);
0003c8 940e 10b1 	CALL SUBOPT_0x9
                 ; 0000 00B6         lcd_gotoxy (0,1);
                 ; 0000 00B7         sprintf (string_LCD_2, "%f %f ", gnd_ampl, gnd_faza);
                +
0003ca edef     +LDI R30 , LOW ( 2 * _0x0 + 121 )
0003cb e0f0     +LDI R31 , HIGH ( 2 * _0x0 + 121 )
                 	__POINTW1FN _0x0,121
0003cc 940e 1113 	CALL SUBOPT_0x17
0003ce 940e 111e 	CALL SUBOPT_0x18
0003d0 940e 10d0 	CALL SUBOPT_0xC
                 ; 0000 00B8         lcd_puts (string_LCD_2);
0003d2 c1e9      	RJMP _0x20C0007
                 ; 0000 00B9         return;
                 ; 0000 00BA         };
                 _0x42:
                 ; 0000 00BB     if (kn6==1)
0003d3 e0a0      	LDI  R26,0
0003d4 fc25      	SBRC R2,5
0003d5 e0a1      	LDI  R26,1
0003d6 30a1      	CPI  R26,LOW(0x1)
0003d7 f4d9      	BRNE _0x45
                 ; 0000 00BC         {
                 ; 0000 00BD         light=1;
0003d8 940e 1093 	CALL SUBOPT_0x5
                 ; 0000 00BE         lcd_gotoxy (0,0);
                 ; 0000 00BF         sprintf (string_LCD_1, ">>>>> Zero <<<<<");
                +
0003da eee6     +LDI R30 , LOW ( 2 * _0x0 + 128 )
0003db e0f0     +LDI R31 , HIGH ( 2 * _0x0 + 128 )
                 	__POINTW1FN _0x0,128
0003dc 940e 1110 	CALL SUBOPT_0x16
                 ; 0000 00C0         lcd_puts (string_LCD_1);
0003de 940e 10b1 	CALL SUBOPT_0x9
                 ; 0000 00C1         lcd_gotoxy (0,1);
                 ; 0000 00C2         sprintf (string_LCD_2, "%x %x %x %x ", zero_Y, zero_X, Y, X);
                +
0003e0 efe7     +LDI R30 , LOW ( 2 * _0x0 + 145 )
0003e1 e0f0     +LDI R31 , HIGH ( 2 * _0x0 + 145 )
                 	__POINTW1FN _0x0,145
0003e2 93fa      	ST   -Y,R31
0003e3 93ea      	ST   -Y,R30
0003e4 01f2      	MOVW R30,R4
0003e5 940e 109e 	CALL SUBOPT_0x6
0003e7 01f3      	MOVW R30,R6
0003e8 940e 109e 	CALL SUBOPT_0x6
0003ea 940e 10c9 	CALL SUBOPT_0xB
0003ec 940e 10c2 	CALL SUBOPT_0xA
0003ee e180      	LDI  R24,16
0003ef 940e 0e63 	CALL _sprintf
0003f1 9664      	ADIW R28,20
                 ; 0000 00C3         lcd_puts (string_LCD_2);
0003f2 c1c9      	RJMP _0x20C0007
                 ; 0000 00C4         return;
                 ; 0000 00C5         };
                 _0x45:
                 ; 0000 00C6     lcd_gotoxy (0,0);
0003f3 940e 112b 	CALL SUBOPT_0x19
                 ; 0000 00C7     if (viz_ampl==0)    sprintf (string_LCD_1, "                ");
0003f5 20dd      	TST  R13
0003f6 f431      	BRNE _0x48
0003f7 940e 1130 	CALL SUBOPT_0x1A
                +
0003f9 e0e4     +LDI R30 , LOW ( 2 * _0x0 + 158 )
0003fa e0f1     +LDI R31 , HIGH ( 2 * _0x0 + 158 )
                 	__POINTW1FN _0x0,158
0003fb 940e 1110 	CALL SUBOPT_0x16
                 ; 0000 00C8     if (viz_ampl==1)    sprintf (string_LCD_1, "_               ");
                 _0x48:
0003fd e0e1      	LDI  R30,LOW(1)
0003fe 15ed      	CP   R30,R13
0003ff f431      	BRNE _0x49
000400 940e 1130 	CALL SUBOPT_0x1A
                +
000402 e1e5     +LDI R30 , LOW ( 2 * _0x0 + 175 )
000403 e0f1     +LDI R31 , HIGH ( 2 * _0x0 + 175 )
                 	__POINTW1FN _0x0,175
000404 940e 1110 	CALL SUBOPT_0x16
                 ; 0000 00C9     if (viz_ampl==2)    sprintf (string_LCD_1, "               ");
                 _0x49:
000406 e0e2      	LDI  R30,LOW(2)
000407 15ed      	CP   R30,R13
000408 f431      	BRNE _0x4A
000409 940e 1130 	CALL SUBOPT_0x1A
                +
00040b e2e6     +LDI R30 , LOW ( 2 * _0x0 + 192 )
00040c e0f1     +LDI R31 , HIGH ( 2 * _0x0 + 192 )
                 	__POINTW1FN _0x0,192
00040d 940e 1110 	CALL SUBOPT_0x16
                 ; 0000 00CA     if (viz_ampl==3)    sprintf (string_LCD_1, "_              ");
                 _0x4A:
00040f e0e3      	LDI  R30,LOW(3)
000410 15ed      	CP   R30,R13
000411 f431      	BRNE _0x4B
000412 940e 1130 	CALL SUBOPT_0x1A
                +
000414 e3e7     +LDI R30 , LOW ( 2 * _0x0 + 209 )
000415 e0f1     +LDI R31 , HIGH ( 2 * _0x0 + 209 )
                 	__POINTW1FN _0x0,209
000416 940e 1110 	CALL SUBOPT_0x16
                 ; 0000 00CB     if (viz_ampl==4)    sprintf (string_LCD_1, "              ");
                 _0x4B:
000418 e0e4      	LDI  R30,LOW(4)
000419 15ed      	CP   R30,R13
00041a f431      	BRNE _0x4C
00041b 940e 1130 	CALL SUBOPT_0x1A
                +
00041d e4e8     +LDI R30 , LOW ( 2 * _0x0 + 226 )
00041e e0f1     +LDI R31 , HIGH ( 2 * _0x0 + 226 )
                 	__POINTW1FN _0x0,226
00041f 940e 1110 	CALL SUBOPT_0x16
                 ; 0000 00CC     if (viz_ampl==5)    sprintf (string_LCD_1, "_             ");
                 _0x4C:
000421 e0e5      	LDI  R30,LOW(5)
000422 15ed      	CP   R30,R13
000423 f431      	BRNE _0x4D
000424 940e 1130 	CALL SUBOPT_0x1A
                +
000426 e5e9     +LDI R30 , LOW ( 2 * _0x0 + 243 )
000427 e0f1     +LDI R31 , HIGH ( 2 * _0x0 + 243 )
                 	__POINTW1FN _0x0,243
000428 940e 1110 	CALL SUBOPT_0x16
                 ; 0000 00CD     if (viz_ampl==6)    sprintf (string_LCD_1, "             ");
                 _0x4D:
00042a e0e6      	LDI  R30,LOW(6)
00042b 15ed      	CP   R30,R13
00042c f431      	BRNE _0x4E
00042d 940e 1130 	CALL SUBOPT_0x1A
                +
00042f e6ea     +LDI R30 , LOW ( 2 * _0x0 + 260 )
000430 e0f1     +LDI R31 , HIGH ( 2 * _0x0 + 260 )
                 	__POINTW1FN _0x0,260
000431 940e 1110 	CALL SUBOPT_0x16
                 ; 0000 00CE     if (viz_ampl==7)    sprintf (string_LCD_1, "_            ");
                 _0x4E:
000433 e0e7      	LDI  R30,LOW(7)
000434 15ed      	CP   R30,R13
000435 f431      	BRNE _0x4F
000436 940e 1130 	CALL SUBOPT_0x1A
                +
000438 e7eb     +LDI R30 , LOW ( 2 * _0x0 + 277 )
000439 e0f1     +LDI R31 , HIGH ( 2 * _0x0 + 277 )
                 	__POINTW1FN _0x0,277
00043a 940e 1110 	CALL SUBOPT_0x16
                 ; 0000 00CF     if (viz_ampl==8)    sprintf (string_LCD_1, "            ");
                 _0x4F:
00043c e0e8      	LDI  R30,LOW(8)
00043d 15ed      	CP   R30,R13
00043e f431      	BRNE _0x50
00043f 940e 1130 	CALL SUBOPT_0x1A
                +
000441 e8ec     +LDI R30 , LOW ( 2 * _0x0 + 294 )
000442 e0f1     +LDI R31 , HIGH ( 2 * _0x0 + 294 )
                 	__POINTW1FN _0x0,294
000443 940e 1110 	CALL SUBOPT_0x16
                 ; 0000 00D0     if (viz_ampl==9)    sprintf (string_LCD_1, "_           ");
                 _0x50:
000445 e0e9      	LDI  R30,LOW(9)
000446 15ed      	CP   R30,R13
000447 f431      	BRNE _0x51
000448 940e 1130 	CALL SUBOPT_0x1A
                +
00044a e9ed     +LDI R30 , LOW ( 2 * _0x0 + 311 )
00044b e0f1     +LDI R31 , HIGH ( 2 * _0x0 + 311 )
                 	__POINTW1FN _0x0,311
00044c 940e 1110 	CALL SUBOPT_0x16
                 ; 0000 00D1     if (viz_ampl==10)   sprintf (string_LCD_1, "           ");
                 _0x51:
00044e e0ea      	LDI  R30,LOW(10)
00044f 15ed      	CP   R30,R13
000450 f431      	BRNE _0x52
000451 940e 1130 	CALL SUBOPT_0x1A
                +
000453 eaee     +LDI R30 , LOW ( 2 * _0x0 + 328 )
000454 e0f1     +LDI R31 , HIGH ( 2 * _0x0 + 328 )
                 	__POINTW1FN _0x0,328
000455 940e 1110 	CALL SUBOPT_0x16
                 ; 0000 00D2     if (viz_ampl==11)   sprintf (string_LCD_1, "_          ");
                 _0x52:
000457 e0eb      	LDI  R30,LOW(11)
000458 15ed      	CP   R30,R13
000459 f431      	BRNE _0x53
00045a 940e 1130 	CALL SUBOPT_0x1A
                +
00045c ebef     +LDI R30 , LOW ( 2 * _0x0 + 345 )
00045d e0f1     +LDI R31 , HIGH ( 2 * _0x0 + 345 )
                 	__POINTW1FN _0x0,345
00045e 940e 1110 	CALL SUBOPT_0x16
                 ; 0000 00D3     if (viz_ampl==12)   sprintf (string_LCD_1, "          ");
                 _0x53:
000460 e0ec      	LDI  R30,LOW(12)
000461 15ed      	CP   R30,R13
000462 f431      	BRNE _0x54
000463 940e 1130 	CALL SUBOPT_0x1A
                +
000465 ede0     +LDI R30 , LOW ( 2 * _0x0 + 362 )
000466 e0f1     +LDI R31 , HIGH ( 2 * _0x0 + 362 )
                 	__POINTW1FN _0x0,362
000467 940e 1110 	CALL SUBOPT_0x16
                 ; 0000 00D4     if (viz_ampl==13)   sprintf (string_LCD_1, "_         ");
                 _0x54:
000469 e0ed      	LDI  R30,LOW(13)
00046a 15ed      	CP   R30,R13
00046b f431      	BRNE _0x55
00046c 940e 1130 	CALL SUBOPT_0x1A
                +
00046e eee1     +LDI R30 , LOW ( 2 * _0x0 + 379 )
00046f e0f1     +LDI R31 , HIGH ( 2 * _0x0 + 379 )
                 	__POINTW1FN _0x0,379
000470 940e 1110 	CALL SUBOPT_0x16
                 ; 0000 00D5     if (viz_ampl==14)   sprintf (string_LCD_1, "         ");
                 _0x55:
000472 e0ee      	LDI  R30,LOW(14)
000473 15ed      	CP   R30,R13
000474 f431      	BRNE _0x56
000475 940e 1130 	CALL SUBOPT_0x1A
                +
000477 efe2     +LDI R30 , LOW ( 2 * _0x0 + 396 )
000478 e0f1     +LDI R31 , HIGH ( 2 * _0x0 + 396 )
                 	__POINTW1FN _0x0,396
000479 940e 1110 	CALL SUBOPT_0x16
                 ; 0000 00D6     if (viz_ampl==15)   sprintf (string_LCD_1, "_        ");
                 _0x56:
00047b e0ef      	LDI  R30,LOW(15)
00047c 15ed      	CP   R30,R13
00047d f431      	BRNE _0x57
00047e 940e 1130 	CALL SUBOPT_0x1A
                +
000480 e0e3     +LDI R30 , LOW ( 2 * _0x0 + 413 )
000481 e0f2     +LDI R31 , HIGH ( 2 * _0x0 + 413 )
                 	__POINTW1FN _0x0,413
000482 940e 1110 	CALL SUBOPT_0x16
                 ; 0000 00D7     if (viz_ampl==16)   sprintf (string_LCD_1, "        ");
                 _0x57:
000484 e1e0      	LDI  R30,LOW(16)
000485 15ed      	CP   R30,R13
000486 f431      	BRNE _0x58
000487 940e 1130 	CALL SUBOPT_0x1A
                +
000489 e1e4     +LDI R30 , LOW ( 2 * _0x0 + 430 )
00048a e0f2     +LDI R31 , HIGH ( 2 * _0x0 + 430 )
                 	__POINTW1FN _0x0,430
00048b 940e 1110 	CALL SUBOPT_0x16
                 ; 0000 00D8     if (viz_ampl==17)   sprintf (string_LCD_1, "_       ");
                 _0x58:
00048d e1e1      	LDI  R30,LOW(17)
00048e 15ed      	CP   R30,R13
00048f f431      	BRNE _0x59
000490 940e 1130 	CALL SUBOPT_0x1A
                +
000492 e2e5     +LDI R30 , LOW ( 2 * _0x0 + 447 )
000493 e0f2     +LDI R31 , HIGH ( 2 * _0x0 + 447 )
                 	__POINTW1FN _0x0,447
000494 940e 1110 	CALL SUBOPT_0x16
                 ; 0000 00D9     if (viz_ampl==18)   sprintf (string_LCD_1, "       ");
                 _0x59:
000496 e1e2      	LDI  R30,LOW(18)
000497 15ed      	CP   R30,R13
000498 f431      	BRNE _0x5A
000499 940e 1130 	CALL SUBOPT_0x1A
                +
00049b e3e6     +LDI R30 , LOW ( 2 * _0x0 + 464 )
00049c e0f2     +LDI R31 , HIGH ( 2 * _0x0 + 464 )
                 	__POINTW1FN _0x0,464
00049d 940e 1110 	CALL SUBOPT_0x16
                 ; 0000 00DA     if (viz_ampl==19)   sprintf (string_LCD_1, "_      ");
                 _0x5A:
00049f e1e3      	LDI  R30,LOW(19)
0004a0 15ed      	CP   R30,R13
0004a1 f431      	BRNE _0x5B
0004a2 940e 1130 	CALL SUBOPT_0x1A
                +
0004a4 e4e7     +LDI R30 , LOW ( 2 * _0x0 + 481 )
0004a5 e0f2     +LDI R31 , HIGH ( 2 * _0x0 + 481 )
                 	__POINTW1FN _0x0,481
0004a6 940e 1110 	CALL SUBOPT_0x16
                 ; 0000 00DB     if (viz_ampl==20)   sprintf (string_LCD_1, "      ");
                 _0x5B:
0004a8 e1e4      	LDI  R30,LOW(20)
0004a9 15ed      	CP   R30,R13
0004aa f431      	BRNE _0x5C
0004ab 940e 1130 	CALL SUBOPT_0x1A
                +
0004ad e5e8     +LDI R30 , LOW ( 2 * _0x0 + 498 )
0004ae e0f2     +LDI R31 , HIGH ( 2 * _0x0 + 498 )
                 	__POINTW1FN _0x0,498
0004af 940e 1110 	CALL SUBOPT_0x16
                 ; 0000 00DC     if (viz_ampl==21)   sprintf (string_LCD_1, "_     ");
                 _0x5C:
0004b1 e1e5      	LDI  R30,LOW(21)
0004b2 15ed      	CP   R30,R13
0004b3 f431      	BRNE _0x5D
0004b4 940e 1130 	CALL SUBOPT_0x1A
                +
0004b6 e6e9     +LDI R30 , LOW ( 2 * _0x0 + 515 )
0004b7 e0f2     +LDI R31 , HIGH ( 2 * _0x0 + 515 )
                 	__POINTW1FN _0x0,515
0004b8 940e 1110 	CALL SUBOPT_0x16
                 ; 0000 00DD     if (viz_ampl==22)   sprintf (string_LCD_1, "     ");
                 _0x5D:
0004ba e1e6      	LDI  R30,LOW(22)
0004bb 15ed      	CP   R30,R13
0004bc f431      	BRNE _0x5E
0004bd 940e 1130 	CALL SUBOPT_0x1A
                +
0004bf e7ea     +LDI R30 , LOW ( 2 * _0x0 + 532 )
0004c0 e0f2     +LDI R31 , HIGH ( 2 * _0x0 + 532 )
                 	__POINTW1FN _0x0,532
0004c1 940e 1110 	CALL SUBOPT_0x16
                 ; 0000 00DE     if (viz_ampl==23)   sprintf (string_LCD_1, "_    ");
                 _0x5E:
0004c3 e1e7      	LDI  R30,LOW(23)
0004c4 15ed      	CP   R30,R13
0004c5 f431      	BRNE _0x5F
0004c6 940e 1130 	CALL SUBOPT_0x1A
                +
0004c8 e8eb     +LDI R30 , LOW ( 2 * _0x0 + 549 )
0004c9 e0f2     +LDI R31 , HIGH ( 2 * _0x0 + 549 )
                 	__POINTW1FN _0x0,549
0004ca 940e 1110 	CALL SUBOPT_0x16
                 ; 0000 00DF     if (viz_ampl==24)   sprintf (string_LCD_1, "    ");
                 _0x5F:
0004cc e1e8      	LDI  R30,LOW(24)
0004cd 15ed      	CP   R30,R13
0004ce f431      	BRNE _0x60
0004cf 940e 1130 	CALL SUBOPT_0x1A
                +
0004d1 e9ec     +LDI R30 , LOW ( 2 * _0x0 + 566 )
0004d2 e0f2     +LDI R31 , HIGH ( 2 * _0x0 + 566 )
                 	__POINTW1FN _0x0,566
0004d3 940e 1110 	CALL SUBOPT_0x16
                 ; 0000 00E0     if (viz_ampl==25)   sprintf (string_LCD_1, "_   ");
                 _0x60:
0004d5 e1e9      	LDI  R30,LOW(25)
0004d6 15ed      	CP   R30,R13
0004d7 f431      	BRNE _0x61
0004d8 940e 1130 	CALL SUBOPT_0x1A
                +
0004da eaed     +LDI R30 , LOW ( 2 * _0x0 + 583 )
0004db e0f2     +LDI R31 , HIGH ( 2 * _0x0 + 583 )
                 	__POINTW1FN _0x0,583
0004dc 940e 1110 	CALL SUBOPT_0x16
                 ; 0000 00E1     if (viz_ampl==26)   sprintf (string_LCD_1, "   ");
                 _0x61:
0004de e1ea      	LDI  R30,LOW(26)
0004df 15ed      	CP   R30,R13
0004e0 f431      	BRNE _0x62
0004e1 940e 1130 	CALL SUBOPT_0x1A
                +
0004e3 ebee     +LDI R30 , LOW ( 2 * _0x0 + 600 )
0004e4 e0f2     +LDI R31 , HIGH ( 2 * _0x0 + 600 )
                 	__POINTW1FN _0x0,600
0004e5 940e 1110 	CALL SUBOPT_0x16
                 ; 0000 00E2     if (viz_ampl==27)   sprintf (string_LCD_1, "_  ");
                 _0x62:
0004e7 e1eb      	LDI  R30,LOW(27)
0004e8 15ed      	CP   R30,R13
0004e9 f431      	BRNE _0x63
0004ea 940e 1130 	CALL SUBOPT_0x1A
                +
0004ec ecef     +LDI R30 , LOW ( 2 * _0x0 + 617 )
0004ed e0f2     +LDI R31 , HIGH ( 2 * _0x0 + 617 )
                 	__POINTW1FN _0x0,617
0004ee 940e 1110 	CALL SUBOPT_0x16
                 ; 0000 00E3     if (viz_ampl==28)   sprintf (string_LCD_1, "  ");
                 _0x63:
0004f0 e1ec      	LDI  R30,LOW(28)
0004f1 15ed      	CP   R30,R13
0004f2 f431      	BRNE _0x64
0004f3 940e 1130 	CALL SUBOPT_0x1A
                +
0004f5 eee0     +LDI R30 , LOW ( 2 * _0x0 + 634 )
0004f6 e0f2     +LDI R31 , HIGH ( 2 * _0x0 + 634 )
                 	__POINTW1FN _0x0,634
0004f7 940e 1110 	CALL SUBOPT_0x16
                 ; 0000 00E4     if (viz_ampl==29)   sprintf (string_LCD_1, "_ ");
                 _0x64:
0004f9 e1ed      	LDI  R30,LOW(29)
0004fa 15ed      	CP   R30,R13
0004fb f431      	BRNE _0x65
0004fc 940e 1130 	CALL SUBOPT_0x1A
                +
0004fe efe1     +LDI R30 , LOW ( 2 * _0x0 + 651 )
0004ff e0f2     +LDI R31 , HIGH ( 2 * _0x0 + 651 )
                 	__POINTW1FN _0x0,651
000500 940e 1110 	CALL SUBOPT_0x16
                 ; 0000 00E5     if (viz_ampl==30)   sprintf (string_LCD_1, " ");
                 _0x65:
000502 e1ee      	LDI  R30,LOW(30)
000503 15ed      	CP   R30,R13
000504 f431      	BRNE _0x66
000505 940e 1130 	CALL SUBOPT_0x1A
                +
000507 e0e2     +LDI R30 , LOW ( 2 * _0x0 + 668 )
000508 e0f3     +LDI R31 , HIGH ( 2 * _0x0 + 668 )
                 	__POINTW1FN _0x0,668
000509 940e 1110 	CALL SUBOPT_0x16
                 ; 0000 00E6     if (viz_ampl==31)   sprintf (string_LCD_1, "_");
                 _0x66:
00050b e1ef      	LDI  R30,LOW(31)
00050c 15ed      	CP   R30,R13
00050d f431      	BRNE _0x67
00050e 940e 1130 	CALL SUBOPT_0x1A
                +
000510 e1e3     +LDI R30 , LOW ( 2 * _0x0 + 685 )
000511 e0f3     +LDI R31 , HIGH ( 2 * _0x0 + 685 )
                 	__POINTW1FN _0x0,685
000512 940e 1110 	CALL SUBOPT_0x16
                 ; 0000 00E7     if (viz_ampl==32)   sprintf (string_LCD_1, "");
                 _0x67:
000514 e2e0      	LDI  R30,LOW(32)
000515 15ed      	CP   R30,R13
000516 f431      	BRNE _0x68
000517 940e 1130 	CALL SUBOPT_0x1A
                +
000519 e2e4     +LDI R30 , LOW ( 2 * _0x0 + 702 )
00051a e0f3     +LDI R31 , HIGH ( 2 * _0x0 + 702 )
                 	__POINTW1FN _0x0,702
00051b 940e 1110 	CALL SUBOPT_0x16
                 ; 0000 00E8     lcd_puts (string_LCD_1);
                 _0x68:
00051d 940e 1130 	CALL SUBOPT_0x1A
00051f 940e 0c25 	CALL _lcd_puts
                 ; 0000 00E9     lcd_gotoxy (0,1);
000521 e0e0      	LDI  R30,LOW(0)
000522 940e 10da 	CALL SUBOPT_0xE
                 ; 0000 00EA     if (viz_faza==0)  sprintf (string_LCD_2, "------II------");
000524 20cc      	TST  R12
000525 f431      	BRNE _0x69
000526 940e 10d5 	CALL SUBOPT_0xD
                +
000528 e3e5     +LDI R30 , LOW ( 2 * _0x0 + 719 )
000529 e0f3     +LDI R31 , HIGH ( 2 * _0x0 + 719 )
                 	__POINTW1FN _0x0,719
00052a 940e 1110 	CALL SUBOPT_0x16
                 ; 0000 00EB     if (viz_faza==1)  sprintf (string_LCD_2, "------#I------");
                 _0x69:
00052c e0e1      	LDI  R30,LOW(1)
00052d 15ec      	CP   R30,R12
00052e f431      	BRNE _0x6A
00052f 940e 10d5 	CALL SUBOPT_0xD
                +
000531 e4e6     +LDI R30 , LOW ( 2 * _0x0 + 736 )
000532 e0f3     +LDI R31 , HIGH ( 2 * _0x0 + 736 )
                 	__POINTW1FN _0x0,736
000533 940e 1110 	CALL SUBOPT_0x16
                 ; 0000 00EC     if (viz_faza==2)  sprintf (string_LCD_2, "-----#II------");
                 _0x6A:
000535 e0e2      	LDI  R30,LOW(2)
000536 15ec      	CP   R30,R12
000537 f431      	BRNE _0x6B
000538 940e 10d5 	CALL SUBOPT_0xD
                +
00053a e5e7     +LDI R30 , LOW ( 2 * _0x0 + 753 )
00053b e0f3     +LDI R31 , HIGH ( 2 * _0x0 + 753 )
                 	__POINTW1FN _0x0,753
00053c 940e 1110 	CALL SUBOPT_0x16
                 ; 0000 00ED     if (viz_faza==3)  sprintf (string_LCD_2, "----#-II------");
                 _0x6B:
00053e e0e3      	LDI  R30,LOW(3)
00053f 15ec      	CP   R30,R12
000540 f431      	BRNE _0x6C
000541 940e 10d5 	CALL SUBOPT_0xD
                +
000543 e6e8     +LDI R30 , LOW ( 2 * _0x0 + 770 )
000544 e0f3     +LDI R31 , HIGH ( 2 * _0x0 + 770 )
                 	__POINTW1FN _0x0,770
000545 940e 1110 	CALL SUBOPT_0x16
                 ; 0000 00EE     if (viz_faza==4)  sprintf (string_LCD_2, "---#--II------");
                 _0x6C:
000547 e0e4      	LDI  R30,LOW(4)
000548 15ec      	CP   R30,R12
000549 f431      	BRNE _0x6D
00054a 940e 10d5 	CALL SUBOPT_0xD
                +
00054c e7e9     +LDI R30 , LOW ( 2 * _0x0 + 787 )
00054d e0f3     +LDI R31 , HIGH ( 2 * _0x0 + 787 )
                 	__POINTW1FN _0x0,787
00054e 940e 1110 	CALL SUBOPT_0x16
                 ; 0000 00EF     if (viz_faza==5)  sprintf (string_LCD_2, "--#---II------");
                 _0x6D:
000550 e0e5      	LDI  R30,LOW(5)
000551 15ec      	CP   R30,R12
000552 f431      	BRNE _0x6E
000553 940e 10d5 	CALL SUBOPT_0xD
                +
000555 e8ea     +LDI R30 , LOW ( 2 * _0x0 + 804 )
000556 e0f3     +LDI R31 , HIGH ( 2 * _0x0 + 804 )
                 	__POINTW1FN _0x0,804
000557 940e 1110 	CALL SUBOPT_0x16
                 ; 0000 00F0     if (viz_faza==6)  sprintf (string_LCD_2, "-#----II------");
                 _0x6E:
000559 e0e6      	LDI  R30,LOW(6)
00055a 15ec      	CP   R30,R12
00055b f431      	BRNE _0x6F
00055c 940e 10d5 	CALL SUBOPT_0xD
                +
00055e e9eb     +LDI R30 , LOW ( 2 * _0x0 + 821 )
00055f e0f3     +LDI R31 , HIGH ( 2 * _0x0 + 821 )
                 	__POINTW1FN _0x0,821
000560 940e 1110 	CALL SUBOPT_0x16
                 ; 0000 00F1     if (viz_faza==7)  sprintf (string_LCD_2, "#-----II------");
                 _0x6F:
000562 e0e7      	LDI  R30,LOW(7)
000563 15ec      	CP   R30,R12
000564 f431      	BRNE _0x70
000565 940e 10d5 	CALL SUBOPT_0xD
                +
000567 eaec     +LDI R30 , LOW ( 2 * _0x0 + 838 )
000568 e0f3     +LDI R31 , HIGH ( 2 * _0x0 + 838 )
                 	__POINTW1FN _0x0,838
000569 940e 1110 	CALL SUBOPT_0x16
                 ; 0000 00F2     if (viz_faza==8)  sprintf (string_LCD_2, ">_<----II------");
                 _0x70:
00056b e0e8      	LDI  R30,LOW(8)
00056c 15ec      	CP   R30,R12
00056d f431      	BRNE _0x71
00056e 940e 10d5 	CALL SUBOPT_0xD
                +
000570 ebed     +LDI R30 , LOW ( 2 * _0x0 + 855 )
000571 e0f3     +LDI R31 , HIGH ( 2 * _0x0 + 855 )
                 	__POINTW1FN _0x0,855
000572 940e 1110 	CALL SUBOPT_0x16
                 ; 0000 00F3     if (viz_faza==9)  sprintf (string_LCD_2, "------I#------");
                 _0x71:
000574 e0e9      	LDI  R30,LOW(9)
000575 15ec      	CP   R30,R12
000576 f431      	BRNE _0x72
000577 940e 10d5 	CALL SUBOPT_0xD
                +
000579 ecee     +LDI R30 , LOW ( 2 * _0x0 + 872 )
00057a e0f3     +LDI R31 , HIGH ( 2 * _0x0 + 872 )
                 	__POINTW1FN _0x0,872
00057b 940e 1110 	CALL SUBOPT_0x16
                 ; 0000 00F4     if (viz_faza==10) sprintf (string_LCD_2, "------II#-----");
                 _0x72:
00057d e0ea      	LDI  R30,LOW(10)
00057e 15ec      	CP   R30,R12
00057f f431      	BRNE _0x73
000580 940e 10d5 	CALL SUBOPT_0xD
                +
000582 edef     +LDI R30 , LOW ( 2 * _0x0 + 889 )
000583 e0f3     +LDI R31 , HIGH ( 2 * _0x0 + 889 )
                 	__POINTW1FN _0x0,889
000584 940e 1110 	CALL SUBOPT_0x16
                 ; 0000 00F5     if (viz_faza==11) sprintf (string_LCD_2, "------II-#----");
                 _0x73:
000586 e0eb      	LDI  R30,LOW(11)
000587 15ec      	CP   R30,R12
000588 f431      	BRNE _0x74
000589 940e 10d5 	CALL SUBOPT_0xD
                +
00058b efe0     +LDI R30 , LOW ( 2 * _0x0 + 906 )
00058c e0f3     +LDI R31 , HIGH ( 2 * _0x0 + 906 )
                 	__POINTW1FN _0x0,906
00058d 940e 1110 	CALL SUBOPT_0x16
                 ; 0000 00F6     if (viz_faza==12) sprintf (string_LCD_2, "------II--#---");
                 _0x74:
00058f e0ec      	LDI  R30,LOW(12)
000590 15ec      	CP   R30,R12
000591 f431      	BRNE _0x75
000592 940e 10d5 	CALL SUBOPT_0xD
                +
000594 e0e1     +LDI R30 , LOW ( 2 * _0x0 + 923 )
000595 e0f4     +LDI R31 , HIGH ( 2 * _0x0 + 923 )
                 	__POINTW1FN _0x0,923
000596 940e 1110 	CALL SUBOPT_0x16
                 ; 0000 00F7     if (viz_faza==13) sprintf (string_LCD_2, "------II---#--");
                 _0x75:
000598 e0ed      	LDI  R30,LOW(13)
000599 15ec      	CP   R30,R12
00059a f431      	BRNE _0x76
00059b 940e 10d5 	CALL SUBOPT_0xD
                +
00059d e1e2     +LDI R30 , LOW ( 2 * _0x0 + 940 )
00059e e0f4     +LDI R31 , HIGH ( 2 * _0x0 + 940 )
                 	__POINTW1FN _0x0,940
00059f 940e 1110 	CALL SUBOPT_0x16
                 ; 0000 00F8     if (viz_faza==14) sprintf (string_LCD_2, "------II----#-");
                 _0x76:
0005a1 e0ee      	LDI  R30,LOW(14)
0005a2 15ec      	CP   R30,R12
0005a3 f431      	BRNE _0x77
0005a4 940e 10d5 	CALL SUBOPT_0xD
                +
0005a6 e2e3     +LDI R30 , LOW ( 2 * _0x0 + 957 )
0005a7 e0f4     +LDI R31 , HIGH ( 2 * _0x0 + 957 )
                 	__POINTW1FN _0x0,957
0005a8 940e 1110 	CALL SUBOPT_0x16
                 ; 0000 00F9     if (viz_faza==15) sprintf (string_LCD_2, "------II-----#");
                 _0x77:
0005aa e0ef      	LDI  R30,LOW(15)
0005ab 15ec      	CP   R30,R12
0005ac f431      	BRNE _0x78
0005ad 940e 10d5 	CALL SUBOPT_0xD
                +
0005af e3e4     +LDI R30 , LOW ( 2 * _0x0 + 974 )
0005b0 e0f4     +LDI R31 , HIGH ( 2 * _0x0 + 974 )
                 	__POINTW1FN _0x0,974
0005b1 940e 1110 	CALL SUBOPT_0x16
                 ; 0000 00FA     if (viz_faza==16) sprintf (string_LCD_2, "------II----o_O");
                 _0x78:
0005b3 e1e0      	LDI  R30,LOW(16)
0005b4 15ec      	CP   R30,R12
0005b5 f431      	BRNE _0x79
0005b6 940e 10d5 	CALL SUBOPT_0xD
                +
0005b8 e4e5     +LDI R30 , LOW ( 2 * _0x0 + 991 )
0005b9 e0f4     +LDI R31 , HIGH ( 2 * _0x0 + 991 )
                 	__POINTW1FN _0x0,991
0005ba 940e 1110 	CALL SUBOPT_0x16
                 ; 0000 00FB     lcd_puts (string_LCD_2);
                 _0x79:
                 _0x20C0007:
0005bc e7e4      	LDI  R30,LOW(_string_LCD_2)
0005bd e0f2      	LDI  R31,HIGH(_string_LCD_2)
0005be 93fa      	ST   -Y,R31
0005bf 93ea      	ST   -Y,R30
0005c0 940e 0c25 	CALL _lcd_puts
                 ; 0000 00FC     }
0005c2 9508      	RET
                 ;
                 ;void zvuk ()
                 ; 0000 00FF     {
                 _zvuk:
                 ; 0000 0100     UDR = X;
0005c3 b8bc      	OUT  0xC,R11
                 ; 0000 0101     }
0005c4 9508      	RET
                 ;
                 ;void new_X_Y (void)
                 ; 0000 0104     {
                 _new_X_Y:
                 ; 0000 0105       unsigned char adres = 0x89;
                 ; 0000 0106       i2c_start();
0005c5 931a      	ST   -Y,R17
                 ;	adres -> R17
0005c6 e819      	LDI  R17,137
0005c7 940e 13bc 	CALL _i2c_start
                 ; 0000 0107       delay_us (20);
                +
0005c9 e68d     +LDI R24 , LOW ( 109 )
                +__DELAY_USB_LOOP :
0005ca 958a     +DEC R24
0005cb f7f1     +BRNE __DELAY_USB_LOOP
                 	__DELAY_USB 109
                 ; 0000 0108       i2c_write(adres);
0005cc 931a      	ST   -Y,R17
0005cd 940e 13f0 	CALL _i2c_write
                 ; 0000 0109       delay_us (20);
                +
0005cf e68d     +LDI R24 , LOW ( 109 )
                +__DELAY_USB_LOOP :
0005d0 958a     +DEC R24
0005d1 f7f1     +BRNE __DELAY_USB_LOOP
                 	__DELAY_USB 109
                 ; 0000 010A       X = i2c_read(1);
0005d2 e0e1      	LDI  R30,LOW(1)
0005d3 93ea      	ST   -Y,R30
0005d4 940e 13d5 	CALL _i2c_read
0005d6 2ebe      	MOV  R11,R30
                 ; 0000 010B       delay_us (20);
                +
0005d7 e68d     +LDI R24 , LOW ( 109 )
                +__DELAY_USB_LOOP :
0005d8 958a     +DEC R24
0005d9 f7f1     +BRNE __DELAY_USB_LOOP
                 	__DELAY_USB 109
                 ; 0000 010C       Y = i2c_read(0);
0005da e0e0      	LDI  R30,LOW(0)
0005db 93ea      	ST   -Y,R30
0005dc 940e 13d5 	CALL _i2c_read
0005de 2eae      	MOV  R10,R30
                 ; 0000 010D       delay_us (20);
                +
0005df e68d     +LDI R24 , LOW ( 109 )
                +__DELAY_USB_LOOP :
0005e0 958a     +DEC R24
0005e1 f7f1     +BRNE __DELAY_USB_LOOP
                 	__DELAY_USB 109
                 ; 0000 010E       i2c_stop();
0005e2 940e 13cb 	CALL _i2c_stop
                 ; 0000 010F     }
0005e4 9119      	LD   R17,Y+
0005e5 9508      	RET
                 ;
                 ;float vektor_ampl (unsigned int Y_1, unsigned int X_1, unsigned int Y_2, unsigned int X_2)
                 ; 0000 0112     {
                 _vektor_ampl:
                 ; 0000 0113     long int YY, XX;
                 ; 0000 0114     long unsigned int YX2;
                 ; 0000 0115     float YX3;
                 ; 0000 0116     if (Y_1 > Y_2) YY = Y_1 - Y_2;
0005e6 9760      	SBIW R28,16
                 ;	Y_1 -> Y+22
                 ;	X_1 -> Y+20
                 ;	Y_2 -> Y+18
                 ;	X_2 -> Y+16
                 ;	YY -> Y+12
                 ;	XX -> Y+8
                 ;	YX2 -> Y+4
                 ;	YX3 -> Y+0
0005e7 89ea      	LDD  R30,Y+18
0005e8 89fb      	LDD  R31,Y+18+1
0005e9 89ae      	LDD  R26,Y+22
0005ea 89bf      	LDD  R27,Y+22+1
0005eb 17ea      	CP   R30,R26
0005ec 07fb      	CPC  R31,R27
0005ed f428      	BRSH _0x7A
0005ee 89aa      	LDD  R26,Y+18
0005ef 89bb      	LDD  R27,Y+18+1
0005f0 89ee      	LDD  R30,Y+22
0005f1 89ff      	LDD  R31,Y+22+1
0005f2 c004      	RJMP _0x120
                 ; 0000 0117     else YY = Y_2 - Y_1;
                 _0x7A:
0005f3 89ae      	LDD  R26,Y+22
0005f4 89bf      	LDD  R27,Y+22+1
0005f5 89ea      	LDD  R30,Y+18
0005f6 89fb      	LDD  R31,Y+18+1
                 _0x120:
0005f7 1bea      	SUB  R30,R26
0005f8 0bfb      	SBC  R31,R27
0005f9 2766      	CLR  R22
0005fa 2777      	CLR  R23
                +
0005fb 87ec     +STD Y + 12 , R30
0005fc 87fd     +STD Y + 12 + 1 , R31
0005fd 876e     +STD Y + 12 + 2 , R22
0005fe 877f     +STD Y + 12 + 3 , R23
                 	__PUTD1S 12
                 ; 0000 0118     if (X_1 > X_2) XX = X_1 - X_2;
0005ff 89e8      	LDD  R30,Y+16
000600 89f9      	LDD  R31,Y+16+1
000601 89ac      	LDD  R26,Y+20
000602 89bd      	LDD  R27,Y+20+1
000603 17ea      	CP   R30,R26
000604 07fb      	CPC  R31,R27
000605 f428      	BRSH _0x7C
000606 89a8      	LDD  R26,Y+16
000607 89b9      	LDD  R27,Y+16+1
000608 89ec      	LDD  R30,Y+20
000609 89fd      	LDD  R31,Y+20+1
00060a c004      	RJMP _0x121
                 ; 0000 0119     else XX = X_2 - X_1;
                 _0x7C:
00060b 89ac      	LDD  R26,Y+20
00060c 89bd      	LDD  R27,Y+20+1
00060d 89e8      	LDD  R30,Y+16
00060e 89f9      	LDD  R31,Y+16+1
                 _0x121:
00060f 1bea      	SUB  R30,R26
000610 0bfb      	SBC  R31,R27
000611 2766      	CLR  R22
000612 2777      	CLR  R23
                +
000613 87e8     +STD Y + 8 , R30
000614 87f9     +STD Y + 8 + 1 , R31
000615 876a     +STD Y + 8 + 2 , R22
000616 877b     +STD Y + 8 + 3 , R23
                 	__PUTD1S 8
                 ; 0000 011A     YX2  = YY*YY + XX*XX;
000617 940e 1135 	CALL SUBOPT_0x1B
000619 940e 1490 	CALL __MULD12
00061b 937f      	PUSH R23
00061c 936f      	PUSH R22
00061d 93ff      	PUSH R31
00061e 93ef      	PUSH R30
                +
00061f 85e8     +LDD R30 , Y + 8
000620 85f9     +LDD R31 , Y + 8 + 1
000621 856a     +LDD R22 , Y + 8 + 2
000622 857b     +LDD R23 , Y + 8 + 3
                 	__GETD1S 8
000623 940e 113e 	CALL SUBOPT_0x1C
000625 940e 1490 	CALL __MULD12
000627 91af      	POP  R26
000628 91bf      	POP  R27
000629 918f      	POP  R24
00062a 919f      	POP  R25
00062b 940e 144f 	CALL __ADDD12
00062d 940e 1143 	CALL SUBOPT_0x1D
                 ; 0000 011B     YX3 = sqrt (YX2);
00062f 940e 1547 	CALL __CDF1U
000631 940e 1148 	CALL SUBOPT_0x1E
000633 940e 114c 	CALL SUBOPT_0x1F
                 ; 0000 011C     return YX3;
000635 940e 1151 	CALL SUBOPT_0x20
000637 c06e      	RJMP _0x20C0006
                 ; 0000 011D     }
                 ;
                 ;
                 ;float vektor_faza (unsigned int Y_1, unsigned int X_1, unsigned int Y_2, unsigned int X_2)
                 ; 0000 0121     {
                 _vektor_faza:
                 ; 0000 0122     signed int YY, XX;
                 ; 0000 0123     float YX2;
                 ; 0000 0124     YY = Y_1 - Y_2;
000638 9724      	SBIW R28,4
000639 940e 1690 	CALL __SAVELOCR4
                 ;	Y_1 -> Y+14
                 ;	X_1 -> Y+12
                 ;	Y_2 -> Y+10
                 ;	X_2 -> Y+8
                 ;	YY -> R16,R17
                 ;	XX -> R18,R19
                 ;	YX2 -> Y+4
00063b 85aa      	LDD  R26,Y+10
00063c 85bb      	LDD  R27,Y+10+1
00063d 85ee      	LDD  R30,Y+14
00063e 85ff      	LDD  R31,Y+14+1
00063f 1bea      	SUB  R30,R26
000640 0bfb      	SBC  R31,R27
000641 018f      	MOVW R16,R30
                 ; 0000 0125     XX = X_1 - X_2;
000642 85a8      	LDD  R26,Y+8
000643 85b9      	LDD  R27,Y+8+1
000644 85ec      	LDD  R30,Y+12
000645 85fd      	LDD  R31,Y+12+1
000646 1bea      	SUB  R30,R26
000647 0bfb      	SBC  R31,R27
000648 019f      	MOVW R18,R30
                 ; 0000 0126     YX2 = atan2 (YY,XX);
000649 01f8      	MOVW R30,R16
00064a 940e 1156 	CALL SUBOPT_0x21
00064c 01f9      	MOVW R30,R18
00064d 940e 1156 	CALL SUBOPT_0x21
00064f 940e 1015 	CALL _atan2
000651 940e 1143 	CALL SUBOPT_0x1D
                 ; 0000 0127     return YX2;
000653 940e 1697 	CALL __LOADLOCR4
000655 9660      	ADIW R28,16
000656 9508      	RET
                 ; 0000 0128     }
                 ;
                 ;float th_cos (float a, float aa_x, float b, float bb_x)
                 ; 0000 012B     {
                 _th_cos:
                 ; 0000 012C     float c;
                 ; 0000 012D     float aabb;
                 ; 0000 012E     aabb = aa_x - bb_x;
000657 9728      	SBIW R28,8
                 ;	a -> Y+20
                 ;	aa_x -> Y+16
                 ;	b -> Y+12
                 ;	bb_x -> Y+8
                 ;	c -> Y+4
                 ;	aabb -> Y+0
000658 940e 113e 	CALL SUBOPT_0x1C
                +
00065a 89e8     +LDD R30 , Y + 16
00065b 89f9     +LDD R31 , Y + 16 + 1
00065c 896a     +LDD R22 , Y + 16 + 2
00065d 897b     +LDD R23 , Y + 16 + 3
                 	__GETD1S 16
00065e 940e 157c 	CALL __SUBF12
000660 940e 114c 	CALL SUBOPT_0x1F
                 ; 0000 012F     c = sqrt (a*a + b*b - 2*a*b*cos(aabb));
                +
000662 89ec     +LDD R30 , Y + 20
000663 89fd     +LDD R31 , Y + 20 + 1
000664 896e     +LDD R22 , Y + 20 + 2
000665 897f     +LDD R23 , Y + 20 + 3
                 	__GETD1S 20
                +
000666 89ac     +LDD R26 , Y + 20
000667 89bd     +LDD R27 , Y + 20 + 1
000668 898e     +LDD R24 , Y + 20 + 2
000669 899f     +LDD R25 , Y + 20 + 3
                 	__GETD2S 20
00066a 940e 15d1 	CALL __MULF12
00066c 937f      	PUSH R23
00066d 936f      	PUSH R22
00066e 93ff      	PUSH R31
00066f 93ef      	PUSH R30
000670 940e 1135 	CALL SUBOPT_0x1B
000672 940e 15d1 	CALL __MULF12
000674 91af      	POP  R26
000675 91bf      	POP  R27
000676 918f      	POP  R24
000677 919f      	POP  R25
000678 940e 1583 	CALL __ADDF12
00067a 937f      	PUSH R23
00067b 936f      	PUSH R22
00067c 93ff      	PUSH R31
00067d 93ef      	PUSH R30
                +
00067e 89ec     +LDD R30 , Y + 20
00067f 89fd     +LDD R31 , Y + 20 + 1
000680 896e     +LDD R22 , Y + 20 + 2
000681 897f     +LDD R23 , Y + 20 + 3
                 	__GETD1S 20
                +
000682 e0a0     +LDI R26 , LOW ( 0x40000000 )
000683 e0b0     +LDI R27 , HIGH ( 0x40000000 )
000684 e080     +LDI R24 , BYTE3 ( 0x40000000 )
000685 e490     +LDI R25 , BYTE4 ( 0x40000000 )
                 	__GETD2N 0x40000000
000686 940e 15d1 	CALL __MULF12
                +
000688 85ac     +LDD R26 , Y + 12
000689 85bd     +LDD R27 , Y + 12 + 1
00068a 858e     +LDD R24 , Y + 12 + 2
00068b 859f     +LDD R25 , Y + 12 + 3
                 	__GETD2S 12
00068c 940e 15d1 	CALL __MULF12
00068e 937f      	PUSH R23
00068f 936f      	PUSH R22
000690 93ff      	PUSH R31
000691 93ef      	PUSH R30
000692 940e 115d 	CALL SUBOPT_0x22
000694 940e 0f46 	CALL _cos
000696 91af      	POP  R26
000697 91bf      	POP  R27
000698 918f      	POP  R24
000699 919f      	POP  R25
00069a 940e 15d1 	CALL __MULF12
00069c 91af      	POP  R26
00069d 91bf      	POP  R27
00069e 918f      	POP  R24
00069f 919f      	POP  R25
0006a0 940e 1161 	CALL SUBOPT_0x23
0006a2 940e 1148 	CALL SUBOPT_0x1E
0006a4 940e 1143 	CALL SUBOPT_0x1D
                 ; 0000 0130     return c;
                 _0x20C0006:
0006a6 9668      	ADIW R28,24
0006a7 9508      	RET
                 ; 0000 0131     }
                 ;
                 ;float th_sin (float c, int b_y, int b_x, int c_y, int c_x)
                 ; 0000 0134     {
                 _th_sin:
                 ; 0000 0135     int ab;
                 ; 0000 0136     float temp;
                 ; 0000 0137     if (b_y > c_y) ab = b_y - c_y;
0006a8 9724      	SBIW R28,4
0006a9 931a      	ST   -Y,R17
0006aa 930a      	ST   -Y,R16
                 ;	c -> Y+14
                 ;	b_y -> Y+12
                 ;	b_x -> Y+10
                 ;	c_y -> Y+8
                 ;	c_x -> Y+6
                 ;	ab -> R16,R17
                 ;	temp -> Y+2
0006ab 85e8      	LDD  R30,Y+8
0006ac 85f9      	LDD  R31,Y+8+1
0006ad 85ac      	LDD  R26,Y+12
0006ae 85bd      	LDD  R27,Y+12+1
0006af 17ea      	CP   R30,R26
0006b0 07fb      	CPC  R31,R27
0006b1 f42c      	BRGE _0x7E
0006b2 85a8      	LDD  R26,Y+8
0006b3 85b9      	LDD  R27,Y+8+1
0006b4 85ec      	LDD  R30,Y+12
0006b5 85fd      	LDD  R31,Y+12+1
0006b6 c004      	RJMP _0x122
                 ; 0000 0138     else ab = c_y - b_y;
                 _0x7E:
0006b7 85ac      	LDD  R26,Y+12
0006b8 85bd      	LDD  R27,Y+12+1
0006b9 85e8      	LDD  R30,Y+8
0006ba 85f9      	LDD  R31,Y+8+1
                 _0x122:
0006bb 1bea      	SUB  R30,R26
0006bc 0bfb      	SBC  R31,R27
0006bd 018f      	MOVW R16,R30
                 ; 0000 0139     temp = asin (ab/c);
                +
0006be 85ee     +LDD R30 , Y + 14
0006bf 85ff     +LDD R31 , Y + 14 + 1
0006c0 8968     +LDD R22 , Y + 14 + 2
0006c1 8979     +LDD R23 , Y + 14 + 3
                 	__GETD1S 14
0006c2 01d8      	MOVW R26,R16
0006c3 940e 146b 	CALL __CWD2
0006c5 940e 14cd 	CALL __CDF2
0006c7 940e 1166 	CALL SUBOPT_0x24
0006c9 940e 0fb7 	CALL _asin
                +
0006cb 83ea     +STD Y + 2 , R30
0006cc 83fb     +STD Y + 2 + 1 , R31
0006cd 836c     +STD Y + 2 + 2 , R22
0006ce 837d     +STD Y + 2 + 3 , R23
                 	__PUTD1S 2
                 ; 0000 013A     if (c_x > b_x) temp = 3.141593 - temp;
0006cf 85ea      	LDD  R30,Y+10
0006d0 85fb      	LDD  R31,Y+10+1
0006d1 81ae      	LDD  R26,Y+6
0006d2 81bf      	LDD  R27,Y+6+1
0006d3 17ea      	CP   R30,R26
0006d4 07fb      	CPC  R31,R27
0006d5 f474      	BRGE _0x80
                +
0006d6 81aa     +LDD R26 , Y + 2
0006d7 81bb     +LDD R27 , Y + 2 + 1
0006d8 818c     +LDD R24 , Y + 2 + 2
0006d9 819d     +LDD R25 , Y + 2 + 3
                 	__GETD2S 2
                +
0006da edec     +LDI R30 , LOW ( 0x40490FDC )
0006db e0ff     +LDI R31 , HIGH ( 0x40490FDC )
0006dc e469     +LDI R22 , BYTE3 ( 0x40490FDC )
0006dd e470     +LDI R23 , BYTE4 ( 0x40490FDC )
                 	__GETD1N 0x40490FDC
0006de 940e 157c 	CALL __SUBF12
                +
0006e0 83ea     +STD Y + 2 , R30
0006e1 83fb     +STD Y + 2 + 1 , R31
0006e2 836c     +STD Y + 2 + 2 , R22
0006e3 837d     +STD Y + 2 + 3 , R23
                 	__PUTD1S 2
                 ; 0000 013B     return temp;
                 _0x80:
                +
0006e4 81ea     +LDD R30 , Y + 2
0006e5 81fb     +LDD R31 , Y + 2 + 1
0006e6 816c     +LDD R22 , Y + 2 + 2
0006e7 817d     +LDD R23 , Y + 2 + 3
                 	__GETD1S 2
0006e8 8119      	LDD  R17,Y+1
0006e9 8108      	LDD  R16,Y+0
0006ea 9662      	ADIW R28,18
0006eb 9508      	RET
                 ; 0000 013C     }
                 ;
                 ;void main_menu(void)
                 ; 0000 013F     {
                 _main_menu:
                 ; 0000 0140     menu++;
0006ec e4e0      	LDI  R30,LOW(64)
0006ed 262e      	EOR  R2,R30
                 ; 0000 0141     while (kn1==1)
                 _0x81:
0006ee e0a0      	LDI  R26,0
0006ef fc20      	SBRC R2,0
0006f0 e0a1      	LDI  R26,1
0006f1 30a1      	CPI  R26,LOW(0x1)
0006f2 f419      	BRNE _0x83
                 ; 0000 0142         {
                 ; 0000 0143         kn_klava();
0006f3 940e 116b 	CALL SUBOPT_0x25
                 ; 0000 0144         lcd_disp();
                 ; 0000 0145         };
0006f5 cff8      	RJMP _0x81
                 _0x83:
                 ; 0000 0146     }
0006f6 9508      	RET
                 ;
                 ;void volume(void)
                 ; 0000 0149     {
                 _volume:
                 ; 0000 014A     vol++;
0006f7 9493      	INC  R9
                 ; 0000 014B     if (vol==10) vol=0;
0006f8 e0ea      	LDI  R30,LOW(10)
0006f9 15e9      	CP   R30,R9
0006fa f409      	BRNE _0x84
0006fb 2499      	CLR  R9
                 ; 0000 014C     while (kn2==1)
                 _0x84:
                 _0x85:
0006fc 940e 10e9 	CALL SUBOPT_0x11
0006fe f419      	BRNE _0x87
                 ; 0000 014D         {
                 ; 0000 014E         kn_klava();
0006ff 940e 116b 	CALL SUBOPT_0x25
                 ; 0000 014F         lcd_disp();
                 ; 0000 0150         };
000701 cffa      	RJMP _0x85
                 _0x87:
                 ; 0000 0151     }
000702 9508      	RET
                 ;
                 ;void barrier(void)
                 ; 0000 0154     {
                 _barrier:
                 ; 0000 0155     bar++;
000703 9483      	INC  R8
                 ; 0000 0156     if (bar==10) bar=0;
000704 e0ea      	LDI  R30,LOW(10)
000705 15e8      	CP   R30,R8
000706 f409      	BRNE _0x88
000707 2488      	CLR  R8
                 ; 0000 0157     bar_rad = (float) bar*0.174532925;
                 _0x88:
000708 2de8      	MOV  R30,R8
000709 940e 1460 	CALL __CBD1
00070b 940e 1549 	CALL __CDF1
                +
00070d eca2     +LDI R26 , LOW ( 0x3E32B8C2 )
00070e ebb8     +LDI R27 , HIGH ( 0x3E32B8C2 )
00070f e382     +LDI R24 , BYTE3 ( 0x3E32B8C2 )
000710 e39e     +LDI R25 , BYTE4 ( 0x3E32B8C2 )
                 	__GETD2N 0x3E32B8C2
000711 940e 15d1 	CALL __MULF12
000713 93e0 02b0 	STS  _bar_rad,R30
000715 93f0 02b1 	STS  _bar_rad+1,R31
000717 9360 02b2 	STS  _bar_rad+2,R22
000719 9370 02b3 	STS  _bar_rad+3,R23
                 ; 0000 0158     while (kn3==1)
                 _0x89:
00071b 940e 10f3 	CALL SUBOPT_0x13
00071d f419      	BRNE _0x8B
                 ; 0000 0159         {
                 ; 0000 015A         kn_klava();
00071e 940e 116b 	CALL SUBOPT_0x25
                 ; 0000 015B         lcd_disp();
                 ; 0000 015C         };
000720 cffa      	RJMP _0x89
                 _0x8B:
                 ; 0000 015D     }
000721 9508      	RET
                 ;
                 ;void rock(void)
                 ; 0000 0160     {
                 _rock:
                 ; 0000 0161     if (menu==1) mod_rock++;
000722 940e 108e 	CALL SUBOPT_0x4
000724 f411      	BRNE _0x8C
000725 e0e1      	LDI  R30,LOW(1)
000726 263e      	EOR  R3,R30
                 ; 0000 0162     rock_ampl_max = vektor_ampl(Y, X, zero_Y, zero_X);
                 _0x8C:
000727 940e 116f 	CALL SUBOPT_0x26
000729 debc      	RCALL _vektor_ampl
00072a 93e0 02a0 	STS  _rock_ampl_max,R30
00072c 93f0 02a1 	STS  _rock_ampl_max+1,R31
00072e 9360 02a2 	STS  _rock_ampl_max+2,R22
000730 9370 02a3 	STS  _rock_ampl_max+3,R23
                 ; 0000 0163     rock_faza_max = vektor_faza(Y, X, zero_Y, zero_X);
000732 940e 116f 	CALL SUBOPT_0x26
000734 df03      	RCALL _vektor_faza
000735 93e0 02a4 	STS  _rock_faza_max,R30
000737 93f0 02a5 	STS  _rock_faza_max+1,R31
000739 9360 02a6 	STS  _rock_faza_max+2,R22
00073b 9370 02a7 	STS  _rock_faza_max+3,R23
                 ; 0000 0164     }
00073d 9508      	RET
                 ;
                 ;void ground(void)
                 ; 0000 0167     {
                 _ground:
                 ; 0000 0168     if (menu==1) mod_gnd++;
00073e 940e 108e 	CALL SUBOPT_0x4
000740 f411      	BRNE _0x8D
000741 e8e0      	LDI  R30,LOW(128)
000742 262e      	EOR  R2,R30
                 ; 0000 0169     gnd_ampl_max = vektor_ampl(Y, X, zero_Y, zero_X);
                 _0x8D:
000743 940e 116f 	CALL SUBOPT_0x26
000745 dea0      	RCALL _vektor_ampl
000746 93e0 0298 	STS  _gnd_ampl_max,R30
000748 93f0 0299 	STS  _gnd_ampl_max+1,R31
00074a 9360 029a 	STS  _gnd_ampl_max+2,R22
00074c 9370 029b 	STS  _gnd_ampl_max+3,R23
                 ; 0000 016A     gnd_faza_max = vektor_faza(Y, X, zero_Y, zero_X);
00074e 940e 116f 	CALL SUBOPT_0x26
000750 dee7      	RCALL _vektor_faza
000751 93e0 029c 	STS  _gnd_faza_max,R30
000753 93f0 029d 	STS  _gnd_faza_max+1,R31
000755 9360 029e 	STS  _gnd_faza_max+2,R22
000757 9370 029f 	STS  _gnd_faza_max+3,R23
                 ; 0000 016B     }
000759 9508      	RET
                 ;
                 ;void zero(void)
                 ; 0000 016E     {
                 _zero:
                 ; 0000 016F     if (menu==1) mod_all_met++;
00075a 940e 108e 	CALL SUBOPT_0x4
00075c f411      	BRNE _0x8E
00075d e0e2      	LDI  R30,LOW(2)
00075e 263e      	EOR  R3,R30
                 ; 0000 0170     zero_Y=0;
                 _0x8E:
00075f 2444      	CLR  R4
000760 2455      	CLR  R5
                 ; 0000 0171     zero_X=X;
000761 2c6b      	MOV  R6,R11
000762 2477      	CLR  R7
                 ; 0000 0172 //    zero_ampl=ampl;
                 ; 0000 0173 //    zero_faza=faza;
                 ; 0000 0174     }
000763 9508      	RET
                 ;
                 ;void main(void)
                 ; 0000 0177 {
                 _main:
                 ; 0000 0178 // Declare your local variables here
                 ; 0000 0179 
                 ; 0000 017A // Input/Output Ports initialization
                 ; 0000 017B // Port A initialization
                 ; 0000 017C // Func7=In Func6=In Func5=In Func4=In Func3=In Func2=In Func1=In Func0=In
                 ; 0000 017D // State7=T State6=T State5=T State4=T State3=T State2=T State1=T State0=T
                 ; 0000 017E PORTA=0x00;
000764 e0e0      	LDI  R30,LOW(0)
000765 bbeb      	OUT  0x1B,R30
                 ; 0000 017F DDRA=0x00;
000766 bbea      	OUT  0x1A,R30
                 ; 0000 0180 
                 ; 0000 0181 // Port B initialization
                 ; 0000 0182 // Func7=In Func6=In Func5=In Func4=In Func3=In Func2=In Func1=In Func0=In
                 ; 0000 0183 // State7=T State6=T State5=T State4=T State3=T State2=T State1=T State0=T
                 ; 0000 0184 PORTB=0x00;
000767 bbe8      	OUT  0x18,R30
                 ; 0000 0185 DDRB=0x00;
000768 bbe7      	OUT  0x17,R30
                 ; 0000 0186 
                 ; 0000 0187 // Port C initialization
                 ; 0000 0188 // Func7=Out Func6=Out Func5=Out Func4=Out Func3=Out Func2=Out Func1=Out Func0=Out
                 ; 0000 0189 // State7=0 State6=0 State5=0 State4=0 State3=0 State2=0 State1=0 State0=0
                 ; 0000 018A PORTC=0x00;
000769 bbe5      	OUT  0x15,R30
                 ; 0000 018B DDRC=0xFF;
00076a efef      	LDI  R30,LOW(255)
00076b bbe4      	OUT  0x14,R30
                 ; 0000 018C 
                 ; 0000 018D // Port D initialization
                 ; 0000 018E // Func7=Out Func6=In Func5=Out Func4=In Func3=In Func2=In Func1=In Func0=Out
                 ; 0000 018F // State7=0 State6=T State5=0 State4=T State3=T State2=T State1=T State0=0
                 ; 0000 0190 PORTD=0x03;
00076c e0e3      	LDI  R30,LOW(3)
00076d bbe2      	OUT  0x12,R30
                 ; 0000 0191 DDRD=0xA3;
00076e eae3      	LDI  R30,LOW(163)
00076f bbe1      	OUT  0x11,R30
                 ; 0000 0192 
                 ; 0000 0193 // ADC initialization
                 ; 0000 0194 // ADC Clock frequency: 1000,000 kHz
                 ; 0000 0195 // ADC Voltage Reference: AREF pin
                 ; 0000 0196 ADMUX=ADC_VREF_TYPE & 0xff;
000770 e6e0      	LDI  R30,LOW(96)
000771 b9e7      	OUT  0x7,R30
                 ; 0000 0197 ADCSRA=0x83;
000772 e8e3      	LDI  R30,LOW(131)
000773 b9e6      	OUT  0x6,R30
                 ; 0000 0198 
                 ; 0000 0199 // Timer/Counter 0 initialization
                 ; 0000 019A // Clock source: System Clock
                 ; 0000 019B // Clock value: Timer 0 Stopped
                 ; 0000 019C // Mode: Normal top=FFh
                 ; 0000 019D // OC0 output: Disconnected
                 ; 0000 019E TCCR0=0x00;
000774 e0e0      	LDI  R30,LOW(0)
000775 bfe3      	OUT  0x33,R30
                 ; 0000 019F TCNT0=0x00;
000776 bfe2      	OUT  0x32,R30
                 ; 0000 01A0 OCR0=0x00;
000777 bfec      	OUT  0x3C,R30
                 ; 0000 01A1 
                 ; 0000 01A2 // Timer/Counter 1 initialization
                 ; 0000 01A3 // Clock source: System Clock
                 ; 0000 01A4 // Clock value: Timer 1 Stopped
                 ; 0000 01A5 // Mode: Normal top=FFFFh
                 ; 0000 01A6 // OC1A output: Discon.
                 ; 0000 01A7 // OC1B output: Discon.
                 ; 0000 01A8 // Noise Canceler: Off
                 ; 0000 01A9 // Input Capture on Falling Edge
                 ; 0000 01AA // Timer 1 Overflow Interrupt: Off
                 ; 0000 01AB // Input Capture Interrupt: Off
                 ; 0000 01AC // Compare A Match Interrupt: Off
                 ; 0000 01AD // Compare B Match Interrupt: Off
                 ; 0000 01AE TCCR1A=0x00;
000778 bdef      	OUT  0x2F,R30
                 ; 0000 01AF TCCR1B=0x00;
000779 bdee      	OUT  0x2E,R30
                 ; 0000 01B0 TCNT1H=0x00;
00077a bded      	OUT  0x2D,R30
                 ; 0000 01B1 TCNT1L=0x00;
00077b bdec      	OUT  0x2C,R30
                 ; 0000 01B2 ICR1H=0x00;
00077c bde7      	OUT  0x27,R30
                 ; 0000 01B3 ICR1L=0x00;
00077d bde6      	OUT  0x26,R30
                 ; 0000 01B4 OCR1AH=0x00;
00077e bdeb      	OUT  0x2B,R30
                 ; 0000 01B5 OCR1AL=0x00;
00077f bdea      	OUT  0x2A,R30
                 ; 0000 01B6 OCR1BH=0x00;
000780 bde9      	OUT  0x29,R30
                 ; 0000 01B7 OCR1BL=0x00;
000781 bde8      	OUT  0x28,R30
                 ; 0000 01B8 
                 ; 0000 01B9 // Timer/Counter 2 initialization
                 ; 0000 01BA // Clock source: System Clock
                 ; 0000 01BB // Clock value: Timer 2 Stopped
                 ; 0000 01BC // Mode: Normal top=FFh
                 ; 0000 01BD // OC2 output: Disconnected
                 ; 0000 01BE ASSR=0x00;
000782 bde2      	OUT  0x22,R30
                 ; 0000 01BF TCCR2=0x00;
000783 bde5      	OUT  0x25,R30
                 ; 0000 01C0 TCNT2=0x00;
000784 bde4      	OUT  0x24,R30
                 ; 0000 01C1 OCR2=0x00;
000785 bde3      	OUT  0x23,R30
                 ; 0000 01C2 
                 ; 0000 01C3 // External Interrupt(s) initialization
                 ; 0000 01C4 // INT0: Off
                 ; 0000 01C5 // INT1: Off
                 ; 0000 01C6 // INT2: Off
                 ; 0000 01C7 MCUCR=0x00;
000786 bfe5      	OUT  0x35,R30
                 ; 0000 01C8 MCUCSR=0x00;
000787 bfe4      	OUT  0x34,R30
                 ; 0000 01C9 
                 ; 0000 01CA // Timer(s)/Counter(s) Interrupt(s) initialization
                 ; 0000 01CB TIMSK=0x00;
000788 bfe9      	OUT  0x39,R30
                 ; 0000 01CC 
                 ; 0000 01CD // Analog Comparator initialization
                 ; 0000 01CE // Analog Comparator: Off
                 ; 0000 01CF // Analog Comparator Input Capture by Timer/Counter 1: Off
                 ; 0000 01D0 ACSR=0x80;
000789 e8e0      	LDI  R30,LOW(128)
00078a b9e8      	OUT  0x8,R30
                 ; 0000 01D1 SFIOR=0x00;
00078b e0e0      	LDI  R30,LOW(0)
00078c bfe0      	OUT  0x30,R30
                 ; 0000 01D2 
                 ; 0000 01D3 // USART initialization
                 ; 0000 01D4 // Communication Parameters: 8 Data, 1 Stop, No Parity
                 ; 0000 01D5 // USART Receiver: Off
                 ; 0000 01D6 // USART Transmitter: On
                 ; 0000 01D7 // USART Mode: Asynchronous
                 ; 0000 01D8 // USART Baud Rate: 115200
                 ; 0000 01D9 UCSRA=0x00;
00078d b9eb      	OUT  0xB,R30
                 ; 0000 01DA UCSRB=0x08;
00078e e0e8      	LDI  R30,LOW(8)
00078f b9ea      	OUT  0xA,R30
                 ; 0000 01DB UCSRC=0x86;
000790 e8e6      	LDI  R30,LOW(134)
000791 bde0      	OUT  0x20,R30
                 ; 0000 01DC UBRRH=0x00;
000792 e0e0      	LDI  R30,LOW(0)
000793 bde0      	OUT  0x20,R30
                 ; 0000 01DD UBRRL=0x08;
000794 e0e8      	LDI  R30,LOW(8)
000795 b9e9      	OUT  0x9,R30
                 ; 0000 01DE 
                 ; 0000 01DF // LCD module initialization
                 ; 0000 01E0 lcd_init(16);
000796 e1e0      	LDI  R30,LOW(16)
000797 93ea      	ST   -Y,R30
000798 940e 0c45 	CALL _lcd_init
                 ; 0000 01E1 // I2C Bus initialization
                 ; 0000 01E2 i2c_init();
00079a 940e 13b7 	CALL _i2c_init
                 ; 0000 01E3 
                 ; 0000 01E4 lcd_gotoxy (0,0);
00079c 940e 112b 	CALL SUBOPT_0x19
                 ; 0000 01E5 sprintf (string_LCD_1, "$$$ MD_Exxus $$$");
00079e 940e 1130 	CALL SUBOPT_0x1A
                +
0007a0 e5e6     +LDI R30 , LOW ( 2 * _0x0 + 1008 )
0007a1 e0f4     +LDI R31 , HIGH ( 2 * _0x0 + 1008 )
                 	__POINTW1FN _0x0,1008
0007a2 940e 1110 	CALL SUBOPT_0x16
                 ; 0000 01E6 lcd_puts (string_LCD_1);
0007a4 940e 10b1 	CALL SUBOPT_0x9
                 ; 0000 01E7 lcd_gotoxy (0,1);
                 ; 0000 01E8 sprintf (string_LCD_2, "v1.5 ^_^ md4u.ru");
                +
0007a6 e6e7     +LDI R30 , LOW ( 2 * _0x0 + 1025 )
0007a7 e0f4     +LDI R31 , HIGH ( 2 * _0x0 + 1025 )
                 	__POINTW1FN _0x0,1025
0007a8 940e 1110 	CALL SUBOPT_0x16
                 ; 0000 01E9 lcd_puts (string_LCD_2);
0007aa 940e 10d5 	CALL SUBOPT_0xD
0007ac 940e 0c25 	CALL _lcd_puts
                 ; 0000 01EA delay_ms (4000);
0007ae eae0      	LDI  R30,LOW(4000)
0007af e0ff      	LDI  R31,HIGH(4000)
0007b0 93fa      	ST   -Y,R31
0007b1 93ea      	ST   -Y,R30
0007b2 940e 1409 	CALL _delay_ms
                 ; 0000 01EB 
                 ; 0000 01EC while (1)
                 _0x8F:
                 ; 0000 01ED       {
                 ; 0000 01EE       // Place your code here
                 ; 0000 01EF 
                 ; 0000 01F0       #asm("wdr")
0007b4 95a8      	wdr
                 ; 0000 01F1       new_X_Y ();
0007b5 de0f      	RCALL _new_X_Y
                 ; 0000 01F2       kn_klava();
0007b6 daf3      	RCALL _kn_klava
                 ; 0000 01F3 
                 ; 0000 01F4       if (kn1==1) main_menu();
0007b7 e0a0      	LDI  R26,0
0007b8 fc20      	SBRC R2,0
0007b9 e0a1      	LDI  R26,1
0007ba 30a1      	CPI  R26,LOW(0x1)
0007bb f409      	BRNE _0x92
0007bc df2f      	RCALL _main_menu
                 ; 0000 01F5       if (kn2==1) volume();
                 _0x92:
0007bd 940e 10e9 	CALL SUBOPT_0x11
0007bf f409      	BRNE _0x93
0007c0 df36      	RCALL _volume
                 ; 0000 01F6       if (kn3==1) barrier();
                 _0x93:
0007c1 940e 10f3 	CALL SUBOPT_0x13
0007c3 f409      	BRNE _0x94
0007c4 df3e      	RCALL _barrier
                 ; 0000 01F7       if (kn4==1) rock();
                 _0x94:
0007c5 e0a0      	LDI  R26,0
0007c6 fc23      	SBRC R2,3
0007c7 e0a1      	LDI  R26,1
0007c8 30a1      	CPI  R26,LOW(0x1)
0007c9 f409      	BRNE _0x95
0007ca df57      	RCALL _rock
                 ; 0000 01F8       if (kn5==1) ground();
                 _0x95:
0007cb e0a0      	LDI  R26,0
0007cc fc24      	SBRC R2,4
0007cd e0a1      	LDI  R26,1
0007ce 30a1      	CPI  R26,LOW(0x1)
0007cf f409      	BRNE _0x96
0007d0 df6d      	RCALL _ground
                 ; 0000 01F9       if (kn6==1) zero();
                 _0x96:
0007d1 e0a0      	LDI  R26,0
0007d2 fc25      	SBRC R2,5
0007d3 e0a1      	LDI  R26,1
0007d4 30a1      	CPI  R26,LOW(0x1)
0007d5 f409      	BRNE _0x97
0007d6 df83      	RCALL _zero
                 ; 0000 01FA 
                 ; 0000 01FB       now_ampl = vektor_ampl (Y, X, zero_Y, zero_X);
                 _0x97:
0007d7 940e 116f 	CALL SUBOPT_0x26
0007d9 de0c      	RCALL _vektor_ampl
0007da 940e 117c 	CALL SUBOPT_0x27
                 ; 0000 01FC       now_faza = vektor_faza (Y, X, zero_Y, zero_X);
0007dc 940e 116f 	CALL SUBOPT_0x26
0007de de59      	RCALL _vektor_faza
0007df 940e 1185 	CALL SUBOPT_0x28
                 ; 0000 01FD 
                 ; 0000 01FE       if (mod_gnd || mod_rock == 1)
0007e1 fc27      	SBRC R2,7
0007e2 c004      	RJMP _0x99
0007e3 940e 10e4 	CALL SUBOPT_0x10
0007e5 f009      	BREQ _0x99
0007e6 c054      	RJMP _0x98
                 _0x99:
                 ; 0000 01FF         {
                 ; 0000 0200         if ((now_faza <= gnd_faza_max + bar_rad + 0.005 ) && (now_faza >= gnd_faza_max - bar_rad + 0.005 ))
0007e7 940e 118e 	CALL SUBOPT_0x29
0007e9 940e 1197 	CALL SUBOPT_0x2A
0007eb f019      	BREQ PC+4
0007ec f010      	BRCS PC+3
0007ed 940c 07f4 	JMP  _0x9C
0007ef 940e 11b2 	CALL SUBOPT_0x2B
0007f1 940e 11bb 	CALL SUBOPT_0x2C
0007f3 f408      	BRSH _0x9D
                 _0x9C:
0007f4 c010      	RJMP _0x9B
                 _0x9D:
                 ; 0000 0201             {
                 ; 0000 0202             if ((now_ampl * 0.99 <= gnd_ampl ) && (now_ampl * 1.01 >= gnd_ampl))
0007f5 940e 11d6 	CALL SUBOPT_0x2D
0007f7 940e 11df 	CALL SUBOPT_0x2E
0007f9 f019      	BREQ PC+4
0007fa f010      	BRCS PC+3
0007fb 940c 0800 	JMP  _0x9F
0007fd 940e 11f2 	CALL SUBOPT_0x2F
0007ff f408      	BRSH _0xA0
                 _0x9F:
000800 c004      	RJMP _0x9E
                 _0xA0:
                 ; 0000 0203                 {
                 ; 0000 0204                 gnd_ampl = now_ampl;
000801 940e 1206 	CALL SUBOPT_0x30
000803 940e 120f 	CALL SUBOPT_0x31
                 ; 0000 0205                 gnd_faza = now_faza;
                 ; 0000 0206                 };
                 _0x9E:
                 ; 0000 0207             };
                 _0x9B:
                 ; 0000 0208         now_ampl = th_cos (now_ampl, now_faza, gnd_ampl, gnd_faza);
000805 940e 1228 	CALL SUBOPT_0x32
000807 940e 1236 	CALL SUBOPT_0x33
000809 de4d      	RCALL _th_cos
00080a 940e 117c 	CALL SUBOPT_0x27
                 ; 0000 0209         now_faza = th_sin (temp_ampl, Y, X, gnd_ampl, gnd_faza);
00080c 940e 123f 	CALL SUBOPT_0x34
00080e 940e 1113 	CALL SUBOPT_0x17
000810 940e 1250 	CALL SUBOPT_0x35
000812 940e 1255 	CALL SUBOPT_0x36
000814 de93      	RCALL _th_sin
000815 940e 1185 	CALL SUBOPT_0x28
                 ; 0000 020A         if ((now_faza <= rock_faza_max + bar_rad + 0.005 ) && (now_faza >= rock_faza_max - bar_rad + 0.005 ))
000817 940e 125e 	CALL SUBOPT_0x37
000819 f019      	BREQ PC+4
00081a f010      	BRCS PC+3
00081b 940c 0820 	JMP  _0xA2
00081d 940e 127a 	CALL SUBOPT_0x38
00081f f408      	BRSH _0xA3
                 _0xA2:
000820 c00c      	RJMP _0xA1
                 _0xA3:
                 ; 0000 020B             {
                 ; 0000 020C             if ((now_ampl * 0.95 <= rock_ampl ) && (now_ampl * 1.05 >= rock_ampl))
000821 940e 1296 	CALL SUBOPT_0x39
000823 f019      	BREQ PC+4
000824 f010      	BRCS PC+3
000825 940c 082a 	JMP  _0xA5
000827 940e 12aa 	CALL SUBOPT_0x3A
000829 f408      	BRSH _0xA6
                 _0xA5:
00082a c002      	RJMP _0xA4
                 _0xA6:
                 ; 0000 020D                 {
                 ; 0000 020E                 rock_ampl = now_ampl;
00082b 940e 12be 	CALL SUBOPT_0x3B
                 ; 0000 020F                 rock_faza = now_faza;
                 ; 0000 0210                 };
                 _0xA4:
                 ; 0000 0211             };
                 _0xA1:
                 ; 0000 0212         temp_ampl = th_cos (now_ampl, now_faza, rock_ampl, rock_faza);
00082d 940e 1228 	CALL SUBOPT_0x32
00082f 940e 12d8 	CALL SUBOPT_0x3C
000831 940e 12e1 	CALL SUBOPT_0x3D
                 ; 0000 0213         temp_faza = th_sin (temp_ampl, Y, X, rock_ampl, rock_faza);
000833 940e 10f8 	CALL SUBOPT_0x14
000835 940e 1250 	CALL SUBOPT_0x35
000837 940e 12ec 	CALL SUBOPT_0x3E
000839 de6e      	RCALL _th_sin
00083a c06a      	RJMP _0x123
                 ; 0000 0214         }
                 ; 0000 0215 
                 ; 0000 0216       else if (mod_gnd == 1)
                 _0x98:
00083b e0a0      	LDI  R26,0
00083c fc27      	SBRC R2,7
00083d e0a1      	LDI  R26,1
00083e 30a1      	CPI  R26,LOW(0x1)
00083f f561      	BRNE _0xA8
                 ; 0000 0217         {
                 ; 0000 0218         if ((now_faza <= gnd_faza_max + bar_rad + 0.005 ) && (now_faza >= gnd_faza_max - bar_rad + 0.005 ))
000840 940e 118e 	CALL SUBOPT_0x29
000842 940e 1197 	CALL SUBOPT_0x2A
000844 f019      	BREQ PC+4
000845 f010      	BRCS PC+3
000846 940c 084d 	JMP  _0xAA
000848 940e 11b2 	CALL SUBOPT_0x2B
00084a 940e 11bb 	CALL SUBOPT_0x2C
00084c f408      	BRSH _0xAB
                 _0xAA:
00084d c010      	RJMP _0xA9
                 _0xAB:
                 ; 0000 0219             {
                 ; 0000 021A             if ((now_ampl * 0.99 <= gnd_ampl ) && (now_ampl * 1.01 >= gnd_ampl))
00084e 940e 11d6 	CALL SUBOPT_0x2D
000850 940e 11df 	CALL SUBOPT_0x2E
000852 f019      	BREQ PC+4
000853 f010      	BRCS PC+3
000854 940c 0859 	JMP  _0xAD
000856 940e 11f2 	CALL SUBOPT_0x2F
000858 f408      	BRSH _0xAE
                 _0xAD:
000859 c004      	RJMP _0xAC
                 _0xAE:
                 ; 0000 021B                 {
                 ; 0000 021C                 gnd_ampl = now_ampl;
00085a 940e 1206 	CALL SUBOPT_0x30
00085c 940e 120f 	CALL SUBOPT_0x31
                 ; 0000 021D                 gnd_faza = now_faza;
                 ; 0000 021E                 };
                 _0xAC:
                 ; 0000 021F             };
                 _0xA9:
                 ; 0000 0220         temp_ampl = th_cos (now_ampl, now_faza, gnd_ampl, gnd_faza);
00085e 940e 1228 	CALL SUBOPT_0x32
000860 940e 1236 	CALL SUBOPT_0x33
000862 940e 12e1 	CALL SUBOPT_0x3D
                 ; 0000 0221         temp_faza = th_sin (temp_ampl, Y, X, gnd_ampl, gnd_faza);
000864 940e 1113 	CALL SUBOPT_0x17
000866 940e 1250 	CALL SUBOPT_0x35
000868 940e 1255 	CALL SUBOPT_0x36
00086a de3d      	RCALL _th_sin
00086b c039      	RJMP _0x123
                 ; 0000 0222         }
                 ; 0000 0223 
                 ; 0000 0224       else if (mod_rock == 1)
                 _0xA8:
00086c 940e 10e4 	CALL SUBOPT_0x10
00086e f521      	BRNE _0xB0
                 ; 0000 0225         {
                 ; 0000 0226         if ((now_faza <= rock_faza_max + bar_rad + 0.005 ) && (now_faza >= rock_faza_max - bar_rad + 0.005 ))
00086f 940e 125e 	CALL SUBOPT_0x37
000871 f019      	BREQ PC+4
000872 f010      	BRCS PC+3
000873 940c 0878 	JMP  _0xB2
000875 940e 127a 	CALL SUBOPT_0x38
000877 f408      	BRSH _0xB3
                 _0xB2:
000878 c00c      	RJMP _0xB1
                 _0xB3:
                 ; 0000 0227             {
                 ; 0000 0228             if ((now_ampl * 0.95 <= rock_ampl ) && (now_ampl * 1.05 >= rock_ampl))
000879 940e 1296 	CALL SUBOPT_0x39
00087b f019      	BREQ PC+4
00087c f010      	BRCS PC+3
00087d 940c 0882 	JMP  _0xB5
00087f 940e 12aa 	CALL SUBOPT_0x3A
000881 f408      	BRSH _0xB6
                 _0xB5:
000882 c002      	RJMP _0xB4
                 _0xB6:
                 ; 0000 0229                 {
                 ; 0000 022A                 rock_ampl = now_ampl;
000883 940e 12be 	CALL SUBOPT_0x3B
                 ; 0000 022B                 rock_faza = now_faza;
                 ; 0000 022C                 };
                 _0xB4:
                 ; 0000 022D             };
                 _0xB1:
                 ; 0000 022E         temp_ampl = th_cos (now_ampl, now_faza, rock_ampl, rock_faza);
000885 940e 1228 	CALL SUBOPT_0x32
000887 940e 12d8 	CALL SUBOPT_0x3C
000889 940e 12e1 	CALL SUBOPT_0x3D
                 ; 0000 022F         temp_faza = th_sin (temp_ampl, Y, X, rock_ampl, rock_faza);
00088b 940e 10f8 	CALL SUBOPT_0x14
00088d 940e 1250 	CALL SUBOPT_0x35
00088f 940e 12ec 	CALL SUBOPT_0x3E
000891 de16      	RCALL _th_sin
000892 c012      	RJMP _0x123
                 ; 0000 0230         }
                 ; 0000 0231 
                 ; 0000 0232       else
                 _0xB0:
                 ; 0000 0233         {
                 ; 0000 0234         temp_ampl = now_ampl;
000893 940e 1206 	CALL SUBOPT_0x30
000895 93e0 02b8 	STS  _temp_ampl,R30
000897 93f0 02b9 	STS  _temp_ampl+1,R31
000899 9360 02ba 	STS  _temp_ampl+2,R22
00089b 9370 02bb 	STS  _temp_ampl+3,R23
                 ; 0000 0235         temp_faza = now_faza;
00089d 91e0 02ac 	LDS  R30,_now_faza
00089f 91f0 02ad 	LDS  R31,_now_faza+1
0008a1 9160 02ae 	LDS  R22,_now_faza+2
0008a3 9170 02af 	LDS  R23,_now_faza+3
                 _0x123:
0008a5 93e0 02bc 	STS  _temp_faza,R30
0008a7 93f0 02bd 	STS  _temp_faza+1,R31
0008a9 9360 02be 	STS  _temp_faza+2,R22
0008ab 9370 02bf 	STS  _temp_faza+3,R23
                 ; 0000 0236         };
                 ; 0000 0237 
                 ; 0000 0238       if (temp_ampl> 2079 )        viz_ampl=32;
0008ad 940e 12f5 	CALL SUBOPT_0x3F
                +
0008af e0e0     +LDI R30 , LOW ( 0x4501F000 )
0008b0 eff0     +LDI R31 , HIGH ( 0x4501F000 )
0008b1 e061     +LDI R22 , BYTE3 ( 0x4501F000 )
0008b2 e475     +LDI R23 , BYTE4 ( 0x4501F000 )
                 	__GETD1N 0x4501F000
0008b3 940e 1664 	CALL __CMPF12
0008b5 f009      	BREQ PC+2
0008b6 f410      	BRCC PC+3
0008b7 940c 08bc 	JMP  _0xB8
0008b9 e2e0      	LDI  R30,LOW(32)
0008ba 2ede      	MOV  R13,R30
                 ; 0000 0239       else if (temp_ampl> 2016 )   viz_ampl=31;
0008bb c1de      	RJMP _0xB9
                 _0xB8:
0008bc 940e 12f5 	CALL SUBOPT_0x3F
                +
0008be e0e0     +LDI R30 , LOW ( 0x44FC0000 )
0008bf e0f0     +LDI R31 , HIGH ( 0x44FC0000 )
0008c0 ef6c     +LDI R22 , BYTE3 ( 0x44FC0000 )
0008c1 e474     +LDI R23 , BYTE4 ( 0x44FC0000 )
                 	__GETD1N 0x44FC0000
0008c2 940e 1664 	CALL __CMPF12
0008c4 f009      	BREQ PC+2
0008c5 f410      	BRCC PC+3
0008c6 940c 08cb 	JMP  _0xBA
0008c8 e1ef      	LDI  R30,LOW(31)
0008c9 2ede      	MOV  R13,R30
                 ; 0000 023A       else if (temp_ampl> 1953 )   viz_ampl=30;
0008ca c1cf      	RJMP _0xBB
                 _0xBA:
0008cb 940e 12f5 	CALL SUBOPT_0x3F
                +
0008cd e0e0     +LDI R30 , LOW ( 0x44F42000 )
0008ce e2f0     +LDI R31 , HIGH ( 0x44F42000 )
0008cf ef64     +LDI R22 , BYTE3 ( 0x44F42000 )
0008d0 e474     +LDI R23 , BYTE4 ( 0x44F42000 )
                 	__GETD1N 0x44F42000
0008d1 940e 1664 	CALL __CMPF12
0008d3 f009      	BREQ PC+2
0008d4 f410      	BRCC PC+3
0008d5 940c 08da 	JMP  _0xBC
0008d7 e1ee      	LDI  R30,LOW(30)
0008d8 2ede      	MOV  R13,R30
                 ; 0000 023B       else if (temp_ampl> 1890 )   viz_ampl=29;
0008d9 c1c0      	RJMP _0xBD
                 _0xBC:
0008da 940e 12f5 	CALL SUBOPT_0x3F
                +
0008dc e0e0     +LDI R30 , LOW ( 0x44EC4000 )
0008dd e4f0     +LDI R31 , HIGH ( 0x44EC4000 )
0008de ee6c     +LDI R22 , BYTE3 ( 0x44EC4000 )
0008df e474     +LDI R23 , BYTE4 ( 0x44EC4000 )
                 	__GETD1N 0x44EC4000
0008e0 940e 1664 	CALL __CMPF12
0008e2 f009      	BREQ PC+2
0008e3 f410      	BRCC PC+3
0008e4 940c 08e9 	JMP  _0xBE
0008e6 e1ed      	LDI  R30,LOW(29)
0008e7 2ede      	MOV  R13,R30
                 ; 0000 023C       else if (temp_ampl> 1827 )   viz_ampl=28;
0008e8 c1b1      	RJMP _0xBF
                 _0xBE:
0008e9 940e 12f5 	CALL SUBOPT_0x3F
                +
0008eb e0e0     +LDI R30 , LOW ( 0x44E46000 )
0008ec e6f0     +LDI R31 , HIGH ( 0x44E46000 )
0008ed ee64     +LDI R22 , BYTE3 ( 0x44E46000 )
0008ee e474     +LDI R23 , BYTE4 ( 0x44E46000 )
                 	__GETD1N 0x44E46000
0008ef 940e 1664 	CALL __CMPF12
0008f1 f009      	BREQ PC+2
0008f2 f410      	BRCC PC+3
0008f3 940c 08f8 	JMP  _0xC0
0008f5 e1ec      	LDI  R30,LOW(28)
0008f6 2ede      	MOV  R13,R30
                 ; 0000 023D       else if (temp_ampl> 1764 )   viz_ampl=27;
0008f7 c1a2      	RJMP _0xC1
                 _0xC0:
0008f8 940e 12f5 	CALL SUBOPT_0x3F
                +
0008fa e0e0     +LDI R30 , LOW ( 0x44DC8000 )
0008fb e8f0     +LDI R31 , HIGH ( 0x44DC8000 )
0008fc ed6c     +LDI R22 , BYTE3 ( 0x44DC8000 )
0008fd e474     +LDI R23 , BYTE4 ( 0x44DC8000 )
                 	__GETD1N 0x44DC8000
0008fe 940e 1664 	CALL __CMPF12
000900 f009      	BREQ PC+2
000901 f410      	BRCC PC+3
000902 940c 0907 	JMP  _0xC2
000904 e1eb      	LDI  R30,LOW(27)
000905 2ede      	MOV  R13,R30
                 ; 0000 023E       else if (temp_ampl> 1701 )   viz_ampl=26;
000906 c193      	RJMP _0xC3
                 _0xC2:
000907 940e 12f5 	CALL SUBOPT_0x3F
                +
000909 e0e0     +LDI R30 , LOW ( 0x44D4A000 )
00090a eaf0     +LDI R31 , HIGH ( 0x44D4A000 )
00090b ed64     +LDI R22 , BYTE3 ( 0x44D4A000 )
00090c e474     +LDI R23 , BYTE4 ( 0x44D4A000 )
                 	__GETD1N 0x44D4A000
00090d 940e 1664 	CALL __CMPF12
00090f f009      	BREQ PC+2
000910 f410      	BRCC PC+3
000911 940c 0916 	JMP  _0xC4
000913 e1ea      	LDI  R30,LOW(26)
000914 2ede      	MOV  R13,R30
                 ; 0000 023F       else if (temp_ampl> 1638 )   viz_ampl=25;
000915 c184      	RJMP _0xC5
                 _0xC4:
000916 940e 12f5 	CALL SUBOPT_0x3F
                +
000918 e0e0     +LDI R30 , LOW ( 0x44CCC000 )
000919 ecf0     +LDI R31 , HIGH ( 0x44CCC000 )
00091a ec6c     +LDI R22 , BYTE3 ( 0x44CCC000 )
00091b e474     +LDI R23 , BYTE4 ( 0x44CCC000 )
                 	__GETD1N 0x44CCC000
00091c 940e 1664 	CALL __CMPF12
00091e f009      	BREQ PC+2
00091f f410      	BRCC PC+3
000920 940c 0925 	JMP  _0xC6
000922 e1e9      	LDI  R30,LOW(25)
000923 2ede      	MOV  R13,R30
                 ; 0000 0240       else if (temp_ampl> 1575 )   viz_ampl=24;
000924 c175      	RJMP _0xC7
                 _0xC6:
000925 940e 12f5 	CALL SUBOPT_0x3F
                +
000927 e0e0     +LDI R30 , LOW ( 0x44C4E000 )
000928 eef0     +LDI R31 , HIGH ( 0x44C4E000 )
000929 ec64     +LDI R22 , BYTE3 ( 0x44C4E000 )
00092a e474     +LDI R23 , BYTE4 ( 0x44C4E000 )
                 	__GETD1N 0x44C4E000
00092b 940e 1664 	CALL __CMPF12
00092d f009      	BREQ PC+2
00092e f410      	BRCC PC+3
00092f 940c 0934 	JMP  _0xC8
000931 e1e8      	LDI  R30,LOW(24)
000932 2ede      	MOV  R13,R30
                 ; 0000 0241       else if (temp_ampl> 1512 )   viz_ampl=23;
000933 c166      	RJMP _0xC9
                 _0xC8:
000934 940e 12f5 	CALL SUBOPT_0x3F
                +
000936 e0e0     +LDI R30 , LOW ( 0x44BD0000 )
000937 e0f0     +LDI R31 , HIGH ( 0x44BD0000 )
000938 eb6d     +LDI R22 , BYTE3 ( 0x44BD0000 )
000939 e474     +LDI R23 , BYTE4 ( 0x44BD0000 )
                 	__GETD1N 0x44BD0000
00093a 940e 1664 	CALL __CMPF12
00093c f009      	BREQ PC+2
00093d f410      	BRCC PC+3
00093e 940c 0943 	JMP  _0xCA
000940 e1e7      	LDI  R30,LOW(23)
000941 2ede      	MOV  R13,R30
                 ; 0000 0242       else if (temp_ampl> 1449 )   viz_ampl=22;
000942 c157      	RJMP _0xCB
                 _0xCA:
000943 940e 12f5 	CALL SUBOPT_0x3F
                +
000945 e0e0     +LDI R30 , LOW ( 0x44B52000 )
000946 e2f0     +LDI R31 , HIGH ( 0x44B52000 )
000947 eb65     +LDI R22 , BYTE3 ( 0x44B52000 )
000948 e474     +LDI R23 , BYTE4 ( 0x44B52000 )
                 	__GETD1N 0x44B52000
000949 940e 1664 	CALL __CMPF12
00094b f009      	BREQ PC+2
00094c f410      	BRCC PC+3
00094d 940c 0952 	JMP  _0xCC
00094f e1e6      	LDI  R30,LOW(22)
000950 2ede      	MOV  R13,R30
                 ; 0000 0243       else if (temp_ampl> 1386 )   viz_ampl=21;
000951 c148      	RJMP _0xCD
                 _0xCC:
000952 940e 12f5 	CALL SUBOPT_0x3F
                +
000954 e0e0     +LDI R30 , LOW ( 0x44AD4000 )
000955 e4f0     +LDI R31 , HIGH ( 0x44AD4000 )
000956 ea6d     +LDI R22 , BYTE3 ( 0x44AD4000 )
000957 e474     +LDI R23 , BYTE4 ( 0x44AD4000 )
                 	__GETD1N 0x44AD4000
000958 940e 1664 	CALL __CMPF12
00095a f009      	BREQ PC+2
00095b f410      	BRCC PC+3
00095c 940c 0961 	JMP  _0xCE
00095e e1e5      	LDI  R30,LOW(21)
00095f 2ede      	MOV  R13,R30
                 ; 0000 0244       else if (temp_ampl> 1323 )   viz_ampl=20;
000960 c139      	RJMP _0xCF
                 _0xCE:
000961 940e 12f5 	CALL SUBOPT_0x3F
                +
000963 e0e0     +LDI R30 , LOW ( 0x44A56000 )
000964 e6f0     +LDI R31 , HIGH ( 0x44A56000 )
000965 ea65     +LDI R22 , BYTE3 ( 0x44A56000 )
000966 e474     +LDI R23 , BYTE4 ( 0x44A56000 )
                 	__GETD1N 0x44A56000
000967 940e 1664 	CALL __CMPF12
000969 f009      	BREQ PC+2
00096a f410      	BRCC PC+3
00096b 940c 0970 	JMP  _0xD0
00096d e1e4      	LDI  R30,LOW(20)
00096e 2ede      	MOV  R13,R30
                 ; 0000 0245       else if (temp_ampl> 1260 )   viz_ampl=19;
00096f c12a      	RJMP _0xD1
                 _0xD0:
000970 940e 12f5 	CALL SUBOPT_0x3F
                +
000972 e0e0     +LDI R30 , LOW ( 0x449D8000 )
000973 e8f0     +LDI R31 , HIGH ( 0x449D8000 )
000974 e96d     +LDI R22 , BYTE3 ( 0x449D8000 )
000975 e474     +LDI R23 , BYTE4 ( 0x449D8000 )
                 	__GETD1N 0x449D8000
000976 940e 1664 	CALL __CMPF12
000978 f009      	BREQ PC+2
000979 f410      	BRCC PC+3
00097a 940c 097f 	JMP  _0xD2
00097c e1e3      	LDI  R30,LOW(19)
00097d 2ede      	MOV  R13,R30
                 ; 0000 0246       else if (temp_ampl> 1197 )   viz_ampl=18;
00097e c11b      	RJMP _0xD3
                 _0xD2:
00097f 940e 12f5 	CALL SUBOPT_0x3F
                +
000981 e0e0     +LDI R30 , LOW ( 0x4495A000 )
000982 eaf0     +LDI R31 , HIGH ( 0x4495A000 )
000983 e965     +LDI R22 , BYTE3 ( 0x4495A000 )
000984 e474     +LDI R23 , BYTE4 ( 0x4495A000 )
                 	__GETD1N 0x4495A000
000985 940e 1664 	CALL __CMPF12
000987 f009      	BREQ PC+2
000988 f410      	BRCC PC+3
000989 940c 098e 	JMP  _0xD4
00098b e1e2      	LDI  R30,LOW(18)
00098c 2ede      	MOV  R13,R30
                 ; 0000 0247       else if (temp_ampl> 1134 )   viz_ampl=17;
00098d c10c      	RJMP _0xD5
                 _0xD4:
00098e 940e 12f5 	CALL SUBOPT_0x3F
                +
000990 e0e0     +LDI R30 , LOW ( 0x448DC000 )
000991 ecf0     +LDI R31 , HIGH ( 0x448DC000 )
000992 e86d     +LDI R22 , BYTE3 ( 0x448DC000 )
000993 e474     +LDI R23 , BYTE4 ( 0x448DC000 )
                 	__GETD1N 0x448DC000
000994 940e 1664 	CALL __CMPF12
000996 f009      	BREQ PC+2
000997 f410      	BRCC PC+3
000998 940c 099d 	JMP  _0xD6
00099a e1e1      	LDI  R30,LOW(17)
00099b 2ede      	MOV  R13,R30
                 ; 0000 0248       else if (temp_ampl> 1071 )   viz_ampl=16;
00099c c0fd      	RJMP _0xD7
                 _0xD6:
00099d 940e 12f5 	CALL SUBOPT_0x3F
                +
00099f e0e0     +LDI R30 , LOW ( 0x4485E000 )
0009a0 eef0     +LDI R31 , HIGH ( 0x4485E000 )
0009a1 e865     +LDI R22 , BYTE3 ( 0x4485E000 )
0009a2 e474     +LDI R23 , BYTE4 ( 0x4485E000 )
                 	__GETD1N 0x4485E000
0009a3 940e 1664 	CALL __CMPF12
0009a5 f009      	BREQ PC+2
0009a6 f410      	BRCC PC+3
0009a7 940c 09ac 	JMP  _0xD8
0009a9 e1e0      	LDI  R30,LOW(16)
0009aa 2ede      	MOV  R13,R30
                 ; 0000 0249       else if (temp_ampl> 1008 )   viz_ampl=15;
0009ab c0ee      	RJMP _0xD9
                 _0xD8:
0009ac 940e 12f5 	CALL SUBOPT_0x3F
                +
0009ae e0e0     +LDI R30 , LOW ( 0x447C0000 )
0009af e0f0     +LDI R31 , HIGH ( 0x447C0000 )
0009b0 e76c     +LDI R22 , BYTE3 ( 0x447C0000 )
0009b1 e474     +LDI R23 , BYTE4 ( 0x447C0000 )
                 	__GETD1N 0x447C0000
0009b2 940e 1664 	CALL __CMPF12
0009b4 f009      	BREQ PC+2
0009b5 f410      	BRCC PC+3
0009b6 940c 09bb 	JMP  _0xDA
0009b8 e0ef      	LDI  R30,LOW(15)
0009b9 2ede      	MOV  R13,R30
                 ; 0000 024A       else if (temp_ampl> 945  )   viz_ampl=14;
0009ba c0df      	RJMP _0xDB
                 _0xDA:
0009bb 940e 12f5 	CALL SUBOPT_0x3F
                +
0009bd e0e0     +LDI R30 , LOW ( 0x446C4000 )
0009be e4f0     +LDI R31 , HIGH ( 0x446C4000 )
0009bf e66c     +LDI R22 , BYTE3 ( 0x446C4000 )
0009c0 e474     +LDI R23 , BYTE4 ( 0x446C4000 )
                 	__GETD1N 0x446C4000
0009c1 940e 1664 	CALL __CMPF12
0009c3 f009      	BREQ PC+2
0009c4 f410      	BRCC PC+3
0009c5 940c 09ca 	JMP  _0xDC
0009c7 e0ee      	LDI  R30,LOW(14)
0009c8 2ede      	MOV  R13,R30
                 ; 0000 024B       else if (temp_ampl> 882  )   viz_ampl=13;
0009c9 c0d0      	RJMP _0xDD
                 _0xDC:
0009ca 940e 12f5 	CALL SUBOPT_0x3F
                +
0009cc e0e0     +LDI R30 , LOW ( 0x445C8000 )
0009cd e8f0     +LDI R31 , HIGH ( 0x445C8000 )
0009ce e56c     +LDI R22 , BYTE3 ( 0x445C8000 )
0009cf e474     +LDI R23 , BYTE4 ( 0x445C8000 )
                 	__GETD1N 0x445C8000
0009d0 940e 1664 	CALL __CMPF12
0009d2 f009      	BREQ PC+2
0009d3 f410      	BRCC PC+3
0009d4 940c 09d9 	JMP  _0xDE
0009d6 e0ed      	LDI  R30,LOW(13)
0009d7 2ede      	MOV  R13,R30
                 ; 0000 024C       else if (temp_ampl> 819  )   viz_ampl=12;
0009d8 c0c1      	RJMP _0xDF
                 _0xDE:
0009d9 940e 12f5 	CALL SUBOPT_0x3F
                +
0009db e0e0     +LDI R30 , LOW ( 0x444CC000 )
0009dc ecf0     +LDI R31 , HIGH ( 0x444CC000 )
0009dd e46c     +LDI R22 , BYTE3 ( 0x444CC000 )
0009de e474     +LDI R23 , BYTE4 ( 0x444CC000 )
                 	__GETD1N 0x444CC000
0009df 940e 1664 	CALL __CMPF12
0009e1 f009      	BREQ PC+2
0009e2 f410      	BRCC PC+3
0009e3 940c 09e8 	JMP  _0xE0
0009e5 e0ec      	LDI  R30,LOW(12)
0009e6 2ede      	MOV  R13,R30
                 ; 0000 024D       else if (temp_ampl> 756  )   viz_ampl=11;
0009e7 c0b2      	RJMP _0xE1
                 _0xE0:
0009e8 940e 12f5 	CALL SUBOPT_0x3F
                +
0009ea e0e0     +LDI R30 , LOW ( 0x443D0000 )
0009eb e0f0     +LDI R31 , HIGH ( 0x443D0000 )
0009ec e36d     +LDI R22 , BYTE3 ( 0x443D0000 )
0009ed e474     +LDI R23 , BYTE4 ( 0x443D0000 )
                 	__GETD1N 0x443D0000
0009ee 940e 1664 	CALL __CMPF12
0009f0 f009      	BREQ PC+2
0009f1 f410      	BRCC PC+3
0009f2 940c 09f7 	JMP  _0xE2
0009f4 e0eb      	LDI  R30,LOW(11)
0009f5 2ede      	MOV  R13,R30
                 ; 0000 024E       else if (temp_ampl> 693  )   viz_ampl=10;
0009f6 c0a3      	RJMP _0xE3
                 _0xE2:
0009f7 940e 12f5 	CALL SUBOPT_0x3F
                +
0009f9 e0e0     +LDI R30 , LOW ( 0x442D4000 )
0009fa e4f0     +LDI R31 , HIGH ( 0x442D4000 )
0009fb e26d     +LDI R22 , BYTE3 ( 0x442D4000 )
0009fc e474     +LDI R23 , BYTE4 ( 0x442D4000 )
                 	__GETD1N 0x442D4000
0009fd 940e 1664 	CALL __CMPF12
0009ff f009      	BREQ PC+2
000a00 f410      	BRCC PC+3
000a01 940c 0a06 	JMP  _0xE4
000a03 e0ea      	LDI  R30,LOW(10)
000a04 2ede      	MOV  R13,R30
                 ; 0000 024F       else if (temp_ampl> 630  )   viz_ampl=9;
000a05 c094      	RJMP _0xE5
                 _0xE4:
000a06 940e 12f5 	CALL SUBOPT_0x3F
                +
000a08 e0e0     +LDI R30 , LOW ( 0x441D8000 )
000a09 e8f0     +LDI R31 , HIGH ( 0x441D8000 )
000a0a e16d     +LDI R22 , BYTE3 ( 0x441D8000 )
000a0b e474     +LDI R23 , BYTE4 ( 0x441D8000 )
                 	__GETD1N 0x441D8000
000a0c 940e 1664 	CALL __CMPF12
000a0e f009      	BREQ PC+2
000a0f f410      	BRCC PC+3
000a10 940c 0a15 	JMP  _0xE6
000a12 e0e9      	LDI  R30,LOW(9)
000a13 2ede      	MOV  R13,R30
                 ; 0000 0250       else if (temp_ampl> 567  )   viz_ampl=8;
000a14 c085      	RJMP _0xE7
                 _0xE6:
000a15 940e 12f5 	CALL SUBOPT_0x3F
                +
000a17 e0e0     +LDI R30 , LOW ( 0x440DC000 )
000a18 ecf0     +LDI R31 , HIGH ( 0x440DC000 )
000a19 e06d     +LDI R22 , BYTE3 ( 0x440DC000 )
000a1a e474     +LDI R23 , BYTE4 ( 0x440DC000 )
                 	__GETD1N 0x440DC000
000a1b 940e 1664 	CALL __CMPF12
000a1d f009      	BREQ PC+2
000a1e f410      	BRCC PC+3
000a1f 940c 0a24 	JMP  _0xE8
000a21 e0e8      	LDI  R30,LOW(8)
000a22 2ede      	MOV  R13,R30
                 ; 0000 0251       else if (temp_ampl> 504  )   viz_ampl=7;
000a23 c076      	RJMP _0xE9
                 _0xE8:
000a24 940e 12f5 	CALL SUBOPT_0x3F
                +
000a26 e0e0     +LDI R30 , LOW ( 0x43FC0000 )
000a27 e0f0     +LDI R31 , HIGH ( 0x43FC0000 )
000a28 ef6c     +LDI R22 , BYTE3 ( 0x43FC0000 )
000a29 e473     +LDI R23 , BYTE4 ( 0x43FC0000 )
                 	__GETD1N 0x43FC0000
000a2a 940e 1664 	CALL __CMPF12
000a2c f009      	BREQ PC+2
000a2d f410      	BRCC PC+3
000a2e 940c 0a33 	JMP  _0xEA
000a30 e0e7      	LDI  R30,LOW(7)
000a31 2ede      	MOV  R13,R30
                 ; 0000 0252       else if (temp_ampl> 441  )   viz_ampl=6;
000a32 c067      	RJMP _0xEB
                 _0xEA:
000a33 940e 12f5 	CALL SUBOPT_0x3F
                +
000a35 e0e0     +LDI R30 , LOW ( 0x43DC8000 )
000a36 e8f0     +LDI R31 , HIGH ( 0x43DC8000 )
000a37 ed6c     +LDI R22 , BYTE3 ( 0x43DC8000 )
000a38 e473     +LDI R23 , BYTE4 ( 0x43DC8000 )
                 	__GETD1N 0x43DC8000
000a39 940e 1664 	CALL __CMPF12
000a3b f009      	BREQ PC+2
000a3c f410      	BRCC PC+3
000a3d 940c 0a42 	JMP  _0xEC
000a3f e0e6      	LDI  R30,LOW(6)
000a40 2ede      	MOV  R13,R30
                 ; 0000 0253       else if (temp_ampl> 378  )   viz_ampl=5;
000a41 c058      	RJMP _0xED
                 _0xEC:
000a42 940e 12f5 	CALL SUBOPT_0x3F
                +
000a44 e0e0     +LDI R30 , LOW ( 0x43BD0000 )
000a45 e0f0     +LDI R31 , HIGH ( 0x43BD0000 )
000a46 eb6d     +LDI R22 , BYTE3 ( 0x43BD0000 )
000a47 e473     +LDI R23 , BYTE4 ( 0x43BD0000 )
                 	__GETD1N 0x43BD0000
000a48 940e 1664 	CALL __CMPF12
000a4a f009      	BREQ PC+2
000a4b f410      	BRCC PC+3
000a4c 940c 0a51 	JMP  _0xEE
000a4e e0e5      	LDI  R30,LOW(5)
000a4f 2ede      	MOV  R13,R30
                 ; 0000 0254       else if (temp_ampl> 315  )   viz_ampl=4;
000a50 c049      	RJMP _0xEF
                 _0xEE:
000a51 940e 12f5 	CALL SUBOPT_0x3F
                +
000a53 e0e0     +LDI R30 , LOW ( 0x439D8000 )
000a54 e8f0     +LDI R31 , HIGH ( 0x439D8000 )
000a55 e96d     +LDI R22 , BYTE3 ( 0x439D8000 )
000a56 e473     +LDI R23 , BYTE4 ( 0x439D8000 )
                 	__GETD1N 0x439D8000
000a57 940e 1664 	CALL __CMPF12
000a59 f009      	BREQ PC+2
000a5a f410      	BRCC PC+3
000a5b 940c 0a60 	JMP  _0xF0
000a5d e0e4      	LDI  R30,LOW(4)
000a5e 2ede      	MOV  R13,R30
                 ; 0000 0255       else if (temp_ampl> 252  )   viz_ampl=3;
000a5f c03a      	RJMP _0xF1
                 _0xF0:
000a60 940e 12f5 	CALL SUBOPT_0x3F
                +
000a62 e0e0     +LDI R30 , LOW ( 0x437C0000 )
000a63 e0f0     +LDI R31 , HIGH ( 0x437C0000 )
000a64 e76c     +LDI R22 , BYTE3 ( 0x437C0000 )
000a65 e473     +LDI R23 , BYTE4 ( 0x437C0000 )
                 	__GETD1N 0x437C0000
000a66 940e 1664 	CALL __CMPF12
000a68 f009      	BREQ PC+2
000a69 f410      	BRCC PC+3
000a6a 940c 0a6f 	JMP  _0xF2
000a6c e0e3      	LDI  R30,LOW(3)
000a6d 2ede      	MOV  R13,R30
                 ; 0000 0256       else if (temp_ampl> 189  )   viz_ampl=2;
000a6e c02b      	RJMP _0xF3
                 _0xF2:
000a6f 940e 12f5 	CALL SUBOPT_0x3F
                +
000a71 e0e0     +LDI R30 , LOW ( 0x433D0000 )
000a72 e0f0     +LDI R31 , HIGH ( 0x433D0000 )
000a73 e36d     +LDI R22 , BYTE3 ( 0x433D0000 )
000a74 e473     +LDI R23 , BYTE4 ( 0x433D0000 )
                 	__GETD1N 0x433D0000
000a75 940e 1664 	CALL __CMPF12
000a77 f009      	BREQ PC+2
000a78 f410      	BRCC PC+3
000a79 940c 0a7e 	JMP  _0xF4
000a7b e0e2      	LDI  R30,LOW(2)
000a7c 2ede      	MOV  R13,R30
                 ; 0000 0257       else if (temp_ampl> 126  )   viz_ampl=1;
000a7d c01c      	RJMP _0xF5
                 _0xF4:
000a7e 940e 12f5 	CALL SUBOPT_0x3F
                +
000a80 e0e0     +LDI R30 , LOW ( 0x42FC0000 )
000a81 e0f0     +LDI R31 , HIGH ( 0x42FC0000 )
000a82 ef6c     +LDI R22 , BYTE3 ( 0x42FC0000 )
000a83 e472     +LDI R23 , BYTE4 ( 0x42FC0000 )
                 	__GETD1N 0x42FC0000
000a84 940e 1664 	CALL __CMPF12
000a86 f009      	BREQ PC+2
000a87 f410      	BRCC PC+3
000a88 940c 0a8d 	JMP  _0xF6
000a8a e0e1      	LDI  R30,LOW(1)
000a8b 2ede      	MOV  R13,R30
                 ; 0000 0258       else if (temp_ampl> 63   )   viz_ampl=0;
000a8c c00d      	RJMP _0xF7
                 _0xF6:
000a8d 940e 12f5 	CALL SUBOPT_0x3F
                +
000a8f e0e0     +LDI R30 , LOW ( 0x427C0000 )
000a90 e0f0     +LDI R31 , HIGH ( 0x427C0000 )
000a91 e76c     +LDI R22 , BYTE3 ( 0x427C0000 )
000a92 e472     +LDI R23 , BYTE4 ( 0x427C0000 )
                 	__GETD1N 0x427C0000
000a93 940e 1664 	CALL __CMPF12
000a95 f009      	BREQ PC+2
000a96 f410      	BRCC PC+3
000a97 940c 0a9a 	JMP  _0xF8
000a99 24dd      	CLR  R13
                 ; 0000 0259 
                 ; 0000 025A       if (temp_faza> 3.14) viz_faza=0;
                 _0xF8:
                 _0xF7:
                 _0xF5:
                 _0xF3:
                 _0xF1:
                 _0xEF:
                 _0xED:
                 _0xEB:
                 _0xE9:
                 _0xE7:
                 _0xE5:
                 _0xE3:
                 _0xE1:
                 _0xDF:
                 _0xDD:
                 _0xDB:
                 _0xD9:
                 _0xD7:
                 _0xD5:
                 _0xD3:
                 _0xD1:
                 _0xCF:
                 _0xCD:
                 _0xCB:
                 _0xC9:
                 _0xC7:
                 _0xC5:
                 _0xC3:
                 _0xC1:
                 _0xBF:
                 _0xBD:
                 _0xBB:
                 _0xB9:
000a9a 940e 12fe 	CALL SUBOPT_0x40
                +
000a9c ece3     +LDI R30 , LOW ( 0x4048F5C3 )
000a9d eff5     +LDI R31 , HIGH ( 0x4048F5C3 )
000a9e e468     +LDI R22 , BYTE3 ( 0x4048F5C3 )
000a9f e470     +LDI R23 , BYTE4 ( 0x4048F5C3 )
                 	__GETD1N 0x4048F5C3
000aa0 940e 1664 	CALL __CMPF12
000aa2 f009      	BREQ PC+2
000aa3 f410      	BRCC PC+3
000aa4 940c 0aa8 	JMP  _0xF9
000aa6 24cc      	CLR  R12
                 ; 0000 025B       else if (temp_faza> 2.944) viz_faza=8;
000aa7 c0d9      	RJMP _0xFA
                 _0xF9:
000aa8 940e 12fe 	CALL SUBOPT_0x40
                +
000aaa e7ef     +LDI R30 , LOW ( 0x403C6A7F )
000aab e6fa     +LDI R31 , HIGH ( 0x403C6A7F )
000aac e36c     +LDI R22 , BYTE3 ( 0x403C6A7F )
000aad e470     +LDI R23 , BYTE4 ( 0x403C6A7F )
                 	__GETD1N 0x403C6A7F
000aae 940e 1664 	CALL __CMPF12
000ab0 f009      	BREQ PC+2
000ab1 f410      	BRCC PC+3
000ab2 940c 0ab6 	JMP  _0xFB
000ab4 e0e8      	LDI  R30,LOW(8)
000ab5 c0ca      	RJMP _0x124
                 ; 0000 025C       else if (temp_faza> 2.748) viz_faza=7;
                 _0xFB:
000ab6 940e 12fe 	CALL SUBOPT_0x40
                +
000ab8 e3eb     +LDI R30 , LOW ( 0x402FDF3B )
000ab9 edff     +LDI R31 , HIGH ( 0x402FDF3B )
000aba e26f     +LDI R22 , BYTE3 ( 0x402FDF3B )
000abb e470     +LDI R23 , BYTE4 ( 0x402FDF3B )
                 	__GETD1N 0x402FDF3B
000abc 940e 1664 	CALL __CMPF12
000abe f009      	BREQ PC+2
000abf f410      	BRCC PC+3
000ac0 940c 0ac4 	JMP  _0xFD
000ac2 e0e7      	LDI  R30,LOW(7)
000ac3 c0bc      	RJMP _0x124
                 ; 0000 025D       else if (temp_faza> 2.552) viz_faza=6;
                 _0xFD:
000ac4 940e 12fe 	CALL SUBOPT_0x40
                +
000ac6 efe8     +LDI R30 , LOW ( 0x402353F8 )
000ac7 e5f3     +LDI R31 , HIGH ( 0x402353F8 )
000ac8 e263     +LDI R22 , BYTE3 ( 0x402353F8 )
000ac9 e470     +LDI R23 , BYTE4 ( 0x402353F8 )
                 	__GETD1N 0x402353F8
000aca 940e 1664 	CALL __CMPF12
000acc f009      	BREQ PC+2
000acd f410      	BRCC PC+3
000ace 940c 0ad2 	JMP  _0xFF
000ad0 e0e6      	LDI  R30,LOW(6)
000ad1 c0ae      	RJMP _0x124
                 ; 0000 025E       else if (temp_faza> 2.356) viz_faza=5;
                 _0xFF:
000ad2 940e 12fe 	CALL SUBOPT_0x40
                +
000ad4 ebe4     +LDI R30 , LOW ( 0x4016C8B4 )
000ad5 ecf8     +LDI R31 , HIGH ( 0x4016C8B4 )
000ad6 e166     +LDI R22 , BYTE3 ( 0x4016C8B4 )
000ad7 e470     +LDI R23 , BYTE4 ( 0x4016C8B4 )
                 	__GETD1N 0x4016C8B4
000ad8 940e 1664 	CALL __CMPF12
000ada f009      	BREQ PC+2
000adb f410      	BRCC PC+3
000adc 940c 0ae0 	JMP  _0x101
000ade e0e5      	LDI  R30,LOW(5)
000adf c0a0      	RJMP _0x124
                 ; 0000 025F       else if (temp_faza> 2.160) viz_faza=4;
                 _0x101:
000ae0 940e 12fe 	CALL SUBOPT_0x40
                +
000ae2 e7e1     +LDI R30 , LOW ( 0x400A3D71 )
000ae3 e3fd     +LDI R31 , HIGH ( 0x400A3D71 )
000ae4 e06a     +LDI R22 , BYTE3 ( 0x400A3D71 )
000ae5 e470     +LDI R23 , BYTE4 ( 0x400A3D71 )
                 	__GETD1N 0x400A3D71
000ae6 940e 1664 	CALL __CMPF12
000ae8 f009      	BREQ PC+2
000ae9 f410      	BRCC PC+3
000aea 940c 0aee 	JMP  _0x103
000aec e0e4      	LDI  R30,LOW(4)
000aed c092      	RJMP _0x124
                 ; 0000 0260       else if (temp_faza> 1.964) viz_faza=3;
                 _0x103:
000aee 940e 12fe 	CALL SUBOPT_0x40
                +
000af0 e5ea     +LDI R30 , LOW ( 0x3FFB645A )
000af1 e6f4     +LDI R31 , HIGH ( 0x3FFB645A )
000af2 ef6b     +LDI R22 , BYTE3 ( 0x3FFB645A )
000af3 e37f     +LDI R23 , BYTE4 ( 0x3FFB645A )
                 	__GETD1N 0x3FFB645A
000af4 940e 1664 	CALL __CMPF12
000af6 f009      	BREQ PC+2
000af7 f410      	BRCC PC+3
000af8 940c 0afc 	JMP  _0x105
000afa e0e3      	LDI  R30,LOW(3)
000afb c084      	RJMP _0x124
                 ; 0000 0261       else if (temp_faza> 1.768) viz_faza=2;
                 _0x105:
000afc 940e 12fe 	CALL SUBOPT_0x40
                +
000afe ede3     +LDI R30 , LOW ( 0x3FE24DD3 )
000aff e4fd     +LDI R31 , HIGH ( 0x3FE24DD3 )
000b00 ee62     +LDI R22 , BYTE3 ( 0x3FE24DD3 )
000b01 e37f     +LDI R23 , BYTE4 ( 0x3FE24DD3 )
                 	__GETD1N 0x3FE24DD3
000b02 940e 1664 	CALL __CMPF12
000b04 f009      	BREQ PC+2
000b05 f410      	BRCC PC+3
000b06 940c 0b0a 	JMP  _0x107
000b08 e0e2      	LDI  R30,LOW(2)
000b09 c076      	RJMP _0x124
                 ; 0000 0262       else if (temp_faza> 1.572) viz_faza=1;
                 _0x107:
000b0a 940e 12fe 	CALL SUBOPT_0x40
                +
000b0c e4ec     +LDI R30 , LOW ( 0x3FC9374C )
000b0d e3f7     +LDI R31 , HIGH ( 0x3FC9374C )
000b0e ec69     +LDI R22 , BYTE3 ( 0x3FC9374C )
000b0f e37f     +LDI R23 , BYTE4 ( 0x3FC9374C )
                 	__GETD1N 0x3FC9374C
000b10 940e 1664 	CALL __CMPF12
000b12 f009      	BREQ PC+2
000b13 f410      	BRCC PC+3
000b14 940c 0b18 	JMP  _0x109
000b16 e0e1      	LDI  R30,LOW(1)
000b17 c068      	RJMP _0x124
                 ; 0000 0263 
                 ; 0000 0264       else if (temp_faza> 1.376) viz_faza=9;
                 _0x109:
000b18 940e 12fe 	CALL SUBOPT_0x40
                +
000b1a ece5     +LDI R30 , LOW ( 0x3FB020C5 )
000b1b e2f0     +LDI R31 , HIGH ( 0x3FB020C5 )
000b1c eb60     +LDI R22 , BYTE3 ( 0x3FB020C5 )
000b1d e37f     +LDI R23 , BYTE4 ( 0x3FB020C5 )
                 	__GETD1N 0x3FB020C5
000b1e 940e 1664 	CALL __CMPF12
000b20 f009      	BREQ PC+2
000b21 f410      	BRCC PC+3
000b22 940c 0b26 	JMP  _0x10B
000b24 e0e9      	LDI  R30,LOW(9)
000b25 c05a      	RJMP _0x124
                 ; 0000 0265       else if (temp_faza> 1.180) viz_faza=10;
                 _0x10B:
000b26 940e 12fe 	CALL SUBOPT_0x40
                +
000b28 e3ed     +LDI R30 , LOW ( 0x3F970A3D )
000b29 e0fa     +LDI R31 , HIGH ( 0x3F970A3D )
000b2a e967     +LDI R22 , BYTE3 ( 0x3F970A3D )
000b2b e37f     +LDI R23 , BYTE4 ( 0x3F970A3D )
                 	__GETD1N 0x3F970A3D
000b2c 940e 1664 	CALL __CMPF12
000b2e f009      	BREQ PC+2
000b2f f410      	BRCC PC+3
000b30 940c 0b34 	JMP  _0x10D
000b32 e0ea      	LDI  R30,LOW(10)
000b33 c04c      	RJMP _0x124
                 ; 0000 0266       else if (temp_faza> 0.984) viz_faza=11;
                 _0x10D:
000b34 940e 12fe 	CALL SUBOPT_0x40
                +
000b36 e6ed     +LDI R30 , LOW ( 0x3F7BE76D )
000b37 eef7     +LDI R31 , HIGH ( 0x3F7BE76D )
000b38 e76b     +LDI R22 , BYTE3 ( 0x3F7BE76D )
000b39 e37f     +LDI R23 , BYTE4 ( 0x3F7BE76D )
                 	__GETD1N 0x3F7BE76D
000b3a 940e 1664 	CALL __CMPF12
000b3c f009      	BREQ PC+2
000b3d f410      	BRCC PC+3
000b3e 940c 0b42 	JMP  _0x10F
000b40 e0eb      	LDI  R30,LOW(11)
000b41 c03e      	RJMP _0x124
                 ; 0000 0267       else if (temp_faza> 0.788) viz_faza=12;
                 _0x10F:
000b42 940e 12fe 	CALL SUBOPT_0x40
                +
000b44 e5ee     +LDI R30 , LOW ( 0x3F49BA5E )
000b45 ebfa     +LDI R31 , HIGH ( 0x3F49BA5E )
000b46 e469     +LDI R22 , BYTE3 ( 0x3F49BA5E )
000b47 e37f     +LDI R23 , BYTE4 ( 0x3F49BA5E )
                 	__GETD1N 0x3F49BA5E
000b48 940e 1664 	CALL __CMPF12
000b4a f009      	BREQ PC+2
000b4b f410      	BRCC PC+3
000b4c 940c 0b50 	JMP  _0x111
000b4e e0ec      	LDI  R30,LOW(12)
000b4f c030      	RJMP _0x124
                 ; 0000 0268       else if (temp_faza> 0.592) viz_faza=13;
                 _0x111:
000b50 940e 12fe 	CALL SUBOPT_0x40
                +
000b52 e5e0     +LDI R30 , LOW ( 0x3F178D50 )
000b53 e8fd     +LDI R31 , HIGH ( 0x3F178D50 )
000b54 e167     +LDI R22 , BYTE3 ( 0x3F178D50 )
000b55 e37f     +LDI R23 , BYTE4 ( 0x3F178D50 )
                 	__GETD1N 0x3F178D50
000b56 940e 1664 	CALL __CMPF12
000b58 f009      	BREQ PC+2
000b59 f410      	BRCC PC+3
000b5a 940c 0b5e 	JMP  _0x113
000b5c e0ed      	LDI  R30,LOW(13)
000b5d c022      	RJMP _0x124
                 ; 0000 0269       else if (temp_faza> 0.396) viz_faza=14;
                 _0x113:
000b5e 940e 12fe 	CALL SUBOPT_0x40
                +
000b60 e8e3     +LDI R30 , LOW ( 0x3ECAC083 )
000b61 ecf0     +LDI R31 , HIGH ( 0x3ECAC083 )
000b62 ec6a     +LDI R22 , BYTE3 ( 0x3ECAC083 )
000b63 e37e     +LDI R23 , BYTE4 ( 0x3ECAC083 )
                 	__GETD1N 0x3ECAC083
000b64 940e 1664 	CALL __CMPF12
000b66 f009      	BREQ PC+2
000b67 f410      	BRCC PC+3
000b68 940c 0b6c 	JMP  _0x115
000b6a e0ee      	LDI  R30,LOW(14)
000b6b c014      	RJMP _0x124
                 ; 0000 026A       else if (temp_faza> 0.200) viz_faza=15;
                 _0x115:
000b6c 940e 12fe 	CALL SUBOPT_0x40
                +
000b6e eced     +LDI R30 , LOW ( 0x3E4CCCCD )
000b6f ecfc     +LDI R31 , HIGH ( 0x3E4CCCCD )
000b70 e46c     +LDI R22 , BYTE3 ( 0x3E4CCCCD )
000b71 e37e     +LDI R23 , BYTE4 ( 0x3E4CCCCD )
                 	__GETD1N 0x3E4CCCCD
000b72 940e 1664 	CALL __CMPF12
000b74 f009      	BREQ PC+2
000b75 f410      	BRCC PC+3
000b76 940c 0b7a 	JMP  _0x117
000b78 e0ef      	LDI  R30,LOW(15)
000b79 c006      	RJMP _0x124
                 ; 0000 026B       else if (temp_faza> 0.000) viz_faza=16;
                 _0x117:
000b7a 940e 12fe 	CALL SUBOPT_0x40
000b7c 940e 1688 	CALL __CPD02
000b7e f414      	BRGE _0x119
000b7f e1e0      	LDI  R30,LOW(16)
                 _0x124:
000b80 2ece      	MOV  R12,R30
                 ; 0000 026C 
                 ; 0000 026D       batt_zarqd();
                 _0x119:
                 _0xFA:
000b81 940e 028e 	CALL _batt_zarqd
                 ; 0000 026E       lcd_disp();
000b83 940e 030a 	CALL _lcd_disp
                 ; 0000 026F       zvuk();
000b85 da3d      	RCALL _zvuk
                 ; 0000 0270 
                 ; 0000 0271       delay_ms (100);
000b86 e6e4      	LDI  R30,LOW(100)
000b87 e0f0      	LDI  R31,HIGH(100)
000b88 93fa      	ST   -Y,R31
000b89 93ea      	ST   -Y,R30
000b8a 940e 1409 	CALL _delay_ms
                 ; 0000 0272       light=0;
000b8c 9896      	CBI  0x12,6
                 ; 0000 0273       };
000b8d cc26      	RJMP _0x8F
                 ; 0000 0274 }
                 _0x11C:
000b8e cfff      	RJMP _0x11C
                     .equ __lcd_direction=__lcd_port-1
                     .equ __lcd_pin=__lcd_port-2
                     .equ __lcd_rs=0
                     .equ __lcd_rd=1
                     .equ __lcd_enable=2
                     .equ __lcd_busy_flag=7
                 
                 	.DSEG
                 
                 	.CSEG
                 __lcd_delay_G100:
000b8f e0ff          ldi   r31,15
                 __lcd_delay0:
000b90 95fa          dec   r31
000b91 f7f1          brne  __lcd_delay0
000b92 9508      	RET
                 __lcd_ready:
000b93 b3a4          in    r26,__lcd_direction
000b94 70af          andi  r26,0xf                 ;set as input
000b95 bba4          out   __lcd_direction,r26
000b96 9aa9          sbi   __lcd_port,__lcd_rd     ;RD=1
000b97 98a8          cbi   __lcd_port,__lcd_rs     ;RS=0
                 __lcd_busy:
000b98 dff6      	RCALL __lcd_delay_G100
000b99 9aaa          sbi   __lcd_port,__lcd_enable ;EN=1
000b9a dff4      	RCALL __lcd_delay_G100
000b9b b3a3          in    r26,__lcd_pin
000b9c 98aa          cbi   __lcd_port,__lcd_enable ;EN=0
000b9d dff1      	RCALL __lcd_delay_G100
000b9e 9aaa          sbi   __lcd_port,__lcd_enable ;EN=1
000b9f dfef      	RCALL __lcd_delay_G100
000ba0 98aa          cbi   __lcd_port,__lcd_enable ;EN=0
000ba1 fda7          sbrc  r26,__lcd_busy_flag
000ba2 cff5          rjmp  __lcd_busy
000ba3 9508      	RET
                 __lcd_write_nibble_G100:
000ba4 7fa0          andi  r26,0xf0
000ba5 2bab          or    r26,r27
000ba6 bba5          out   __lcd_port,r26          ;write
000ba7 9aaa          sbi   __lcd_port,__lcd_enable ;EN=1
000ba8 940e 0b8f 	CALL __lcd_delay_G100
000baa 98aa          cbi   __lcd_port,__lcd_enable ;EN=0
000bab 940e 0b8f 	CALL __lcd_delay_G100
000bad 9508      	RET
                 __lcd_write_data:
000bae 98a9          cbi  __lcd_port,__lcd_rd 	  ;RD=0
000baf b3a4          in    r26,__lcd_direction
000bb0 6fa7          ori   r26,0xf0 | (1<<__lcd_rs) | (1<<__lcd_rd) | (1<<__lcd_enable) ;set as output
000bb1 bba4          out   __lcd_direction,r26
000bb2 b3b5          in    r27,__lcd_port
000bb3 70bf          andi  r27,0xf
000bb4 81a8          ld    r26,y
000bb5 dfee      	RCALL __lcd_write_nibble_G100
000bb6 81a8          ld    r26,y
000bb7 95a2          swap  r26
000bb8 dfeb      	RCALL __lcd_write_nibble_G100
000bb9 9aa9          sbi   __lcd_port,__lcd_rd     ;RD=1
000bba 940c 0c82 	JMP  _0x20C0005
                 __lcd_read_nibble_G100:
000bbc 9aaa          sbi   __lcd_port,__lcd_enable ;EN=1
000bbd 940e 0b8f 	CALL __lcd_delay_G100
000bbf b3e3          in    r30,__lcd_pin           ;read
000bc0 98aa          cbi   __lcd_port,__lcd_enable ;EN=0
000bc1 940e 0b8f 	CALL __lcd_delay_G100
000bc3 7fe0          andi  r30,0xf0
000bc4 9508      	RET
                 _lcd_read_byte0_G100:
000bc5 940e 0b8f 	CALL __lcd_delay_G100
000bc7 dff4      	RCALL __lcd_read_nibble_G100
000bc8 2fae          mov   r26,r30
000bc9 dff2      	RCALL __lcd_read_nibble_G100
000bca 98a9          cbi   __lcd_port,__lcd_rd     ;RD=0
000bcb 95e2          swap  r30
000bcc 2bea          or    r30,r26
000bcd 9508      	RET
                 _lcd_gotoxy:
000bce 940e 0b93 	CALL __lcd_ready
000bd0 940e 107d 	CALL SUBOPT_0x0
000bd2 54e0      	SUBI R30,LOW(-__base_y_G100)
000bd3 4ffd      	SBCI R31,HIGH(-__base_y_G100)
000bd4 81e0      	LD   R30,Z
000bd5 e0f0      	LDI  R31,0
000bd6 01df      	MOVW R26,R30
000bd7 81e9      	LDD  R30,Y+1
000bd8 e0f0      	LDI  R31,0
000bd9 0fea      	ADD  R30,R26
000bda 1ffb      	ADC  R31,R27
000bdb 93ea      	ST   -Y,R30
000bdc 940e 0bae 	CALL __lcd_write_data
000bde 81e9      	LDD  R30,Y+1
000bdf 93e0 02c4 	STS  __lcd_x,R30
000be1 81e8      	LD   R30,Y
000be2 93e0 02c5 	STS  __lcd_y,R30
000be4 9622      	ADIW R28,2
000be5 9508      	RET
                 _lcd_clear:
000be6 940e 0b93 	CALL __lcd_ready
000be8 e0e2      	LDI  R30,LOW(2)
000be9 93ea      	ST   -Y,R30
000bea 940e 0bae 	CALL __lcd_write_data
000bec 940e 0b93 	CALL __lcd_ready
000bee e0ec      	LDI  R30,LOW(12)
000bef 93ea      	ST   -Y,R30
000bf0 940e 0bae 	CALL __lcd_write_data
000bf2 940e 0b93 	CALL __lcd_ready
000bf4 e0e1      	LDI  R30,LOW(1)
000bf5 93ea      	ST   -Y,R30
000bf6 940e 0bae 	CALL __lcd_write_data
000bf8 e0e0      	LDI  R30,LOW(0)
000bf9 93e0 02c5 	STS  __lcd_y,R30
000bfb 93e0 02c4 	STS  __lcd_x,R30
000bfd 9508      	RET
                 _lcd_putchar:
000bfe 93ef          push r30
000bff 93ff          push r31
000c00 81a8          ld   r26,y
000c01 9468          set
000c02 30aa          cpi  r26,10
000c03 f061          breq __lcd_putchar1
000c04 94e8          clt
000c05 91e0 02c4 	LDS  R30,__lcd_x
000c07 5fef      	SUBI R30,-LOW(1)
000c08 93e0 02c4 	STS  __lcd_x,R30
000c0a 91e0 02c6 	LDS  R30,__lcd_maxx
000c0c 91a0 02c4 	LDS  R26,__lcd_x
000c0e 17ea      	CP   R30,R26
000c0f f460      	BRSH _0x2000004
                 	__lcd_putchar1:
000c10 91e0 02c5 	LDS  R30,__lcd_y
000c12 5fef      	SUBI R30,-LOW(1)
000c13 93e0 02c5 	STS  __lcd_y,R30
000c15 e0e0      	LDI  R30,LOW(0)
000c16 93ea      	ST   -Y,R30
000c17 91e0 02c5 	LDS  R30,__lcd_y
000c19 93ea      	ST   -Y,R30
000c1a dfb3      	RCALL _lcd_gotoxy
000c1b f02e      	brts __lcd_putchar0
                 _0x2000004:
000c1c df76          rcall __lcd_ready
000c1d 9aa8          sbi  __lcd_port,__lcd_rs ;RS=1
000c1e 81a8          ld   r26,y
000c1f 93aa          st   -y,r26
000c20 df8d          rcall __lcd_write_data
                 __lcd_putchar0:
000c21 91ff          pop  r31
000c22 91ef          pop  r30
000c23 940c 0c82 	JMP  _0x20C0005
                 _lcd_puts:
000c25 931a      	ST   -Y,R17
                 _0x2000005:
000c26 81a9      	LDD  R26,Y+1
000c27 81ba      	LDD  R27,Y+1+1
000c28 91ed      	LD   R30,X+
000c29 83a9      	STD  Y+1,R26
000c2a 83ba      	STD  Y+1+1,R27
000c2b 2f1e      	MOV  R17,R30
000c2c 30e0      	CPI  R30,0
000c2d f019      	BREQ _0x2000007
000c2e 931a      	ST   -Y,R17
000c2f dfce      	RCALL _lcd_putchar
000c30 cff5      	RJMP _0x2000005
                 _0x2000007:
000c31 8118      	LDD  R17,Y+0
000c32 9623      	ADIW R28,3
000c33 9508      	RET
                 __long_delay_G100:
000c34 27aa          clr   r26
000c35 27bb          clr   r27
                 __long_delay0:
000c36 9711          sbiw  r26,1         ;2 cycles
000c37 f7f1          brne  __long_delay0 ;2 cycles
000c38 9508      	RET
                 __lcd_init_write_G100:
000c39 98a9          cbi  __lcd_port,__lcd_rd 	  ;RD=0
000c3a b3a4          in    r26,__lcd_direction
000c3b 6fa7          ori   r26,0xf7                ;set as output
000c3c bba4          out   __lcd_direction,r26
000c3d b3b5          in    r27,__lcd_port
000c3e 70bf          andi  r27,0xf
000c3f 81a8          ld    r26,y
000c40 940e 0ba4 	CALL __lcd_write_nibble_G100
000c42 9aa9          sbi   __lcd_port,__lcd_rd     ;RD=1
000c43 940c 0c82 	JMP  _0x20C0005
                 _lcd_init:
000c45 98aa          cbi   __lcd_port,__lcd_enable ;EN=0
000c46 98a8          cbi   __lcd_port,__lcd_rs     ;RS=0
000c47 81e8      	LD   R30,Y
000c48 93e0 02c6 	STS  __lcd_maxx,R30
000c4a 940e 107d 	CALL SUBOPT_0x0
000c4c 58e0      	SUBI R30,LOW(-128)
000c4d 4fff      	SBCI R31,HIGH(-128)
                +
000c4e 93e0 02c2+STS __base_y_G100 + 2 , R30
                 	__PUTB1MN __base_y_G100,2
000c50 940e 107d 	CALL SUBOPT_0x0
000c52 54e0      	SUBI R30,LOW(-192)
000c53 4fff      	SBCI R31,HIGH(-192)
                +
000c54 93e0 02c3+STS __base_y_G100 + 3 , R30
                 	__PUTB1MN __base_y_G100,3
000c56 940e 1307 	CALL SUBOPT_0x41
000c58 940e 1307 	CALL SUBOPT_0x41
000c5a 940e 1307 	CALL SUBOPT_0x41
000c5c dfd7      	RCALL __long_delay_G100
000c5d e2e0      	LDI  R30,LOW(32)
000c5e 93ea      	ST   -Y,R30
000c5f dfd9      	RCALL __lcd_init_write_G100
000c60 dfd3      	RCALL __long_delay_G100
000c61 e2e8      	LDI  R30,LOW(40)
000c62 940e 130d 	CALL SUBOPT_0x42
000c64 e0e4      	LDI  R30,LOW(4)
000c65 940e 130d 	CALL SUBOPT_0x42
000c67 e8e5      	LDI  R30,LOW(133)
000c68 940e 130d 	CALL SUBOPT_0x42
000c6a b3a4          in    r26,__lcd_direction
000c6b 70af          andi  r26,0xf                 ;set as input
000c6c bba4          out   __lcd_direction,r26
000c6d 9aa9          sbi   __lcd_port,__lcd_rd     ;RD=1
000c6e 940e 0bc5 	CALL _lcd_read_byte0_G100
000c70 30e5      	CPI  R30,LOW(0x5)
000c71 f011      	BREQ _0x200000B
000c72 e0e0      	LDI  R30,LOW(0)
000c73 c00e      	RJMP _0x20C0004
                 _0x200000B:
000c74 940e 0b93 	CALL __lcd_ready
000c76 e0e6      	LDI  R30,LOW(6)
000c77 93ea      	ST   -Y,R30
000c78 940e 0bae 	CALL __lcd_write_data
000c7a 940e 0be6 	CALL _lcd_clear
000c7c e0e1      	LDI  R30,LOW(1)
000c7d c004      	RJMP _0x20C0004
                 	#ifndef __SLEEP_DEFINED__
                 	#endif
                 
                 	.CSEG
                 _putchar:
000c7e 9b5d           sbis usr,udre
000c7f cffe           rjmp _putchar
000c80 81e8           ld   r30,y
000c81 b9ec           out  udr,r30
                 _0x20C0005:
                 _0x20C0004:
000c82 9621      	ADIW R28,1
000c83 9508      	RET
                 __put_G101:
000c84 931a      	ST   -Y,R17
000c85 930a      	ST   -Y,R16
000c86 81ac      	LDD  R26,Y+4
000c87 81bd      	LDD  R27,Y+4+1
000c88 940e 14be 	CALL __GETW1P
000c8a 9730      	SBIW R30,0
000c8b f0d9      	BREQ _0x2020010
000c8c 81aa      	LDD  R26,Y+2
000c8d 81bb      	LDD  R27,Y+2+1
000c8e 940e 14be 	CALL __GETW1P
000c90 018f      	MOVW R16,R30
000c91 9730      	SBIW R30,0
000c92 f049      	BREQ _0x2020012
                +
000c93 3002     +CPI R16 , LOW ( 2 )
000c94 e0e0     +LDI R30 , HIGH ( 2 )
000c95 071e     +CPC R17 , R30
                 	__CPWRN 16,17,2
000c96 f078      	BRLO _0x2020013
000c97 01f8      	MOVW R30,R16
000c98 9731      	SBIW R30,1
000c99 018f      	MOVW R16,R30
000c9a 93ed      	ST   X+,R30
000c9b 93fc      	ST   X,R31
                 _0x2020012:
000c9c 81ac      	LDD  R26,Y+4
000c9d 81bd      	LDD  R27,Y+4+1
000c9e 91ed      	LD   R30,X+
000c9f 91fd      	LD   R31,X+
000ca0 9631      	ADIW R30,1
000ca1 93fe      	ST   -X,R31
000ca2 93ee      	ST   -X,R30
000ca3 9731      	SBIW R30,1
000ca4 81ae      	LDD  R26,Y+6
000ca5 83a0      	STD  Z+0,R26
                 _0x2020013:
000ca6 c003      	RJMP _0x2020014
                 _0x2020010:
000ca7 81ee      	LDD  R30,Y+6
000ca8 93ea      	ST   -Y,R30
000ca9 dfd4      	RCALL _putchar
                 _0x2020014:
000caa 8119      	LDD  R17,Y+1
000cab 8108      	LDD  R16,Y+0
000cac 9627      	ADIW R28,7
000cad 9508      	RET
                 __print_G101:
000cae 9726      	SBIW R28,6
000caf 940e 168e 	CALL __SAVELOCR6
000cb1 e010      	LDI  R17,0
                 _0x2020015:
000cb2 89ea      	LDD  R30,Y+18
000cb3 89fb      	LDD  R31,Y+18+1
000cb4 9631      	ADIW R30,1
000cb5 8bea      	STD  Y+18,R30
000cb6 8bfb      	STD  Y+18+1,R31
000cb7 9731      	SBIW R30,1
000cb8 91e4      	LPM  R30,Z
000cb9 2f2e      	MOV  R18,R30
000cba 30e0      	CPI  R30,0
000cbb f411      	BRNE PC+3
000cbc 940c 0e5f 	JMP _0x2020017
000cbe 2fe1      	MOV  R30,R17
000cbf e0f0      	LDI  R31,0
000cc0 9730      	SBIW R30,0
000cc1 f439      	BRNE _0x202001B
000cc2 3225      	CPI  R18,37
000cc3 f411      	BRNE _0x202001C
000cc4 e011      	LDI  R17,LOW(1)
000cc5 c002      	RJMP _0x202001D
                 _0x202001C:
000cc6 940e 1312 	CALL SUBOPT_0x43
                 _0x202001D:
000cc8 c195      	RJMP _0x202001A
                 _0x202001B:
000cc9 30e1      	CPI  R30,LOW(0x1)
000cca e0a0      	LDI  R26,HIGH(0x1)
000ccb 07fa      	CPC  R31,R26
000ccc f4a9      	BRNE _0x202001E
000ccd 3225      	CPI  R18,37
000cce f419      	BRNE _0x202001F
000ccf 940e 1312 	CALL SUBOPT_0x43
000cd1 c18b      	RJMP _0x20200BC
                 _0x202001F:
000cd2 e012      	LDI  R17,LOW(2)
000cd3 e040      	LDI  R20,LOW(0)
000cd4 e000      	LDI  R16,LOW(0)
000cd5 322d      	CPI  R18,45
000cd6 f411      	BRNE _0x2020020
000cd7 e001      	LDI  R16,LOW(1)
000cd8 c185      	RJMP _0x202001A
                 _0x2020020:
000cd9 322b      	CPI  R18,43
000cda f411      	BRNE _0x2020021
000cdb e24b      	LDI  R20,LOW(43)
000cdc c181      	RJMP _0x202001A
                 _0x2020021:
000cdd 3220      	CPI  R18,32
000cde f411      	BRNE _0x2020022
000cdf e240      	LDI  R20,LOW(32)
000ce0 c17d      	RJMP _0x202001A
                 _0x2020022:
000ce1 c004      	RJMP _0x2020023
                 _0x202001E:
000ce2 30e2      	CPI  R30,LOW(0x2)
000ce3 e0a0      	LDI  R26,HIGH(0x2)
000ce4 07fa      	CPC  R31,R26
000ce5 f461      	BRNE _0x2020024
                 _0x2020023:
000ce6 e050      	LDI  R21,LOW(0)
000ce7 e013      	LDI  R17,LOW(3)
000ce8 3320      	CPI  R18,48
000ce9 f439      	BRNE _0x2020025
000cea 940e 131d 	CALL SUBOPT_0x44
000cec e8e0      	LDI  R30,LOW(128)
000ced e0f0      	LDI  R31,HIGH(128)
000cee 2bea      	OR   R30,R26
000cef 2f0e      	MOV  R16,R30
000cf0 c16d      	RJMP _0x202001A
                 _0x2020025:
000cf1 c006      	RJMP _0x2020026
                 _0x2020024:
000cf2 30e3      	CPI  R30,LOW(0x3)
000cf3 e0a0      	LDI  R26,HIGH(0x3)
000cf4 07fa      	CPC  R31,R26
000cf5 f011      	BREQ PC+3
000cf6 940c 0e5e 	JMP _0x202001A
                 _0x2020026:
000cf8 3320      	CPI  R18,48
000cf9 f010      	BRLO _0x2020029
000cfa 332a      	CPI  R18,58
000cfb f008      	BRLO _0x202002A
                 _0x2020029:
000cfc c015      	RJMP _0x2020028
                 _0x202002A:
000cfd 2fa5      	MOV  R26,R21
000cfe e0b0      	LDI  R27,0
000cff e0ea      	LDI  R30,LOW(10)
000d00 e0f0      	LDI  R31,HIGH(10)
000d01 02ea      	MULS R30,R26
000d02 01f0      	MOVW R30,R0
000d03 2f5e      	MOV  R21,R30
000d04 2f65      	MOV  R22,R21
000d05 2777      	CLR  R23
000d06 2fa2      	MOV  R26,R18
000d07 e0b0      	LDI  R27,0
000d08 e3e0      	LDI  R30,LOW(48)
000d09 e0f0      	LDI  R31,HIGH(48)
000d0a 940e 14d6 	CALL __SWAPW12
000d0c 1bea      	SUB  R30,R26
000d0d 0bfb      	SBC  R31,R27
000d0e 01db      	MOVW R26,R22
000d0f 0fea      	ADD  R30,R26
000d10 2f5e      	MOV  R21,R30
000d11 c14c      	RJMP _0x202001A
                 _0x2020028:
000d12 940e 1320 	CALL SUBOPT_0x45
000d14 36e3      	CPI  R30,LOW(0x63)
000d15 e0a0      	LDI  R26,HIGH(0x63)
000d16 07fa      	CPC  R31,R26
000d17 f449      	BRNE _0x202002E
000d18 940e 1323 	CALL SUBOPT_0x46
000d1a 89e8      	LDD  R30,Y+16
000d1b 89f9      	LDD  R31,Y+16+1
000d1c 81a4      	LDD  R26,Z+4
000d1d 93aa      	ST   -Y,R26
000d1e 940e 1329 	CALL SUBOPT_0x47
000d20 c13c      	RJMP _0x202002F
                 _0x202002E:
000d21 37e3      	CPI  R30,LOW(0x73)
000d22 e0a0      	LDI  R26,HIGH(0x73)
000d23 07fa      	CPC  R31,R26
000d24 f441      	BRNE _0x2020031
000d25 940e 1323 	CALL SUBOPT_0x46
000d27 940e 1333 	CALL SUBOPT_0x48
000d29 940e 1068 	CALL _strlen
000d2b 2f1e      	MOV  R17,R30
000d2c c011      	RJMP _0x2020032
                 _0x2020031:
000d2d 37e0      	CPI  R30,LOW(0x70)
000d2e e0a0      	LDI  R26,HIGH(0x70)
000d2f 07fa      	CPC  R31,R26
000d30 f4d9      	BRNE _0x2020034
000d31 940e 1323 	CALL SUBOPT_0x46
000d33 940e 1333 	CALL SUBOPT_0x48
000d35 940e 1072 	CALL _strlenf
000d37 2f1e      	MOV  R17,R30
000d38 940e 131d 	CALL SUBOPT_0x44
000d3a e0e8      	LDI  R30,LOW(8)
000d3b e0f0      	LDI  R31,HIGH(8)
000d3c 2bea      	OR   R30,R26
000d3d 2f0e      	MOV  R16,R30
                 _0x2020032:
000d3e 940e 131d 	CALL SUBOPT_0x44
000d40 e0e2      	LDI  R30,LOW(2)
000d41 e0f0      	LDI  R31,HIGH(2)
000d42 2bea      	OR   R30,R26
000d43 2f0e      	MOV  R16,R30
000d44 940e 131d 	CALL SUBOPT_0x44
000d46 e7ef      	LDI  R30,LOW(65407)
000d47 efff      	LDI  R31,HIGH(65407)
000d48 23ea      	AND  R30,R26
000d49 2f0e      	MOV  R16,R30
000d4a e030      	LDI  R19,LOW(0)
000d4b c04f      	RJMP _0x2020035
                 _0x2020034:
000d4c 36e4      	CPI  R30,LOW(0x64)
000d4d e0a0      	LDI  R26,HIGH(0x64)
000d4e 07fa      	CPC  R31,R26
000d4f f021      	BREQ _0x2020038
000d50 36e9      	CPI  R30,LOW(0x69)
000d51 e0a0      	LDI  R26,HIGH(0x69)
000d52 07fa      	CPC  R31,R26
000d53 f439      	BRNE _0x2020039
                 _0x2020038:
000d54 940e 131d 	CALL SUBOPT_0x44
000d56 e0e4      	LDI  R30,LOW(4)
000d57 e0f0      	LDI  R31,HIGH(4)
000d58 2bea      	OR   R30,R26
000d59 2f0e      	MOV  R16,R30
000d5a c004      	RJMP _0x202003A
                 _0x2020039:
000d5b 37e5      	CPI  R30,LOW(0x75)
000d5c e0a0      	LDI  R26,HIGH(0x75)
000d5d 07fa      	CPC  R31,R26
000d5e f431      	BRNE _0x202003B
                 _0x202003A:
000d5f e5e4      	LDI  R30,LOW(_tbl10_G101*2)
000d60 e0f0      	LDI  R31,HIGH(_tbl10_G101*2)
000d61 83ee      	STD  Y+6,R30
000d62 83ff      	STD  Y+6+1,R31
000d63 e015      	LDI  R17,LOW(5)
000d64 c016      	RJMP _0x202003C
                 _0x202003B:
000d65 35e8      	CPI  R30,LOW(0x58)
000d66 e0a0      	LDI  R26,HIGH(0x58)
000d67 07fa      	CPC  R31,R26
000d68 f439      	BRNE _0x202003E
000d69 940e 131d 	CALL SUBOPT_0x44
000d6b e0e8      	LDI  R30,LOW(8)
000d6c e0f0      	LDI  R31,HIGH(8)
000d6d 2bea      	OR   R30,R26
000d6e 2f0e      	MOV  R16,R30
000d6f c006      	RJMP _0x202003F
                 _0x202003E:
000d70 37e8      	CPI  R30,LOW(0x78)
000d71 e0a0      	LDI  R26,HIGH(0x78)
000d72 07fa      	CPC  R31,R26
000d73 f011      	BREQ PC+3
000d74 940c 0e5d 	JMP _0x2020070
                 _0x202003F:
000d76 e5ee      	LDI  R30,LOW(_tbl16_G101*2)
000d77 e0f0      	LDI  R31,HIGH(_tbl16_G101*2)
000d78 83ee      	STD  Y+6,R30
000d79 83ff      	STD  Y+6+1,R31
000d7a e014      	LDI  R17,LOW(4)
                 _0x202003C:
000d7b 940e 131d 	CALL SUBOPT_0x44
000d7d 940e 133d 	CALL SUBOPT_0x49
000d7f f0b9      	BREQ _0x2020041
000d80 940e 1323 	CALL SUBOPT_0x46
000d82 940e 1343 	CALL SUBOPT_0x4A
000d84 85ab      	LDD  R26,Y+11
000d85 23aa      	TST  R26
000d86 f43a      	BRPL _0x2020042
000d87 85ea      	LDD  R30,Y+10
000d88 85fb      	LDD  R31,Y+10+1
000d89 940e 1454 	CALL __ANEGW1
000d8b 87ea      	STD  Y+10,R30
000d8c 87fb      	STD  Y+10+1,R31
000d8d e24d      	LDI  R20,LOW(45)
                 _0x2020042:
000d8e 3040      	CPI  R20,0
000d8f f011      	BREQ _0x2020043
000d90 5f1f      	SUBI R17,-LOW(1)
000d91 c004      	RJMP _0x2020044
                 _0x2020043:
000d92 940e 131d 	CALL SUBOPT_0x44
000d94 940e 134b 	CALL SUBOPT_0x4B
                 _0x2020044:
000d96 c004      	RJMP _0x2020045
                 _0x2020041:
000d97 940e 1323 	CALL SUBOPT_0x46
000d99 940e 1343 	CALL SUBOPT_0x4A
                 _0x2020045:
                 _0x2020035:
000d9b 940e 1350 	CALL SUBOPT_0x4C
000d9d f4e9      	BRNE _0x2020046
                 _0x2020047:
000d9e 1715      	CP   R17,R21
000d9f f4d8      	BRSH _0x2020049
000da0 940e 131d 	CALL SUBOPT_0x44
000da2 e8e0      	LDI  R30,LOW(128)
000da3 e0f0      	LDI  R31,HIGH(128)
000da4 23ea      	AND  R30,R26
000da5 23fb      	AND  R31,R27
000da6 9730      	SBIW R30,0
000da7 f071      	BREQ _0x202004A
000da8 940e 131d 	CALL SUBOPT_0x44
000daa 940e 133d 	CALL SUBOPT_0x49
000dac f039      	BREQ _0x202004B
000dad 940e 131d 	CALL SUBOPT_0x44
000daf 940e 134b 	CALL SUBOPT_0x4B
000db1 2f24      	MOV  R18,R20
000db2 5011      	SUBI R17,LOW(1)
000db3 c001      	RJMP _0x202004C
                 _0x202004B:
000db4 e320      	LDI  R18,LOW(48)
                 _0x202004C:
000db5 c001      	RJMP _0x202004D
                 _0x202004A:
000db6 e220      	LDI  R18,LOW(32)
                 _0x202004D:
000db7 940e 1312 	CALL SUBOPT_0x43
000db9 5051      	SUBI R21,LOW(1)
000dba cfe3      	RJMP _0x2020047
                 _0x2020049:
                 _0x2020046:
000dbb 2f31      	MOV  R19,R17
000dbc 940e 131d 	CALL SUBOPT_0x44
000dbe e0e2      	LDI  R30,LOW(2)
000dbf e0f0      	LDI  R31,HIGH(2)
000dc0 23ea      	AND  R30,R26
000dc1 23fb      	AND  R31,R27
000dc2 9730      	SBIW R30,0
000dc3 f101      	BREQ _0x202004E
                 _0x202004F:
000dc4 3030      	CPI  R19,0
000dc5 f0e9      	BREQ _0x2020051
000dc6 940e 131d 	CALL SUBOPT_0x44
000dc8 e0e8      	LDI  R30,LOW(8)
000dc9 e0f0      	LDI  R31,HIGH(8)
000dca 23ea      	AND  R30,R26
000dcb 23fb      	AND  R31,R27
000dcc 9730      	SBIW R30,0
000dcd f041      	BREQ _0x2020052
000dce 81ee      	LDD  R30,Y+6
000dcf 81ff      	LDD  R31,Y+6+1
000dd0 9631      	ADIW R30,1
000dd1 83ee      	STD  Y+6,R30
000dd2 83ff      	STD  Y+6+1,R31
000dd3 9731      	SBIW R30,1
000dd4 91e4      	LPM  R30,Z
000dd5 c005      	RJMP _0x20200BD
                 _0x2020052:
000dd6 81ae      	LDD  R26,Y+6
000dd7 81bf      	LDD  R27,Y+6+1
000dd8 91ed      	LD   R30,X+
000dd9 83ae      	STD  Y+6,R26
000dda 83bf      	STD  Y+6+1,R27
                 _0x20200BD:
000ddb 93ea      	ST   -Y,R30
000ddc 940e 1329 	CALL SUBOPT_0x47
000dde 3050      	CPI  R21,0
000ddf f009      	BREQ _0x2020054
000de0 5051      	SUBI R21,LOW(1)
                 _0x2020054:
000de1 5031      	SUBI R19,LOW(1)
000de2 cfe1      	RJMP _0x202004F
                 _0x2020051:
000de3 c06e      	RJMP _0x2020055
                 _0x202004E:
                 _0x2020057:
000de4 e320      	LDI  R18,LOW(48)
000de5 81ee      	LDD  R30,Y+6
000de6 81ff      	LDD  R31,Y+6+1
000de7 940e 14c2 	CALL __GETW1PF
000de9 87e8      	STD  Y+8,R30
000dea 87f9      	STD  Y+8+1,R31
000deb 81ee      	LDD  R30,Y+6
000dec 81ff      	LDD  R31,Y+6+1
000ded 9632      	ADIW R30,2
000dee 83ee      	STD  Y+6,R30
000def 83ff      	STD  Y+6+1,R31
                 _0x2020059:
000df0 85e8      	LDD  R30,Y+8
000df1 85f9      	LDD  R31,Y+8+1
000df2 85aa      	LDD  R26,Y+10
000df3 85bb      	LDD  R27,Y+10+1
000df4 17ae      	CP   R26,R30
000df5 07bf      	CPC  R27,R31
000df6 f050      	BRLO _0x202005B
000df7 5f2f      	SUBI R18,-LOW(1)
000df8 85a8      	LDD  R26,Y+8
000df9 85b9      	LDD  R27,Y+8+1
000dfa 85ea      	LDD  R30,Y+10
000dfb 85fb      	LDD  R31,Y+10+1
000dfc 1bea      	SUB  R30,R26
000dfd 0bfb      	SBC  R31,R27
000dfe 87ea      	STD  Y+10,R30
000dff 87fb      	STD  Y+10+1,R31
000e00 cfef      	RJMP _0x2020059
                 _0x202005B:
000e01 332a      	CPI  R18,58
000e02 f080      	BRLO _0x202005C
000e03 940e 131d 	CALL SUBOPT_0x44
000e05 e0e8      	LDI  R30,LOW(8)
000e06 e0f0      	LDI  R31,HIGH(8)
000e07 23ea      	AND  R30,R26
000e08 23fb      	AND  R31,R27
000e09 9730      	SBIW R30,0
000e0a f021      	BREQ _0x202005D
000e0b 940e 1320 	CALL SUBOPT_0x45
000e0d 9637      	ADIW R30,7
000e0e c003      	RJMP _0x20200BE
                 _0x202005D:
000e0f 940e 1320 	CALL SUBOPT_0x45
000e11 96b7      	ADIW R30,39
                 _0x20200BE:
000e12 2f2e      	MOV  R18,R30
                 _0x202005C:
000e13 940e 131d 	CALL SUBOPT_0x44
000e15 e1e0      	LDI  R30,LOW(16)
000e16 e0f0      	LDI  R31,HIGH(16)
000e17 23ea      	AND  R30,R26
000e18 23fb      	AND  R31,R27
000e19 9730      	SBIW R30,0
000e1a f561      	BRNE _0x2020060
000e1b 3321      	CPI  R18,49
000e1c f420      	BRSH _0x2020062
000e1d 85a8      	LDD  R26,Y+8
000e1e 85b9      	LDD  R27,Y+8+1
000e1f 9711      	SBIW R26,1
000e20 f409      	BRNE _0x2020061
                 _0x2020062:
000e21 c010      	RJMP _0x20200BF
                 _0x2020061:
000e22 1753      	CP   R21,R19
000e23 f018      	BRLO _0x2020066
000e24 940e 1350 	CALL SUBOPT_0x4C
000e26 f009      	BREQ _0x2020067
                 _0x2020066:
000e27 c024      	RJMP _0x2020065
                 _0x2020067:
000e28 e220      	LDI  R18,LOW(32)
000e29 940e 131d 	CALL SUBOPT_0x44
000e2b e8e0      	LDI  R30,LOW(128)
000e2c e0f0      	LDI  R31,HIGH(128)
000e2d 23ea      	AND  R30,R26
000e2e 23fb      	AND  R31,R27
000e2f 9730      	SBIW R30,0
000e30 f0b1      	BREQ _0x2020068
000e31 e320      	LDI  R18,LOW(48)
                 _0x20200BF:
000e32 2fa0      	MOV  R26,R16
000e33 e0b0      	LDI  R27,0
000e34 e1e0      	LDI  R30,LOW(16)
000e35 e0f0      	LDI  R31,HIGH(16)
000e36 2bea      	OR   R30,R26
000e37 2f0e      	MOV  R16,R30
000e38 940e 131d 	CALL SUBOPT_0x44
000e3a 940e 133d 	CALL SUBOPT_0x49
000e3c f051      	BREQ _0x2020069
000e3d 940e 131d 	CALL SUBOPT_0x44
000e3f 940e 134b 	CALL SUBOPT_0x4B
000e41 934a      	ST   -Y,R20
000e42 940e 1329 	CALL SUBOPT_0x47
000e44 3050      	CPI  R21,0
000e45 f009      	BREQ _0x202006A
000e46 5051      	SUBI R21,LOW(1)
                 _0x202006A:
                 _0x2020069:
                 _0x2020068:
                 _0x2020060:
000e47 940e 1312 	CALL SUBOPT_0x43
000e49 3050      	CPI  R21,0
000e4a f009      	BREQ _0x202006B
000e4b 5051      	SUBI R21,LOW(1)
                 _0x202006B:
                 _0x2020065:
000e4c 5031      	SUBI R19,LOW(1)
000e4d 85a8      	LDD  R26,Y+8
000e4e 85b9      	LDD  R27,Y+8+1
000e4f 9712      	SBIW R26,2
000e50 f008      	BRLO _0x2020058
000e51 cf92      	RJMP _0x2020057
                 _0x2020058:
                 _0x2020055:
000e52 940e 1350 	CALL SUBOPT_0x4C
000e54 f041      	BREQ _0x202006C
                 _0x202006D:
000e55 3050      	CPI  R21,0
000e56 f031      	BREQ _0x202006F
000e57 5051      	SUBI R21,LOW(1)
000e58 e2e0      	LDI  R30,LOW(32)
000e59 93ea      	ST   -Y,R30
000e5a 940e 1329 	CALL SUBOPT_0x47
000e5c cff8      	RJMP _0x202006D
                 _0x202006F:
                 _0x202006C:
                 _0x2020070:
                 _0x202002F:
                 _0x20200BC:
000e5d e010      	LDI  R17,LOW(0)
                 _0x202001A:
000e5e ce53      	RJMP _0x2020015
                 _0x2020017:
000e5f 940e 1695 	CALL __LOADLOCR6
000e61 9664      	ADIW R28,20
000e62 9508      	RET
                 _sprintf:
000e63 92ff      	PUSH R15
000e64 2ef8      	MOV  R15,R24
000e65 9722      	SBIW R28,2
000e66 931a      	ST   -Y,R17
000e67 930a      	ST   -Y,R16
000e68 01de      	MOVW R26,R28
000e69 940e 144b 	CALL __ADDW2R15
000e6b 018d      	MOVW R16,R26
000e6c 01de      	MOVW R26,R28
000e6d 9616      	ADIW R26,6
000e6e 940e 144b 	CALL __ADDW2R15
000e70 940e 14be 	CALL __GETW1P
000e72 83ea      	STD  Y+2,R30
000e73 83fb      	STD  Y+2+1,R31
000e74 01de      	MOVW R26,R28
000e75 9614      	ADIW R26,4
000e76 940e 144b 	CALL __ADDW2R15
000e78 940e 14be 	CALL __GETW1P
000e7a 93fa      	ST   -Y,R31
000e7b 93ea      	ST   -Y,R30
000e7c 931a      	ST   -Y,R17
000e7d 930a      	ST   -Y,R16
000e7e 01fe      	MOVW R30,R28
000e7f 9636      	ADIW R30,6
000e80 93fa      	ST   -Y,R31
000e81 93ea      	ST   -Y,R30
000e82 e0e0      	LDI  R30,LOW(0)
000e83 e0f0      	LDI  R31,HIGH(0)
000e84 93fa      	ST   -Y,R31
000e85 93ea      	ST   -Y,R30
000e86 de27      	RCALL __print_G101
000e87 81aa      	LDD  R26,Y+2
000e88 81bb      	LDD  R27,Y+2+1
000e89 e0e0      	LDI  R30,LOW(0)
000e8a 93ec      	ST   X,R30
000e8b 8119      	LDD  R17,Y+1
000e8c 8108      	LDD  R16,Y+0
000e8d 9624      	ADIW R28,4
000e8e 90ff      	POP  R15
000e8f 9508      	RET
                 
                 	.CSEG
                 _ftrunc:
000e90 817b         ldd  r23,y+3
000e91 816a         ldd  r22,y+2
000e92 81f9         ldd  r31,y+1
000e93 81e8         ld   r30,y
000e94 fb77         bst  r23,7
000e95 0f77         lsl  r23
000e96 fd67         sbrc r22,7
000e97 6071         sbr  r23,1
000e98 2f97         mov  r25,r23
000e99 579e         subi r25,0x7e
000e9a f081         breq __ftrunc0
000e9b f078         brcs __ftrunc0
000e9c 3198         cpi  r25,24
000e9d f490         brsh __ftrunc1
000e9e 27aa         clr  r26
000e9f 27bb         clr  r27
000ea0 2788         clr  r24
                 __ftrunc2:
000ea1 9408         sec
000ea2 9587         ror  r24
000ea3 95b7         ror  r27
000ea4 95a7         ror  r26
000ea5 959a         dec  r25
000ea6 f7d1         brne __ftrunc2
000ea7 23ea         and  r30,r26
000ea8 23fb         and  r31,r27
000ea9 2368         and  r22,r24
000eaa c005         rjmp __ftrunc1
                 __ftrunc0:
000eab 94e8         clt
000eac 2777         clr  r23
000ead 27ee         clr  r30
000eae 27ff         clr  r31
000eaf 2766         clr  r22
                 __ftrunc1:
000eb0 776f         cbr  r22,0x80
000eb1 9576         lsr  r23
000eb2 f408         brcc __ftrunc3
000eb3 6860         sbr  r22,0x80
                 __ftrunc3:
000eb4 f977         bld  r23,7
000eb5 91a9         ld   r26,y+
000eb6 91b9         ld   r27,y+
000eb7 9189         ld   r24,y+
000eb8 9199         ld   r25,y+
000eb9 17ea         cp   r30,r26
000eba 07fb         cpc  r31,r27
000ebb 0768         cpc  r22,r24
000ebc 0779         cpc  r23,r25
000ebd fb97         bst  r25,7
000ebe 9508         ret
                 _floor:
000ebf 940e 115d 	CALL SUBOPT_0x22
000ec1 940e 0e90 	CALL _ftrunc
000ec3 940e 114c 	CALL SUBOPT_0x1F
000ec5 f419          brne __floor1
                 __floor0:
000ec6 940e 1151 	CALL SUBOPT_0x20
000ec8 c0ec      	RJMP _0x20C0003
                 __floor1:
000ec9 f7e6          brtc __floor0
000eca 940e 1354 	CALL SUBOPT_0x4D
000ecc 940e 1359 	CALL SUBOPT_0x4E
000ece c0e6      	RJMP _0x20C0003
                 _sin:
000ecf 940e 135e 	CALL SUBOPT_0x4F
                +
000ed1 e8e3     +LDI R30 , LOW ( 0x3E22F983 )
000ed2 eff9     +LDI R31 , HIGH ( 0x3E22F983 )
000ed3 e262     +LDI R22 , BYTE3 ( 0x3E22F983 )
000ed4 e37e     +LDI R23 , BYTE4 ( 0x3E22F983 )
                 	__GETD1N 0x3E22F983
000ed5 940e 15d1 	CALL __MULF12
000ed7 940e 1366 	CALL SUBOPT_0x50
000ed9 940e 136b 	CALL SUBOPT_0x51
000edb 940e 14c6 	CALL __PUTPARD1
000edd dfe1      	RCALL _floor
000ede 940e 1370 	CALL SUBOPT_0x52
000ee0 940e 1161 	CALL SUBOPT_0x23
000ee2 940e 1366 	CALL SUBOPT_0x50
000ee4 940e 1375 	CALL SUBOPT_0x53
000ee6 940e 1664 	CALL __CMPF12
000ee8 f009      	BREQ PC+2
000ee9 f410      	BRCC PC+3
000eea 940c 0ef3 	JMP  _0x2040017
000eec 940e 1375 	CALL SUBOPT_0x53
000eee 940e 1161 	CALL SUBOPT_0x23
000ef0 940e 1366 	CALL SUBOPT_0x50
000ef2 e011      	LDI  R17,LOW(1)
                 _0x2040017:
000ef3 940e 1370 	CALL SUBOPT_0x52
                +
000ef5 e0e0     +LDI R30 , LOW ( 0x3E800000 )
000ef6 e0f0     +LDI R31 , HIGH ( 0x3E800000 )
000ef7 e860     +LDI R22 , BYTE3 ( 0x3E800000 )
000ef8 e37e     +LDI R23 , BYTE4 ( 0x3E800000 )
                 	__GETD1N 0x3E800000
000ef9 940e 1664 	CALL __CMPF12
000efb f009      	BREQ PC+2
000efc f410      	BRCC PC+3
000efd 940c 0f05 	JMP  _0x2040018
000eff 940e 1375 	CALL SUBOPT_0x53
000f01 940e 157c 	CALL __SUBF12
000f03 940e 1366 	CALL SUBOPT_0x50
                 _0x2040018:
000f05 3010      	CPI  R17,0
000f06 f011      	BREQ _0x2040019
000f07 940e 137b 	CALL SUBOPT_0x54
                 _0x2040019:
000f09 940e 137f 	CALL SUBOPT_0x55
                +
000f0b 83e9     +STD Y + 1 , R30
000f0c 83fa     +STD Y + 1 + 1 , R31
000f0d 836b     +STD Y + 1 + 2 , R22
000f0e 837c     +STD Y + 1 + 3 , R23
                 	__PUTD1S 1
000f0f 940e 1384 	CALL SUBOPT_0x56
                +
000f11 eba1     +LDI R26 , LOW ( 0x4226C4B1 )
000f12 ecb4     +LDI R27 , HIGH ( 0x4226C4B1 )
000f13 e286     +LDI R24 , BYTE3 ( 0x4226C4B1 )
000f14 e492     +LDI R25 , BYTE4 ( 0x4226C4B1 )
                 	__GETD2N 0x4226C4B1
000f15 940e 15d1 	CALL __MULF12
000f17 01df      	MOVW R26,R30
000f18 01cb      	MOVW R24,R22
                +
000f19 e1ed     +LDI R30 , LOW ( 0x422DE51D )
000f1a eef5     +LDI R31 , HIGH ( 0x422DE51D )
000f1b e26d     +LDI R22 , BYTE3 ( 0x422DE51D )
000f1c e472     +LDI R23 , BYTE4 ( 0x422DE51D )
                 	__GETD1N 0x422DE51D
000f1d 940e 1161 	CALL SUBOPT_0x23
000f1f 940e 1389 	CALL SUBOPT_0x57
                +
000f21 e4ac     +LDI R26 , LOW ( 0x4104534C )
000f22 e5b3     +LDI R27 , HIGH ( 0x4104534C )
000f23 e084     +LDI R24 , BYTE3 ( 0x4104534C )
000f24 e491     +LDI R25 , BYTE4 ( 0x4104534C )
                 	__GETD2N 0x4104534C
000f25 940e 1583 	CALL __ADDF12
000f27 940e 1370 	CALL SUBOPT_0x52
000f29 940e 15d1 	CALL __MULF12
000f2b 937f      	PUSH R23
000f2c 936f      	PUSH R22
000f2d 93ff      	PUSH R31
000f2e 93ef      	PUSH R30
000f2f 940e 1384 	CALL SUBOPT_0x56
                +
000f31 e1a1     +LDI R26 , LOW ( 0x3FDEED11 )
000f32 eebd     +LDI R27 , HIGH ( 0x3FDEED11 )
000f33 ed8e     +LDI R24 , BYTE3 ( 0x3FDEED11 )
000f34 e39f     +LDI R25 , BYTE4 ( 0x3FDEED11 )
                 	__GETD2N 0x3FDEED11
000f35 940e 1583 	CALL __ADDF12
000f37 940e 1389 	CALL SUBOPT_0x57
                +
000f39 e5ae     +LDI R26 , LOW ( 0x3FA87B5E )
000f3a e7bb     +LDI R27 , HIGH ( 0x3FA87B5E )
000f3b ea88     +LDI R24 , BYTE3 ( 0x3FA87B5E )
000f3c e39f     +LDI R25 , BYTE4 ( 0x3FA87B5E )
                 	__GETD2N 0x3FA87B5E
000f3d 940e 1583 	CALL __ADDF12
000f3f 91af      	POP  R26
000f40 91bf      	POP  R27
000f41 918f      	POP  R24
000f42 919f      	POP  R25
000f43 940e 161f 	CALL __DIVF21
000f45 c0cc      	RJMP _0x20C0002
                 _cos:
000f46 940e 1354 	CALL SUBOPT_0x4D
                +
000f48 edeb     +LDI R30 , LOW ( 0x3FC90FDB )
000f49 e0ff     +LDI R31 , HIGH ( 0x3FC90FDB )
000f4a ec69     +LDI R22 , BYTE3 ( 0x3FC90FDB )
000f4b e37f     +LDI R23 , BYTE4 ( 0x3FC90FDB )
                 	__GETD1N 0x3FC90FDB
000f4c 940e 157c 	CALL __SUBF12
000f4e 940e 14c6 	CALL __PUTPARD1
000f50 df7e      	RCALL _sin
000f51 c063      	RJMP _0x20C0003
                 _xatan:
000f52 9724      	SBIW R28,4
000f53 940e 1390 	CALL SUBOPT_0x58
000f55 940e 1395 	CALL SUBOPT_0x59
000f57 940e 114c 	CALL SUBOPT_0x1F
000f59 940e 1151 	CALL SUBOPT_0x20
                +
000f5b e6a5     +LDI R26 , LOW ( 0x40CBD065 )
000f5c edb0     +LDI R27 , HIGH ( 0x40CBD065 )
000f5d ec8b     +LDI R24 , BYTE3 ( 0x40CBD065 )
000f5e e490     +LDI R25 , BYTE4 ( 0x40CBD065 )
                 	__GETD2N 0x40CBD065
000f5f 940e 139c 	CALL SUBOPT_0x5A
000f61 940e 1395 	CALL SUBOPT_0x59
000f63 937f      	PUSH R23
000f64 936f      	PUSH R22
000f65 93ff      	PUSH R31
000f66 93ef      	PUSH R30
000f67 940e 1151 	CALL SUBOPT_0x20
                +
000f69 e0a0     +LDI R26 , LOW ( 0x41296D00 )
000f6a e6bd     +LDI R27 , HIGH ( 0x41296D00 )
000f6b e289     +LDI R24 , BYTE3 ( 0x41296D00 )
000f6c e491     +LDI R25 , BYTE4 ( 0x41296D00 )
                 	__GETD2N 0x41296D00
000f6d 940e 1583 	CALL __ADDF12
000f6f 940e 1354 	CALL SUBOPT_0x4D
000f71 940e 139c 	CALL SUBOPT_0x5A
000f73 91af      	POP  R26
000f74 91bf      	POP  R27
000f75 918f      	POP  R24
000f76 919f      	POP  R25
000f77 940e 161f 	CALL __DIVF21
000f79 9628      	ADIW R28,8
000f7a 9508      	RET
                 _yatan:
000f7b 940e 1354 	CALL SUBOPT_0x4D
                +
000f7d eced     +LDI R30 , LOW ( 0x3ED413CD )
000f7e e1f3     +LDI R31 , HIGH ( 0x3ED413CD )
000f7f ed64     +LDI R22 , BYTE3 ( 0x3ED413CD )
000f80 e37e     +LDI R23 , BYTE4 ( 0x3ED413CD )
                 	__GETD1N 0x3ED413CD
000f81 940e 1664 	CALL __CMPF12
000f83 f420      	BRSH _0x2040020
000f84 940e 115d 	CALL SUBOPT_0x22
000f86 dfcb      	RCALL _xatan
000f87 c02d      	RJMP _0x20C0003
                 _0x2040020:
000f88 940e 1354 	CALL SUBOPT_0x4D
                +
000f8a e7ea     +LDI R30 , LOW ( 0x401A827A )
000f8b e8f2     +LDI R31 , HIGH ( 0x401A827A )
000f8c e16a     +LDI R22 , BYTE3 ( 0x401A827A )
000f8d e470     +LDI R23 , BYTE4 ( 0x401A827A )
                 	__GETD1N 0x401A827A
000f8e 940e 1664 	CALL __CMPF12
000f90 f009      	BREQ PC+2
000f91 f410      	BRCC PC+3
000f92 940c 0f9c 	JMP  _0x2040021
000f94 940e 13a5 	CALL SUBOPT_0x5B
000f96 940e 1166 	CALL SUBOPT_0x24
000f98 dfb9      	RCALL _xatan
000f99 940e 13ab 	CALL SUBOPT_0x5C
000f9b c019      	RJMP _0x20C0003
                 _0x2040021:
000f9c 940e 1354 	CALL SUBOPT_0x4D
000f9e 940e 1359 	CALL SUBOPT_0x4E
000fa0 937f      	PUSH R23
000fa1 936f      	PUSH R22
000fa2 93ff      	PUSH R31
000fa3 93ef      	PUSH R30
000fa4 940e 13a5 	CALL SUBOPT_0x5B
000fa6 940e 1583 	CALL __ADDF12
000fa8 91af      	POP  R26
000fa9 91bf      	POP  R27
000faa 918f      	POP  R24
000fab 919f      	POP  R25
000fac 940e 1166 	CALL SUBOPT_0x24
000fae dfa3      	RCALL _xatan
                +
000faf edab     +LDI R26 , LOW ( 0x3F490FDB )
000fb0 e0bf     +LDI R27 , HIGH ( 0x3F490FDB )
000fb1 e489     +LDI R24 , BYTE3 ( 0x3F490FDB )
000fb2 e39f     +LDI R25 , BYTE4 ( 0x3F490FDB )
                 	__GETD2N 0x3F490FDB
000fb3 940e 1583 	CALL __ADDF12
                 _0x20C0003:
000fb5 9624      	ADIW R28,4
000fb6 9508      	RET
                 _asin:
000fb7 940e 135e 	CALL SUBOPT_0x4F
                +
000fb9 e0e0     +LDI R30 , LOW ( 0xBF800000 )
000fba e0f0     +LDI R31 , HIGH ( 0xBF800000 )
000fbb e860     +LDI R22 , BYTE3 ( 0xBF800000 )
000fbc eb7f     +LDI R23 , BYTE4 ( 0xBF800000 )
                 	__GETD1N 0xBF800000
000fbd 940e 1664 	CALL __CMPF12
000fbf f068      	BRLO _0x2040023
000fc0 940e 1370 	CALL SUBOPT_0x52
                +
000fc2 e0e0     +LDI R30 , LOW ( 0x3F800000 )
000fc3 e0f0     +LDI R31 , HIGH ( 0x3F800000 )
000fc4 e860     +LDI R22 , BYTE3 ( 0x3F800000 )
000fc5 e37f     +LDI R23 , BYTE4 ( 0x3F800000 )
                 	__GETD1N 0x3F800000
000fc6 940e 1664 	CALL __CMPF12
000fc8 f019      	BREQ PC+4
000fc9 f010      	BRCS PC+3
000fca 940c 0fcd 	JMP  _0x2040023
000fcc c005      	RJMP _0x2040022
                 _0x2040023:
                +
000fcd efef     +LDI R30 , LOW ( 0x7F7FFFFF )
000fce efff     +LDI R31 , HIGH ( 0x7F7FFFFF )
000fcf e76f     +LDI R22 , BYTE3 ( 0x7F7FFFFF )
000fd0 e77f     +LDI R23 , BYTE4 ( 0x7F7FFFFF )
                 	__GETD1N 0x7F7FFFFF
000fd1 c040      	RJMP _0x20C0002
                 _0x2040022:
000fd2 85a8      	LDD  R26,Y+8
000fd3 23aa      	TST  R26
000fd4 f41a      	BRPL _0x2040025
000fd5 940e 137b 	CALL SUBOPT_0x54
000fd7 e011      	LDI  R17,LOW(1)
                 _0x2040025:
000fd8 940e 137f 	CALL SUBOPT_0x55
                +
000fda e0a0     +LDI R26 , LOW ( 0x3F800000 )
000fdb e0b0     +LDI R27 , HIGH ( 0x3F800000 )
000fdc e880     +LDI R24 , BYTE3 ( 0x3F800000 )
000fdd e39f     +LDI R25 , BYTE4 ( 0x3F800000 )
                 	__GETD2N 0x3F800000
000fde 940e 1161 	CALL SUBOPT_0x23
000fe0 940e 1148 	CALL SUBOPT_0x1E
                +
000fe2 83e9     +STD Y + 1 , R30
000fe3 83fa     +STD Y + 1 + 1 , R31
000fe4 836b     +STD Y + 1 + 2 , R22
000fe5 837c     +STD Y + 1 + 3 , R23
                 	__PUTD1S 1
000fe6 940e 1370 	CALL SUBOPT_0x52
                +
000fe8 efe3     +LDI R30 , LOW ( 0x3F3504F3 )
000fe9 e0f4     +LDI R31 , HIGH ( 0x3F3504F3 )
000fea e365     +LDI R22 , BYTE3 ( 0x3F3504F3 )
000feb e37f     +LDI R23 , BYTE4 ( 0x3F3504F3 )
                 	__GETD1N 0x3F3504F3
000fec 940e 1664 	CALL __CMPF12
000fee f009      	BREQ PC+2
000fef f410      	BRCC PC+3
000ff0 940c 0ffe 	JMP  _0x2040026
000ff2 940e 136b 	CALL SUBOPT_0x51
                +
000ff4 81a9     +LDD R26 , Y + 1
000ff5 81ba     +LDD R27 , Y + 1 + 1
000ff6 818b     +LDD R24 , Y + 1 + 2
000ff7 819c     +LDD R25 , Y + 1 + 3
                 	__GETD2S 1
000ff8 940e 1166 	CALL SUBOPT_0x24
000ffa df80      	RCALL _yatan
000ffb 940e 13ab 	CALL SUBOPT_0x5C
000ffd c007      	RJMP _0x2040035
                 _0x2040026:
000ffe 940e 1384 	CALL SUBOPT_0x56
001000 940e 1370 	CALL SUBOPT_0x52
001002 940e 1166 	CALL SUBOPT_0x24
001004 df76      	RCALL _yatan
                 _0x2040035:
                +
001005 83e9     +STD Y + 1 , R30
001006 83fa     +STD Y + 1 + 1 , R31
001007 836b     +STD Y + 1 + 2 , R22
001008 837c     +STD Y + 1 + 3 , R23
                 	__PUTD1S 1
001009 3010      	CPI  R17,0
00100a f029      	BREQ _0x2040028
00100b 940e 1384 	CALL SUBOPT_0x56
00100d 940e 14dd 	CALL __ANEGF1
00100f c002      	RJMP _0x20C0002
                 _0x2040028:
001010 940e 1384 	CALL SUBOPT_0x56
                 _0x20C0002:
001012 8118      	LDD  R17,Y+0
001013 9629      	ADIW R28,9
001014 9508      	RET
                 _atan2:
001015 9724      	SBIW R28,4
001016 940e 1390 	CALL SUBOPT_0x58
001018 940e 1684 	CALL __CPD10
00101a f4d9      	BRNE _0x204002D
                +
00101b 85e8     +LDD R30 , Y + 8
00101c 85f9     +LDD R31 , Y + 8 + 1
00101d 856a     +LDD R22 , Y + 8 + 2
00101e 857b     +LDD R23 , Y + 8 + 3
                 	__GETD1S 8
00101f 940e 1684 	CALL __CPD10
001021 f429      	BRNE _0x204002E
                +
001022 efef     +LDI R30 , LOW ( 0x7F7FFFFF )
001023 efff     +LDI R31 , HIGH ( 0x7F7FFFFF )
001024 e76f     +LDI R22 , BYTE3 ( 0x7F7FFFFF )
001025 e77f     +LDI R23 , BYTE4 ( 0x7F7FFFFF )
                 	__GETD1N 0x7F7FFFFF
001026 c03f      	RJMP _0x20C0001
                 _0x204002E:
001027 940e 113e 	CALL SUBOPT_0x1C
001029 940e 1688 	CALL __CPD02
00102b f42c      	BRGE _0x204002F
                +
00102c edeb     +LDI R30 , LOW ( 0x3FC90FDB )
00102d e0ff     +LDI R31 , HIGH ( 0x3FC90FDB )
00102e ec69     +LDI R22 , BYTE3 ( 0x3FC90FDB )
00102f e37f     +LDI R23 , BYTE4 ( 0x3FC90FDB )
                 	__GETD1N 0x3FC90FDB
001030 c035      	RJMP _0x20C0001
                 _0x204002F:
                +
001031 edeb     +LDI R30 , LOW ( 0xBFC90FDB )
001032 e0ff     +LDI R31 , HIGH ( 0xBFC90FDB )
001033 ec69     +LDI R22 , BYTE3 ( 0xBFC90FDB )
001034 eb7f     +LDI R23 , BYTE4 ( 0xBFC90FDB )
                 	__GETD1N 0xBFC90FDB
001035 c030      	RJMP _0x20C0001
                 _0x204002D:
001036 940e 1390 	CALL SUBOPT_0x58
001038 940e 113e 	CALL SUBOPT_0x1C
00103a 940e 161f 	CALL __DIVF21
00103c 940e 114c 	CALL SUBOPT_0x1F
                +
00103e 81ac     +LDD R26 , Y + 4
00103f 81bd     +LDD R27 , Y + 4 + 1
001040 818e     +LDD R24 , Y + 4 + 2
001041 819f     +LDD R25 , Y + 4 + 3
                 	__GETD2S 4
001042 940e 1688 	CALL __CPD02
001044 f464      	BRGE _0x2040030
001045 85ab      	LDD  R26,Y+11
001046 23aa      	TST  R26
001047 f022      	BRMI _0x2040031
001048 940e 115d 	CALL SUBOPT_0x22
00104a df30      	RCALL _yatan
00104b c01a      	RJMP _0x20C0001
                 _0x2040031:
00104c 940e 13b0 	CALL SUBOPT_0x5D
00104e 940e 14dd 	CALL __ANEGF1
001050 c015      	RJMP _0x20C0001
                 _0x2040030:
001051 85ab      	LDD  R26,Y+11
001052 23aa      	TST  R26
001053 f04a      	BRMI _0x2040032
001054 940e 13b0 	CALL SUBOPT_0x5D
                +
001056 edab     +LDI R26 , LOW ( 0x40490FDB )
001057 e0bf     +LDI R27 , HIGH ( 0x40490FDB )
001058 e489     +LDI R24 , BYTE3 ( 0x40490FDB )
001059 e490     +LDI R25 , BYTE4 ( 0x40490FDB )
                 	__GETD2N 0x40490FDB
00105a 940e 1161 	CALL SUBOPT_0x23
00105c c009      	RJMP _0x20C0001
                 _0x2040032:
00105d 940e 115d 	CALL SUBOPT_0x22
00105f df1b      	RCALL _yatan
                +
001060 edab     +LDI R26 , LOW ( 0xC0490FDB )
001061 e0bf     +LDI R27 , HIGH ( 0xC0490FDB )
001062 e489     +LDI R24 , BYTE3 ( 0xC0490FDB )
001063 ec90     +LDI R25 , BYTE4 ( 0xC0490FDB )
                 	__GETD2N 0xC0490FDB
001064 940e 1583 	CALL __ADDF12
                 _0x20C0001:
001066 962c      	ADIW R28,12
001067 9508      	RET
                 
                 	.CSEG
                 
                 	.CSEG
                 _strlen:
001068 91a9          ld   r26,y+
001069 91b9          ld   r27,y+
00106a 27ee          clr  r30
00106b 27ff          clr  r31
                 strlen0:
00106c 916d          ld   r22,x+
00106d 2366          tst  r22
00106e f011          breq strlen1
00106f 9631          adiw r30,1
001070 cffb          rjmp strlen0
                 strlen1:
001071 9508          ret
                 _strlenf:
001072 27aa          clr  r26
001073 27bb          clr  r27
001074 91e9          ld   r30,y+
001075 91f9          ld   r31,y+
                 strlenf0:
001076 9005          lpm  r0,z+
001077 2000          tst  r0
001078 f011          breq strlenf1
001079 9611          adiw r26,1
00107a cffb          rjmp strlenf0
                 strlenf1:
00107b 01fd          movw r30,r26
00107c 9508          ret
                 
                 	.CSEG
                 
                 	.DSEG
                 
                 	.CSEG
                 
                 	.DSEG
                 _string_LCD_1:
000260           	.BYTE 0x14
                 _string_LCD_2:
000274           	.BYTE 0x14
                 _gnd_ampl:
000288           	.BYTE 0x4
                 _gnd_faza:
00028c           	.BYTE 0x4
                 _rock_ampl:
000290           	.BYTE 0x4
                 _rock_faza:
000294           	.BYTE 0x4
                 _gnd_ampl_max:
000298           	.BYTE 0x4
                 _gnd_faza_max:
00029c           	.BYTE 0x4
                 _rock_ampl_max:
0002a0           	.BYTE 0x4
                 _rock_faza_max:
0002a4           	.BYTE 0x4
                 _now_ampl:
0002a8           	.BYTE 0x4
                 _now_faza:
0002ac           	.BYTE 0x4
                 _bar_rad:
0002b0           	.BYTE 0x4
                 _batt_celoe:
0002b4           	.BYTE 0x2
                 _batt_drob:
0002b6           	.BYTE 0x2
                 _temp_ampl:
0002b8           	.BYTE 0x4
                 _temp_faza:
0002bc           	.BYTE 0x4
                 __base_y_G100:
0002c0           	.BYTE 0x4
                 __lcd_x:
0002c4           	.BYTE 0x1
                 __lcd_y:
0002c5           	.BYTE 0x1
                 __lcd_maxx:
0002c6           	.BYTE 0x1
                 _p_S1040024:
0002c7           	.BYTE 0x2
                 __seed_G105:
0002c9           	.BYTE 0x4
                 
                 	.CSEG
                 ;OPTIMIZER ADDED SUBROUTINE, CALLED 4 TIMES, CODE SIZE REDUCTION:3 WORDS
                 SUBOPT_0x0:
00107d 81e8      	LD   R30,Y
00107e e0f0      	LDI  R31,0
00107f 9508      	RET
                 
                 ;OPTIMIZER ADDED SUBROUTINE, CALLED 3 TIMES, CODE SIZE REDUCTION:1 WORDS
                 SUBOPT_0x1:
001080 b1e6      	IN   R30,0x6
001081 e0f0      	LDI  R31,0
001082 9508      	RET
                 
                 ;OPTIMIZER ADDED SUBROUTINE, CALLED 3 TIMES, CODE SIZE REDUCTION:5 WORDS
                 SUBOPT_0x2:
001083 e0e1      	LDI  R30,LOW(1)
001084 e0f0      	LDI  R31,HIGH(1)
001085 93fa      	ST   -Y,R31
001086 93ea      	ST   -Y,R30
001087 940c 1409 	JMP  _delay_ms
                 
                 ;OPTIMIZER ADDED SUBROUTINE, CALLED 4 TIMES, CODE SIZE REDUCTION:3 WORDS
                 SUBOPT_0x3:
001089 e0a0      	LDI  R26,0
00108a 9984      	SBIC 0x10,4
00108b e0a1      	LDI  R26,1
00108c 30a0      	CPI  R26,LOW(0x0)
00108d 9508      	RET
                 
                 ;OPTIMIZER ADDED SUBROUTINE, CALLED 4 TIMES, CODE SIZE REDUCTION:3 WORDS
                 SUBOPT_0x4:
00108e e0a0      	LDI  R26,0
00108f fc26      	SBRC R2,6
001090 e0a1      	LDI  R26,1
001091 30a1      	CPI  R26,LOW(0x1)
001092 9508      	RET
                 
                 ;OPTIMIZER ADDED SUBROUTINE, CALLED 4 TIMES, CODE SIZE REDUCTION:24 WORDS
                 SUBOPT_0x5:
001093 9a96      	SBI  0x12,6
001094 e0e0      	LDI  R30,LOW(0)
001095 93ea      	ST   -Y,R30
001096 93ea      	ST   -Y,R30
001097 940e 0bce 	CALL _lcd_gotoxy
001099 e6e0      	LDI  R30,LOW(_string_LCD_1)
00109a e0f2      	LDI  R31,HIGH(_string_LCD_1)
00109b 93fa      	ST   -Y,R31
00109c 93ea      	ST   -Y,R30
00109d 9508      	RET
                 
                 ;OPTIMIZER ADDED SUBROUTINE, CALLED 4 TIMES, CODE SIZE REDUCTION:3 WORDS
                 SUBOPT_0x6:
00109e 2766      	CLR  R22
00109f 2777      	CLR  R23
0010a0 940e 14c6 	CALL __PUTPARD1
0010a2 9508      	RET
                 
                 ;OPTIMIZER ADDED SUBROUTINE, CALLED 2 TIMES, CODE SIZE REDUCTION:1 WORDS
                 SUBOPT_0x7:
0010a3 2de9      	MOV  R30,R9
0010a4 27ff      	CLR  R31
0010a5 2766      	CLR  R22
0010a6 2777      	CLR  R23
0010a7 940e 14c6 	CALL __PUTPARD1
0010a9 9508      	RET
                 
                 ;OPTIMIZER ADDED SUBROUTINE, CALLED 3 TIMES, CODE SIZE REDUCTION:5 WORDS
                 SUBOPT_0x8:
0010aa 2de8      	MOV  R30,R8
0010ab 27ff      	CLR  R31
0010ac 2766      	CLR  R22
0010ad 2777      	CLR  R23
0010ae 940e 14c6 	CALL __PUTPARD1
0010b0 9508      	RET
                 
                 ;OPTIMIZER ADDED SUBROUTINE, CALLED 5 TIMES, CODE SIZE REDUCTION:53 WORDS
                 SUBOPT_0x9:
0010b1 e6e0      	LDI  R30,LOW(_string_LCD_1)
0010b2 e0f2      	LDI  R31,HIGH(_string_LCD_1)
0010b3 93fa      	ST   -Y,R31
0010b4 93ea      	ST   -Y,R30
0010b5 940e 0c25 	CALL _lcd_puts
0010b7 e0e0      	LDI  R30,LOW(0)
0010b8 93ea      	ST   -Y,R30
0010b9 e0e1      	LDI  R30,LOW(1)
0010ba 93ea      	ST   -Y,R30
0010bb 940e 0bce 	CALL _lcd_gotoxy
0010bd e7e4      	LDI  R30,LOW(_string_LCD_2)
0010be e0f2      	LDI  R31,HIGH(_string_LCD_2)
0010bf 93fa      	ST   -Y,R31
0010c0 93ea      	ST   -Y,R30
0010c1 9508      	RET
                 
                 ;OPTIMIZER ADDED SUBROUTINE, CALLED 2 TIMES, CODE SIZE REDUCTION:1 WORDS
                 SUBOPT_0xA:
0010c2 2deb      	MOV  R30,R11
0010c3 27ff      	CLR  R31
0010c4 2766      	CLR  R22
0010c5 2777      	CLR  R23
0010c6 940e 14c6 	CALL __PUTPARD1
0010c8 9508      	RET
                 
                 ;OPTIMIZER ADDED SUBROUTINE, CALLED 2 TIMES, CODE SIZE REDUCTION:1 WORDS
                 SUBOPT_0xB:
0010c9 2dea      	MOV  R30,R10
0010ca 27ff      	CLR  R31
0010cb 2766      	CLR  R22
0010cc 2777      	CLR  R23
0010cd 940e 14c6 	CALL __PUTPARD1
0010cf 9508      	RET
                 
                 ;OPTIMIZER ADDED SUBROUTINE, CALLED 3 TIMES, CODE SIZE REDUCTION:1 WORDS
                 SUBOPT_0xC:
0010d0 e088      	LDI  R24,8
0010d1 940e 0e63 	CALL _sprintf
0010d3 962c      	ADIW R28,12
0010d4 9508      	RET
                 
                 ;OPTIMIZER ADDED SUBROUTINE, CALLED 29 TIMES, CODE SIZE REDUCTION:53 WORDS
                 SUBOPT_0xD:
0010d5 e7e4      	LDI  R30,LOW(_string_LCD_2)
0010d6 e0f2      	LDI  R31,HIGH(_string_LCD_2)
0010d7 93fa      	ST   -Y,R31
0010d8 93ea      	ST   -Y,R30
0010d9 9508      	RET
                 
                 ;OPTIMIZER ADDED SUBROUTINE, CALLED 6 TIMES, CODE SIZE REDUCTION:12 WORDS
                 SUBOPT_0xE:
0010da 93ea      	ST   -Y,R30
0010db e0e1      	LDI  R30,LOW(1)
0010dc 93ea      	ST   -Y,R30
0010dd 940c 0bce 	JMP  _lcd_gotoxy
                 
                 ;OPTIMIZER ADDED SUBROUTINE, CALLED 57 TIMES, CODE SIZE REDUCTION:109 WORDS
                 SUBOPT_0xF:
0010df e080      	LDI  R24,0
0010e0 940e 0e63 	CALL _sprintf
0010e2 9624      	ADIW R28,4
0010e3 9508      	RET
                 
                 ;OPTIMIZER ADDED SUBROUTINE, CALLED 3 TIMES, CODE SIZE REDUCTION:1 WORDS
                 SUBOPT_0x10:
0010e4 e0a0      	LDI  R26,0
0010e5 fc30      	SBRC R3,0
0010e6 e0a1      	LDI  R26,1
0010e7 30a1      	CPI  R26,LOW(0x1)
0010e8 9508      	RET
                 
                 ;OPTIMIZER ADDED SUBROUTINE, CALLED 3 TIMES, CODE SIZE REDUCTION:1 WORDS
                 SUBOPT_0x11:
0010e9 e0a0      	LDI  R26,0
0010ea fc21      	SBRC R2,1
0010eb e0a1      	LDI  R26,1
0010ec 30a1      	CPI  R26,LOW(0x1)
0010ed 9508      	RET
                 
                 ;OPTIMIZER ADDED SUBROUTINE, CALLED 3 TIMES, CODE SIZE REDUCTION:1 WORDS
                 SUBOPT_0x12:
0010ee e084      	LDI  R24,4
0010ef 940e 0e63 	CALL _sprintf
0010f1 9628      	ADIW R28,8
0010f2 9508      	RET
                 
                 ;OPTIMIZER ADDED SUBROUTINE, CALLED 3 TIMES, CODE SIZE REDUCTION:1 WORDS
                 SUBOPT_0x13:
0010f3 e0a0      	LDI  R26,0
0010f4 fc22      	SBRC R2,2
0010f5 e0a1      	LDI  R26,1
0010f6 30a1      	CPI  R26,LOW(0x1)
0010f7 9508      	RET
                 
                 ;OPTIMIZER ADDED SUBROUTINE, CALLED 3 TIMES, CODE SIZE REDUCTION:13 WORDS
                 SUBOPT_0x14:
0010f8 93fa      	ST   -Y,R31
0010f9 93ea      	ST   -Y,R30
0010fa 91e0 0290 	LDS  R30,_rock_ampl
0010fc 91f0 0291 	LDS  R31,_rock_ampl+1
0010fe 9160 0292 	LDS  R22,_rock_ampl+2
001100 9170 0293 	LDS  R23,_rock_ampl+3
001102 9508      	RET
                 
                 ;OPTIMIZER ADDED SUBROUTINE, CALLED 3 TIMES, CODE SIZE REDUCTION:17 WORDS
                 SUBOPT_0x15:
001103 940e 14c6 	CALL __PUTPARD1
001105 91e0 0294 	LDS  R30,_rock_faza
001107 91f0 0295 	LDS  R31,_rock_faza+1
001109 9160 0296 	LDS  R22,_rock_faza+2
00110b 9170 0297 	LDS  R23,_rock_faza+3
00110d 940e 14c6 	CALL __PUTPARD1
00110f 9508      	RET
                 
                 ;OPTIMIZER ADDED SUBROUTINE, CALLED 54 TIMES, CODE SIZE REDUCTION:103 WORDS
                 SUBOPT_0x16:
001110 93fa      	ST   -Y,R31
001111 93ea      	ST   -Y,R30
001112 cfcc      	RJMP SUBOPT_0xF
                 
                 ;OPTIMIZER ADDED SUBROUTINE, CALLED 3 TIMES, CODE SIZE REDUCTION:13 WORDS
                 SUBOPT_0x17:
001113 93fa      	ST   -Y,R31
001114 93ea      	ST   -Y,R30
001115 91e0 0288 	LDS  R30,_gnd_ampl
001117 91f0 0289 	LDS  R31,_gnd_ampl+1
001119 9160 028a 	LDS  R22,_gnd_ampl+2
00111b 9170 028b 	LDS  R23,_gnd_ampl+3
00111d 9508      	RET
                 
                 ;OPTIMIZER ADDED SUBROUTINE, CALLED 3 TIMES, CODE SIZE REDUCTION:17 WORDS
                 SUBOPT_0x18:
00111e 940e 14c6 	CALL __PUTPARD1
001120 91e0 028c 	LDS  R30,_gnd_faza
001122 91f0 028d 	LDS  R31,_gnd_faza+1
001124 9160 028e 	LDS  R22,_gnd_faza+2
001126 9170 028f 	LDS  R23,_gnd_faza+3
001128 940e 14c6 	CALL __PUTPARD1
00112a 9508      	RET
                 
                 ;OPTIMIZER ADDED SUBROUTINE, CALLED 2 TIMES, CODE SIZE REDUCTION:1 WORDS
                 SUBOPT_0x19:
00112b e0e0      	LDI  R30,LOW(0)
00112c 93ea      	ST   -Y,R30
00112d 93ea      	ST   -Y,R30
00112e 940c 0bce 	JMP  _lcd_gotoxy
                 
                 ;OPTIMIZER ADDED SUBROUTINE, CALLED 35 TIMES, CODE SIZE REDUCTION:65 WORDS
                 SUBOPT_0x1A:
001130 e6e0      	LDI  R30,LOW(_string_LCD_1)
001131 e0f2      	LDI  R31,HIGH(_string_LCD_1)
001132 93fa      	ST   -Y,R31
001133 93ea      	ST   -Y,R30
001134 9508      	RET
                 
                 ;OPTIMIZER ADDED SUBROUTINE, CALLED 2 TIMES, CODE SIZE REDUCTION:3 WORDS
                 SUBOPT_0x1B:
                +
001135 85ec     +LDD R30 , Y + 12
001136 85fd     +LDD R31 , Y + 12 + 1
001137 856e     +LDD R22 , Y + 12 + 2
001138 857f     +LDD R23 , Y + 12 + 3
                 	__GETD1S 12
                +
001139 85ac     +LDD R26 , Y + 12
00113a 85bd     +LDD R27 , Y + 12 + 1
00113b 858e     +LDD R24 , Y + 12 + 2
00113c 859f     +LDD R25 , Y + 12 + 3
                 	__GETD2S 12
00113d 9508      	RET
                 
                 ;OPTIMIZER ADDED SUBROUTINE, CALLED 4 TIMES, CODE SIZE REDUCTION:3 WORDS
                 SUBOPT_0x1C:
                +
00113e 85a8     +LDD R26 , Y + 8
00113f 85b9     +LDD R27 , Y + 8 + 1
001140 858a     +LDD R24 , Y + 8 + 2
001141 859b     +LDD R25 , Y + 8 + 3
                 	__GETD2S 8
001142 9508      	RET
                 
                 ;OPTIMIZER ADDED SUBROUTINE, CALLED 3 TIMES, CODE SIZE REDUCTION:9 WORDS
                 SUBOPT_0x1D:
                +
001143 83ec     +STD Y + 4 , R30
001144 83fd     +STD Y + 4 + 1 , R31
001145 836e     +STD Y + 4 + 2 , R22
001146 837f     +STD Y + 4 + 3 , R23
                 	__PUTD1S 4
001147 9508      	RET
                 
                 ;OPTIMIZER ADDED SUBROUTINE, CALLED 3 TIMES, CODE SIZE REDUCTION:1 WORDS
                 SUBOPT_0x1E:
001148 940e 14c6 	CALL __PUTPARD1
00114a 940c 1415 	JMP  _sqrt
                 
                 ;OPTIMIZER ADDED SUBROUTINE, CALLED 5 TIMES, CODE SIZE REDUCTION:5 WORDS
                 SUBOPT_0x1F:
                +
00114c 83e8     +STD Y + 0 , R30
00114d 83f9     +STD Y + 0 + 1 , R31
00114e 836a     +STD Y + 0 + 2 , R22
00114f 837b     +STD Y + 0 + 3 , R23
                 	__PUTD1S 0
001150 9508      	RET
                 
                 ;OPTIMIZER ADDED SUBROUTINE, CALLED 13 TIMES, CODE SIZE REDUCTION:21 WORDS
                 SUBOPT_0x20:
                +
001151 81e8     +LDD R30 , Y + 0
001152 81f9     +LDD R31 , Y + 0 + 1
001153 816a     +LDD R22 , Y + 0 + 2
001154 817b     +LDD R23 , Y + 0 + 3
                 	__GETD1S 0
001155 9508      	RET
                 
                 ;OPTIMIZER ADDED SUBROUTINE, CALLED 2 TIMES, CODE SIZE REDUCTION:1 WORDS
                 SUBOPT_0x21:
001156 940e 1466 	CALL __CWD1
001158 940e 1549 	CALL __CDF1
00115a 940e 14c6 	CALL __PUTPARD1
00115c 9508      	RET
                 
                 ;OPTIMIZER ADDED SUBROUTINE, CALLED 5 TIMES, CODE SIZE REDUCTION:5 WORDS
                 SUBOPT_0x22:
00115d dff3      	RCALL SUBOPT_0x20
00115e 940e 14c6 	CALL __PUTPARD1
001160 9508      	RET
                 
                 ;OPTIMIZER ADDED SUBROUTINE, CALLED 10 TIMES, CODE SIZE REDUCTION:15 WORDS
                 SUBOPT_0x23:
001161 940e 14d0 	CALL __SWAPD12
001163 940e 157c 	CALL __SUBF12
001165 9508      	RET
                 
                 ;OPTIMIZER ADDED SUBROUTINE, CALLED 5 TIMES, CODE SIZE REDUCTION:5 WORDS
                 SUBOPT_0x24:
001166 940e 161f 	CALL __DIVF21
001168 940e 14c6 	CALL __PUTPARD1
00116a 9508      	RET
                 
                 ;OPTIMIZER ADDED SUBROUTINE, CALLED 3 TIMES, CODE SIZE REDUCTION:1 WORDS
                 SUBOPT_0x25:
00116b 940e 02aa 	CALL _kn_klava
00116d 940c 030a 	JMP  _lcd_disp
                 
                 ;OPTIMIZER ADDED SUBROUTINE, CALLED 6 TIMES, CODE SIZE REDUCTION:67 WORDS
                 SUBOPT_0x26:
00116f 2dea      	MOV  R30,R10
001170 e0f0      	LDI  R31,0
001171 93fa      	ST   -Y,R31
001172 93ea      	ST   -Y,R30
001173 2deb      	MOV  R30,R11
001174 e0f0      	LDI  R31,0
001175 93fa      	ST   -Y,R31
001176 93ea      	ST   -Y,R30
001177 925a      	ST   -Y,R5
001178 924a      	ST   -Y,R4
001179 927a      	ST   -Y,R7
00117a 926a      	ST   -Y,R6
00117b 9508      	RET
                 
                 ;OPTIMIZER ADDED SUBROUTINE, CALLED 2 TIMES, CODE SIZE REDUCTION:3 WORDS
                 SUBOPT_0x27:
00117c 93e0 02a8 	STS  _now_ampl,R30
00117e 93f0 02a9 	STS  _now_ampl+1,R31
001180 9360 02aa 	STS  _now_ampl+2,R22
001182 9370 02ab 	STS  _now_ampl+3,R23
001184 9508      	RET
                 
                 ;OPTIMIZER ADDED SUBROUTINE, CALLED 2 TIMES, CODE SIZE REDUCTION:3 WORDS
                 SUBOPT_0x28:
001185 93e0 02ac 	STS  _now_faza,R30
001187 93f0 02ad 	STS  _now_faza+1,R31
001189 9360 02ae 	STS  _now_faza+2,R22
00118b 9370 02af 	STS  _now_faza+3,R23
00118d 9508      	RET
                 
                 ;OPTIMIZER ADDED SUBROUTINE, CALLED 4 TIMES, CODE SIZE REDUCTION:15 WORDS
                 SUBOPT_0x29:
00118e 91e0 02b0 	LDS  R30,_bar_rad
001190 91f0 02b1 	LDS  R31,_bar_rad+1
001192 9160 02b2 	LDS  R22,_bar_rad+2
001194 9170 02b3 	LDS  R23,_bar_rad+3
001196 9508      	RET
                 
                 ;OPTIMIZER ADDED SUBROUTINE, CALLED 2 TIMES, CODE SIZE REDUCTION:21 WORDS
                 SUBOPT_0x2A:
001197 91a0 029c 	LDS  R26,_gnd_faza_max
001199 91b0 029d 	LDS  R27,_gnd_faza_max+1
00119b 9180 029e 	LDS  R24,_gnd_faza_max+2
00119d 9190 029f 	LDS  R25,_gnd_faza_max+3
00119f 940e 1583 	CALL __ADDF12
                +
0011a1 e0aa     +LDI R26 , LOW ( 0x3BA3D70A )
0011a2 edb7     +LDI R27 , HIGH ( 0x3BA3D70A )
0011a3 ea83     +LDI R24 , BYTE3 ( 0x3BA3D70A )
0011a4 e39b     +LDI R25 , BYTE4 ( 0x3BA3D70A )
                 	__GETD2N 0x3BA3D70A
0011a5 940e 1583 	CALL __ADDF12
0011a7 91a0 02ac 	LDS  R26,_now_faza
0011a9 91b0 02ad 	LDS  R27,_now_faza+1
0011ab 9180 02ae 	LDS  R24,_now_faza+2
0011ad 9190 02af 	LDS  R25,_now_faza+3
0011af 940e 1664 	CALL __CMPF12
0011b1 9508      	RET
                 
                 ;OPTIMIZER ADDED SUBROUTINE, CALLED 4 TIMES, CODE SIZE REDUCTION:15 WORDS
                 SUBOPT_0x2B:
0011b2 91a0 02b0 	LDS  R26,_bar_rad
0011b4 91b0 02b1 	LDS  R27,_bar_rad+1
0011b6 9180 02b2 	LDS  R24,_bar_rad+2
0011b8 9190 02b3 	LDS  R25,_bar_rad+3
0011ba 9508      	RET
                 
                 ;OPTIMIZER ADDED SUBROUTINE, CALLED 2 TIMES, CODE SIZE REDUCTION:21 WORDS
                 SUBOPT_0x2C:
0011bb 91e0 029c 	LDS  R30,_gnd_faza_max
0011bd 91f0 029d 	LDS  R31,_gnd_faza_max+1
0011bf 9160 029e 	LDS  R22,_gnd_faza_max+2
0011c1 9170 029f 	LDS  R23,_gnd_faza_max+3
0011c3 940e 157c 	CALL __SUBF12
                +
0011c5 e0aa     +LDI R26 , LOW ( 0x3BA3D70A )
0011c6 edb7     +LDI R27 , HIGH ( 0x3BA3D70A )
0011c7 ea83     +LDI R24 , BYTE3 ( 0x3BA3D70A )
0011c8 e39b     +LDI R25 , BYTE4 ( 0x3BA3D70A )
                 	__GETD2N 0x3BA3D70A
0011c9 940e 1583 	CALL __ADDF12
0011cb 91a0 02ac 	LDS  R26,_now_faza
0011cd 91b0 02ad 	LDS  R27,_now_faza+1
0011cf 9180 02ae 	LDS  R24,_now_faza+2
0011d1 9190 02af 	LDS  R25,_now_faza+3
0011d3 940e 1664 	CALL __CMPF12
0011d5 9508      	RET
                 
                 ;OPTIMIZER ADDED SUBROUTINE, CALLED 8 TIMES, CODE SIZE REDUCTION:39 WORDS
                 SUBOPT_0x2D:
0011d6 91a0 02a8 	LDS  R26,_now_ampl
0011d8 91b0 02a9 	LDS  R27,_now_ampl+1
0011da 9180 02aa 	LDS  R24,_now_ampl+2
0011dc 9190 02ab 	LDS  R25,_now_ampl+3
0011de 9508      	RET
                 
                 ;OPTIMIZER ADDED SUBROUTINE, CALLED 2 TIMES, CODE SIZE REDUCTION:13 WORDS
                 SUBOPT_0x2E:
                +
0011df eae4     +LDI R30 , LOW ( 0x3F7D70A4 )
0011e0 e7f0     +LDI R31 , HIGH ( 0x3F7D70A4 )
0011e1 e76d     +LDI R22 , BYTE3 ( 0x3F7D70A4 )
0011e2 e37f     +LDI R23 , BYTE4 ( 0x3F7D70A4 )
                 	__GETD1N 0x3F7D70A4
0011e3 940e 15d1 	CALL __MULF12
0011e5 01df      	MOVW R26,R30
0011e6 01cb      	MOVW R24,R22
0011e7 91e0 0288 	LDS  R30,_gnd_ampl
0011e9 91f0 0289 	LDS  R31,_gnd_ampl+1
0011eb 9160 028a 	LDS  R22,_gnd_ampl+2
0011ed 9170 028b 	LDS  R23,_gnd_ampl+3
0011ef 940e 1664 	CALL __CMPF12
0011f1 9508      	RET
                 
                 ;OPTIMIZER ADDED SUBROUTINE, CALLED 2 TIMES, CODE SIZE REDUCTION:15 WORDS
                 SUBOPT_0x2F:
0011f2 dfe3      	RCALL SUBOPT_0x2D
                +
0011f3 eaee     +LDI R30 , LOW ( 0x3F8147AE )
0011f4 e4f7     +LDI R31 , HIGH ( 0x3F8147AE )
0011f5 e861     +LDI R22 , BYTE3 ( 0x3F8147AE )
0011f6 e37f     +LDI R23 , BYTE4 ( 0x3F8147AE )
                 	__GETD1N 0x3F8147AE
0011f7 940e 15d1 	CALL __MULF12
0011f9 01df      	MOVW R26,R30
0011fa 01cb      	MOVW R24,R22
0011fb 91e0 0288 	LDS  R30,_gnd_ampl
0011fd 91f0 0289 	LDS  R31,_gnd_ampl+1
0011ff 9160 028a 	LDS  R22,_gnd_ampl+2
001201 9170 028b 	LDS  R23,_gnd_ampl+3
001203 940e 1664 	CALL __CMPF12
001205 9508      	RET
                 
                 ;OPTIMIZER ADDED SUBROUTINE, CALLED 9 TIMES, CODE SIZE REDUCTION:45 WORDS
                 SUBOPT_0x30:
001206 91e0 02a8 	LDS  R30,_now_ampl
001208 91f0 02a9 	LDS  R31,_now_ampl+1
00120a 9160 02aa 	LDS  R22,_now_ampl+2
00120c 9170 02ab 	LDS  R23,_now_ampl+3
00120e 9508      	RET
                 
                 ;OPTIMIZER ADDED SUBROUTINE, CALLED 2 TIMES, CODE SIZE REDUCTION:19 WORDS
                 SUBOPT_0x31:
00120f 93e0 0288 	STS  _gnd_ampl,R30
001211 93f0 0289 	STS  _gnd_ampl+1,R31
001213 9360 028a 	STS  _gnd_ampl+2,R22
001215 9370 028b 	STS  _gnd_ampl+3,R23
001217 91e0 02ac 	LDS  R30,_now_faza
001219 91f0 02ad 	LDS  R31,_now_faza+1
00121b 9160 02ae 	LDS  R22,_now_faza+2
00121d 9170 02af 	LDS  R23,_now_faza+3
00121f 93e0 028c 	STS  _gnd_faza,R30
001221 93f0 028d 	STS  _gnd_faza+1,R31
001223 9360 028e 	STS  _gnd_faza+2,R22
001225 9370 028f 	STS  _gnd_faza+3,R23
001227 9508      	RET
                 
                 ;OPTIMIZER ADDED SUBROUTINE, CALLED 4 TIMES, CODE SIZE REDUCTION:33 WORDS
                 SUBOPT_0x32:
001228 dfdd      	RCALL SUBOPT_0x30
001229 940e 14c6 	CALL __PUTPARD1
00122b 91e0 02ac 	LDS  R30,_now_faza
00122d 91f0 02ad 	LDS  R31,_now_faza+1
00122f 9160 02ae 	LDS  R22,_now_faza+2
001231 9170 02af 	LDS  R23,_now_faza+3
001233 940e 14c6 	CALL __PUTPARD1
001235 9508      	RET
                 
                 ;OPTIMIZER ADDED SUBROUTINE, CALLED 2 TIMES, CODE SIZE REDUCTION:5 WORDS
                 SUBOPT_0x33:
001236 91e0 0288 	LDS  R30,_gnd_ampl
001238 91f0 0289 	LDS  R31,_gnd_ampl+1
00123a 9160 028a 	LDS  R22,_gnd_ampl+2
00123c 9170 028b 	LDS  R23,_gnd_ampl+3
00123e cedf      	RJMP SUBOPT_0x18
                 
                 ;OPTIMIZER ADDED SUBROUTINE, CALLED 4 TIMES, CODE SIZE REDUCTION:51 WORDS
                 SUBOPT_0x34:
00123f 91e0 02b8 	LDS  R30,_temp_ampl
001241 91f0 02b9 	LDS  R31,_temp_ampl+1
001243 9160 02ba 	LDS  R22,_temp_ampl+2
001245 9170 02bb 	LDS  R23,_temp_ampl+3
001247 940e 14c6 	CALL __PUTPARD1
001249 2dea      	MOV  R30,R10
00124a e0f0      	LDI  R31,0
00124b 93fa      	ST   -Y,R31
00124c 93ea      	ST   -Y,R30
00124d 2deb      	MOV  R30,R11
00124e e0f0      	LDI  R31,0
00124f 9508      	RET
                 
                 ;OPTIMIZER ADDED SUBROUTINE, CALLED 8 TIMES, CODE SIZE REDUCTION:11 WORDS
                 SUBOPT_0x35:
001250 940e 1512 	CALL __CFD1
001252 93fa      	ST   -Y,R31
001253 93ea      	ST   -Y,R30
001254 9508      	RET
                 
                 ;OPTIMIZER ADDED SUBROUTINE, CALLED 2 TIMES, CODE SIZE REDUCTION:5 WORDS
                 SUBOPT_0x36:
001255 91e0 028c 	LDS  R30,_gnd_faza
001257 91f0 028d 	LDS  R31,_gnd_faza+1
001259 9160 028e 	LDS  R22,_gnd_faza+2
00125b 9170 028f 	LDS  R23,_gnd_faza+3
00125d cff2      	RJMP SUBOPT_0x35
                 
                 ;OPTIMIZER ADDED SUBROUTINE, CALLED 2 TIMES, CODE SIZE REDUCTION:23 WORDS
                 SUBOPT_0x37:
00125e df2f      	RCALL SUBOPT_0x29
00125f 91a0 02a4 	LDS  R26,_rock_faza_max
001261 91b0 02a5 	LDS  R27,_rock_faza_max+1
001263 9180 02a6 	LDS  R24,_rock_faza_max+2
001265 9190 02a7 	LDS  R25,_rock_faza_max+3
001267 940e 1583 	CALL __ADDF12
                +
001269 e0aa     +LDI R26 , LOW ( 0x3BA3D70A )
00126a edb7     +LDI R27 , HIGH ( 0x3BA3D70A )
00126b ea83     +LDI R24 , BYTE3 ( 0x3BA3D70A )
00126c e39b     +LDI R25 , BYTE4 ( 0x3BA3D70A )
                 	__GETD2N 0x3BA3D70A
00126d 940e 1583 	CALL __ADDF12
00126f 91a0 02ac 	LDS  R26,_now_faza
001271 91b0 02ad 	LDS  R27,_now_faza+1
001273 9180 02ae 	LDS  R24,_now_faza+2
001275 9190 02af 	LDS  R25,_now_faza+3
001277 940e 1664 	CALL __CMPF12
001279 9508      	RET
                 
                 ;OPTIMIZER ADDED SUBROUTINE, CALLED 2 TIMES, CODE SIZE REDUCTION:23 WORDS
                 SUBOPT_0x38:
00127a df37      	RCALL SUBOPT_0x2B
00127b 91e0 02a4 	LDS  R30,_rock_faza_max
00127d 91f0 02a5 	LDS  R31,_rock_faza_max+1
00127f 9160 02a6 	LDS  R22,_rock_faza_max+2
001281 9170 02a7 	LDS  R23,_rock_faza_max+3
001283 940e 157c 	CALL __SUBF12
                +
001285 e0aa     +LDI R26 , LOW ( 0x3BA3D70A )
001286 edb7     +LDI R27 , HIGH ( 0x3BA3D70A )
001287 ea83     +LDI R24 , BYTE3 ( 0x3BA3D70A )
001288 e39b     +LDI R25 , BYTE4 ( 0x3BA3D70A )
                 	__GETD2N 0x3BA3D70A
001289 940e 1583 	CALL __ADDF12
00128b 91a0 02ac 	LDS  R26,_now_faza
00128d 91b0 02ad 	LDS  R27,_now_faza+1
00128f 9180 02ae 	LDS  R24,_now_faza+2
001291 9190 02af 	LDS  R25,_now_faza+3
001293 940e 1664 	CALL __CMPF12
001295 9508      	RET
                 
                 ;OPTIMIZER ADDED SUBROUTINE, CALLED 2 TIMES, CODE SIZE REDUCTION:15 WORDS
                 SUBOPT_0x39:
001296 df3f      	RCALL SUBOPT_0x2D
                +
001297 e3e3     +LDI R30 , LOW ( 0x3F733333 )
001298 e3f3     +LDI R31 , HIGH ( 0x3F733333 )
001299 e763     +LDI R22 , BYTE3 ( 0x3F733333 )
00129a e37f     +LDI R23 , BYTE4 ( 0x3F733333 )
                 	__GETD1N 0x3F733333
00129b 940e 15d1 	CALL __MULF12
00129d 01df      	MOVW R26,R30
00129e 01cb      	MOVW R24,R22
00129f 91e0 0290 	LDS  R30,_rock_ampl
0012a1 91f0 0291 	LDS  R31,_rock_ampl+1
0012a3 9160 0292 	LDS  R22,_rock_ampl+2
0012a5 9170 0293 	LDS  R23,_rock_ampl+3
0012a7 940e 1664 	CALL __CMPF12
0012a9 9508      	RET
                 
                 ;OPTIMIZER ADDED SUBROUTINE, CALLED 2 TIMES, CODE SIZE REDUCTION:15 WORDS
                 SUBOPT_0x3A:
0012aa df2b      	RCALL SUBOPT_0x2D
                +
0012ab e6e6     +LDI R30 , LOW ( 0x3F866666 )
0012ac e6f6     +LDI R31 , HIGH ( 0x3F866666 )
0012ad e866     +LDI R22 , BYTE3 ( 0x3F866666 )
0012ae e37f     +LDI R23 , BYTE4 ( 0x3F866666 )
                 	__GETD1N 0x3F866666
0012af 940e 15d1 	CALL __MULF12
0012b1 01df      	MOVW R26,R30
0012b2 01cb      	MOVW R24,R22
0012b3 91e0 0290 	LDS  R30,_rock_ampl
0012b5 91f0 0291 	LDS  R31,_rock_ampl+1
0012b7 9160 0292 	LDS  R22,_rock_ampl+2
0012b9 9170 0293 	LDS  R23,_rock_ampl+3
0012bb 940e 1664 	CALL __CMPF12
0012bd 9508      	RET
                 
                 ;OPTIMIZER ADDED SUBROUTINE, CALLED 2 TIMES, CODE SIZE REDUCTION:21 WORDS
                 SUBOPT_0x3B:
0012be df47      	RCALL SUBOPT_0x30
0012bf 93e0 0290 	STS  _rock_ampl,R30
0012c1 93f0 0291 	STS  _rock_ampl+1,R31
0012c3 9360 0292 	STS  _rock_ampl+2,R22
0012c5 9370 0293 	STS  _rock_ampl+3,R23
0012c7 91e0 02ac 	LDS  R30,_now_faza
0012c9 91f0 02ad 	LDS  R31,_now_faza+1
0012cb 9160 02ae 	LDS  R22,_now_faza+2
0012cd 9170 02af 	LDS  R23,_now_faza+3
0012cf 93e0 0294 	STS  _rock_faza,R30
0012d1 93f0 0295 	STS  _rock_faza+1,R31
0012d3 9360 0296 	STS  _rock_faza+2,R22
0012d5 9370 0297 	STS  _rock_faza+3,R23
0012d7 9508      	RET
                 
                 ;OPTIMIZER ADDED SUBROUTINE, CALLED 2 TIMES, CODE SIZE REDUCTION:5 WORDS
                 SUBOPT_0x3C:
0012d8 91e0 0290 	LDS  R30,_rock_ampl
0012da 91f0 0291 	LDS  R31,_rock_ampl+1
0012dc 9160 0292 	LDS  R22,_rock_ampl+2
0012de 9170 0293 	LDS  R23,_rock_ampl+3
0012e0 ce22      	RJMP SUBOPT_0x15
                 
                 ;OPTIMIZER ADDED SUBROUTINE, CALLED 3 TIMES, CODE SIZE REDUCTION:17 WORDS
                 SUBOPT_0x3D:
0012e1 940e 0657 	CALL _th_cos
0012e3 93e0 02b8 	STS  _temp_ampl,R30
0012e5 93f0 02b9 	STS  _temp_ampl+1,R31
0012e7 9360 02ba 	STS  _temp_ampl+2,R22
0012e9 9370 02bb 	STS  _temp_ampl+3,R23
0012eb cf53      	RJMP SUBOPT_0x34
                 
                 ;OPTIMIZER ADDED SUBROUTINE, CALLED 2 TIMES, CODE SIZE REDUCTION:5 WORDS
                 SUBOPT_0x3E:
0012ec 91e0 0294 	LDS  R30,_rock_faza
0012ee 91f0 0295 	LDS  R31,_rock_faza+1
0012f0 9160 0296 	LDS  R22,_rock_faza+2
0012f2 9170 0297 	LDS  R23,_rock_faza+3
0012f4 cf5b      	RJMP SUBOPT_0x35
                 
                 ;OPTIMIZER ADDED SUBROUTINE, CALLED 33 TIMES, CODE SIZE REDUCTION:189 WORDS
                 SUBOPT_0x3F:
0012f5 91a0 02b8 	LDS  R26,_temp_ampl
0012f7 91b0 02b9 	LDS  R27,_temp_ampl+1
0012f9 9180 02ba 	LDS  R24,_temp_ampl+2
0012fb 9190 02bb 	LDS  R25,_temp_ampl+3
0012fd 9508      	RET
                 
                 ;OPTIMIZER ADDED SUBROUTINE, CALLED 17 TIMES, CODE SIZE REDUCTION:93 WORDS
                 SUBOPT_0x40:
0012fe 91a0 02bc 	LDS  R26,_temp_faza
001300 91b0 02bd 	LDS  R27,_temp_faza+1
001302 9180 02be 	LDS  R24,_temp_faza+2
001304 9190 02bf 	LDS  R25,_temp_faza+3
001306 9508      	RET
                 
                 ;OPTIMIZER ADDED SUBROUTINE, CALLED 3 TIMES, CODE SIZE REDUCTION:5 WORDS
                 SUBOPT_0x41:
001307 940e 0c34 	CALL __long_delay_G100
001309 e3e0      	LDI  R30,LOW(48)
00130a 93ea      	ST   -Y,R30
00130b 940c 0c39 	JMP  __lcd_init_write_G100
                 
                 ;OPTIMIZER ADDED SUBROUTINE, CALLED 3 TIMES, CODE SIZE REDUCTION:3 WORDS
                 SUBOPT_0x42:
00130d 93ea      	ST   -Y,R30
00130e 940e 0bae 	CALL __lcd_write_data
001310 940c 0c34 	JMP  __long_delay_G100
                 
                 ;OPTIMIZER ADDED SUBROUTINE, CALLED 4 TIMES, CODE SIZE REDUCTION:24 WORDS
                 SUBOPT_0x43:
001312 932a      	ST   -Y,R18
001313 85ef      	LDD  R30,Y+15
001314 89f8      	LDD  R31,Y+15+1
001315 93fa      	ST   -Y,R31
001316 93ea      	ST   -Y,R30
001317 01fe      	MOVW R30,R28
001318 963f      	ADIW R30,15
001319 93fa      	ST   -Y,R31
00131a 93ea      	ST   -Y,R30
00131b 940c 0c84 	JMP  __put_G101
                 
                 ;OPTIMIZER ADDED SUBROUTINE, CALLED 18 TIMES, CODE SIZE REDUCTION:31 WORDS
                 SUBOPT_0x44:
00131d 2fa0      	MOV  R26,R16
00131e e0b0      	LDI  R27,0
00131f 9508      	RET
                 
                 ;OPTIMIZER ADDED SUBROUTINE, CALLED 3 TIMES, CODE SIZE REDUCTION:1 WORDS
                 SUBOPT_0x45:
001320 2fe2      	MOV  R30,R18
001321 e0f0      	LDI  R31,0
001322 9508      	RET
                 
                 ;OPTIMIZER ADDED SUBROUTINE, CALLED 5 TIMES, CODE SIZE REDUCTION:9 WORDS
                 SUBOPT_0x46:
001323 89e8      	LDD  R30,Y+16
001324 89f9      	LDD  R31,Y+16+1
001325 9734      	SBIW R30,4
001326 8be8      	STD  Y+16,R30
001327 8bf9      	STD  Y+16+1,R31
001328 9508      	RET
                 
                 ;OPTIMIZER ADDED SUBROUTINE, CALLED 4 TIMES, CODE SIZE REDUCTION:21 WORDS
                 SUBOPT_0x47:
001329 85ef      	LDD  R30,Y+15
00132a 89f8      	LDD  R31,Y+15+1
00132b 93fa      	ST   -Y,R31
00132c 93ea      	ST   -Y,R30
00132d 01fe      	MOVW R30,R28
00132e 963f      	ADIW R30,15
00132f 93fa      	ST   -Y,R31
001330 93ea      	ST   -Y,R30
001331 940c 0c84 	JMP  __put_G101
                 
                 ;OPTIMIZER ADDED SUBROUTINE, CALLED 2 TIMES, CODE SIZE REDUCTION:6 WORDS
                 SUBOPT_0x48:
001333 89a8      	LDD  R26,Y+16
001334 89b9      	LDD  R27,Y+16+1
001335 9614      	ADIW R26,4
001336 940e 14be 	CALL __GETW1P
001338 83ee      	STD  Y+6,R30
001339 83ff      	STD  Y+6+1,R31
00133a 93fa      	ST   -Y,R31
00133b 93ea      	ST   -Y,R30
00133c 9508      	RET
                 
                 ;OPTIMIZER ADDED SUBROUTINE, CALLED 3 TIMES, CODE SIZE REDUCTION:3 WORDS
                 SUBOPT_0x49:
00133d e0e4      	LDI  R30,LOW(4)
00133e e0f0      	LDI  R31,HIGH(4)
00133f 23ea      	AND  R30,R26
001340 23fb      	AND  R31,R27
001341 9730      	SBIW R30,0
001342 9508      	RET
                 
                 ;OPTIMIZER ADDED SUBROUTINE, CALLED 2 TIMES, CODE SIZE REDUCTION:2 WORDS
                 SUBOPT_0x4A:
001343 89a8      	LDD  R26,Y+16
001344 89b9      	LDD  R27,Y+16+1
001345 9614      	ADIW R26,4
001346 940e 14be 	CALL __GETW1P
001348 87ea      	STD  Y+10,R30
001349 87fb      	STD  Y+10+1,R31
00134a 9508      	RET
                 
                 ;OPTIMIZER ADDED SUBROUTINE, CALLED 3 TIMES, CODE SIZE REDUCTION:1 WORDS
                 SUBOPT_0x4B:
00134b efeb      	LDI  R30,LOW(65531)
00134c efff      	LDI  R31,HIGH(65531)
00134d 23ea      	AND  R30,R26
00134e 2f0e      	MOV  R16,R30
00134f 9508      	RET
                 
                 ;OPTIMIZER ADDED SUBROUTINE, CALLED 3 TIMES, CODE SIZE REDUCTION:3 WORDS
                 SUBOPT_0x4C:
001350 2fe0      	MOV  R30,R16
001351 e0f0      	LDI  R31,0
001352 70e1      	ANDI R30,LOW(0x1)
001353 9508      	RET
                 
                 ;OPTIMIZER ADDED SUBROUTINE, CALLED 6 TIMES, CODE SIZE REDUCTION:7 WORDS
                 SUBOPT_0x4D:
                +
001354 81a8     +LDD R26 , Y + 0
001355 81b9     +LDD R27 , Y + 0 + 1
001356 818a     +LDD R24 , Y + 0 + 2
001357 819b     +LDD R25 , Y + 0 + 3
                 	__GETD2S 0
001358 9508      	RET
                 
                 ;OPTIMIZER ADDED SUBROUTINE, CALLED 2 TIMES, CODE SIZE REDUCTION:1 WORDS
                 SUBOPT_0x4E:
                +
001359 e0e0     +LDI R30 , LOW ( 0x3F800000 )
00135a e0f0     +LDI R31 , HIGH ( 0x3F800000 )
00135b e860     +LDI R22 , BYTE3 ( 0x3F800000 )
00135c e37f     +LDI R23 , BYTE4 ( 0x3F800000 )
                 	__GETD1N 0x3F800000
00135d ce03      	RJMP SUBOPT_0x23
                 
                 ;OPTIMIZER ADDED SUBROUTINE, CALLED 2 TIMES, CODE SIZE REDUCTION:2 WORDS
                 SUBOPT_0x4F:
00135e 9724      	SBIW R28,4
00135f 931a      	ST   -Y,R17
001360 e010      	LDI  R17,0
                +
001361 81ad     +LDD R26 , Y + 5
001362 81be     +LDD R27 , Y + 5 + 1
001363 818f     +LDD R24 , Y + 5 + 2
001364 8598     +LDD R25 , Y + 5 + 3
                 	__GETD2S 5
001365 9508      	RET
                 
                 ;OPTIMIZER ADDED SUBROUTINE, CALLED 6 TIMES, CODE SIZE REDUCTION:7 WORDS
                 SUBOPT_0x50:
                +
001366 83ed     +STD Y + 5 , R30
001367 83fe     +STD Y + 5 + 1 , R31
001368 836f     +STD Y + 5 + 2 , R22
001369 8778     +STD Y + 5 + 3 , R23
                 	__PUTD1S 5
00136a 9508      	RET
                 
                 ;OPTIMIZER ADDED SUBROUTINE, CALLED 6 TIMES, CODE SIZE REDUCTION:7 WORDS
                 SUBOPT_0x51:
                +
00136b 81ed     +LDD R30 , Y + 5
00136c 81fe     +LDD R31 , Y + 5 + 1
00136d 816f     +LDD R22 , Y + 5 + 2
00136e 8578     +LDD R23 , Y + 5 + 3
                 	__GETD1S 5
00136f 9508      	RET
                 
                 ;OPTIMIZER ADDED SUBROUTINE, CALLED 11 TIMES, CODE SIZE REDUCTION:17 WORDS
                 SUBOPT_0x52:
                +
001370 81ad     +LDD R26 , Y + 5
001371 81be     +LDD R27 , Y + 5 + 1
001372 818f     +LDD R24 , Y + 5 + 2
001373 8598     +LDD R25 , Y + 5 + 3
                 	__GETD2S 5
001374 9508      	RET
                 
                 ;OPTIMIZER ADDED SUBROUTINE, CALLED 3 TIMES, CODE SIZE REDUCTION:5 WORDS
                 SUBOPT_0x53:
001375 dffa      	RCALL SUBOPT_0x52
                +
001376 e0e0     +LDI R30 , LOW ( 0x3F000000 )
001377 e0f0     +LDI R31 , HIGH ( 0x3F000000 )
001378 e060     +LDI R22 , BYTE3 ( 0x3F000000 )
001379 e37f     +LDI R23 , BYTE4 ( 0x3F000000 )
                 	__GETD1N 0x3F000000
00137a 9508      	RET
                 
                 ;OPTIMIZER ADDED SUBROUTINE, CALLED 2 TIMES, CODE SIZE REDUCTION:1 WORDS
                 SUBOPT_0x54:
00137b dfef      	RCALL SUBOPT_0x51
00137c 940e 14dd 	CALL __ANEGF1
00137e cfe7      	RJMP SUBOPT_0x50
                 
                 ;OPTIMIZER ADDED SUBROUTINE, CALLED 2 TIMES, CODE SIZE REDUCTION:1 WORDS
                 SUBOPT_0x55:
00137f dfeb      	RCALL SUBOPT_0x51
001380 dfef      	RCALL SUBOPT_0x52
001381 940e 15d1 	CALL __MULF12
001383 9508      	RET
                 
                 ;OPTIMIZER ADDED SUBROUTINE, CALLED 5 TIMES, CODE SIZE REDUCTION:5 WORDS
                 SUBOPT_0x56:
                +
001384 81e9     +LDD R30 , Y + 1
001385 81fa     +LDD R31 , Y + 1 + 1
001386 816b     +LDD R22 , Y + 1 + 2
001387 817c     +LDD R23 , Y + 1 + 3
                 	__GETD1S 1
001388 9508      	RET
                 
                 ;OPTIMIZER ADDED SUBROUTINE, CALLED 2 TIMES, CODE SIZE REDUCTION:1 WORDS
                 SUBOPT_0x57:
                +
001389 81a9     +LDD R26 , Y + 1
00138a 81ba     +LDD R27 , Y + 1 + 1
00138b 818b     +LDD R24 , Y + 1 + 2
00138c 819c     +LDD R25 , Y + 1 + 3
                 	__GETD2S 1
00138d 940e 15d1 	CALL __MULF12
00138f 9508      	RET
                 
                 ;OPTIMIZER ADDED SUBROUTINE, CALLED 3 TIMES, CODE SIZE REDUCTION:1 WORDS
                 SUBOPT_0x58:
                +
001390 81ec     +LDD R30 , Y + 4
001391 81fd     +LDD R31 , Y + 4 + 1
001392 816e     +LDD R22 , Y + 4 + 2
001393 817f     +LDD R23 , Y + 4 + 3
                 	__GETD1S 4
001394 9508      	RET
                 
                 ;OPTIMIZER ADDED SUBROUTINE, CALLED 2 TIMES, CODE SIZE REDUCTION:1 WORDS
                 SUBOPT_0x59:
                +
001395 81ac     +LDD R26 , Y + 4
001396 81bd     +LDD R27 , Y + 4 + 1
001397 818e     +LDD R24 , Y + 4 + 2
001398 819f     +LDD R25 , Y + 4 + 3
                 	__GETD2S 4
001399 940e 15d1 	CALL __MULF12
00139b 9508      	RET
                 
                 ;OPTIMIZER ADDED SUBROUTINE, CALLED 2 TIMES, CODE SIZE REDUCTION:3 WORDS
                 SUBOPT_0x5A:
00139c 940e 15d1 	CALL __MULF12
                +
00139e e4ae     +LDI R26 , LOW ( 0x414A8F4E )
00139f e8bf     +LDI R27 , HIGH ( 0x414A8F4E )
0013a0 e48a     +LDI R24 , BYTE3 ( 0x414A8F4E )
0013a1 e491     +LDI R25 , BYTE4 ( 0x414A8F4E )
                 	__GETD2N 0x414A8F4E
0013a2 940e 1583 	CALL __ADDF12
0013a4 9508      	RET
                 
                 ;OPTIMIZER ADDED SUBROUTINE, CALLED 2 TIMES, CODE SIZE REDUCTION:1 WORDS
                 SUBOPT_0x5B:
0013a5 ddab      	RCALL SUBOPT_0x20
                +
0013a6 e0a0     +LDI R26 , LOW ( 0x3F800000 )
0013a7 e0b0     +LDI R27 , HIGH ( 0x3F800000 )
0013a8 e880     +LDI R24 , BYTE3 ( 0x3F800000 )
0013a9 e39f     +LDI R25 , BYTE4 ( 0x3F800000 )
                 	__GETD2N 0x3F800000
0013aa 9508      	RET
                 
                 ;OPTIMIZER ADDED SUBROUTINE, CALLED 2 TIMES, CODE SIZE REDUCTION:1 WORDS
                 SUBOPT_0x5C:
                +
0013ab edab     +LDI R26 , LOW ( 0x3FC90FDB )
0013ac e0bf     +LDI R27 , HIGH ( 0x3FC90FDB )
0013ad ec89     +LDI R24 , BYTE3 ( 0x3FC90FDB )
0013ae e39f     +LDI R25 , BYTE4 ( 0x3FC90FDB )
                 	__GETD2N 0x3FC90FDB
0013af cdb1      	RJMP SUBOPT_0x23
                 
                 ;OPTIMIZER ADDED SUBROUTINE, CALLED 2 TIMES, CODE SIZE REDUCTION:3 WORDS
                 SUBOPT_0x5D:
0013b0 dda0      	RCALL SUBOPT_0x20
0013b1 940e 14dd 	CALL __ANEGF1
0013b3 940e 14c6 	CALL __PUTPARD1
0013b5 940c 0f7b 	JMP  _yatan
                 
                 
                 	.CSEG
                 	.equ __i2c_dir=__i2c_port-1
                 	.equ __i2c_pin=__i2c_port-2
                 _i2c_init:
0013b7 98c0      	cbi  __i2c_port,__scl_bit
0013b8 98c1      	cbi  __i2c_port,__sda_bit
0013b9 9ab8      	sbi  __i2c_dir,__scl_bit
0013ba 98b9      	cbi  __i2c_dir,__sda_bit
0013bb c015      	rjmp __i2c_delay2
                 _i2c_start:
0013bc 98b9      	cbi  __i2c_dir,__sda_bit
0013bd 98b8      	cbi  __i2c_dir,__scl_bit
0013be 27ee      	clr  r30
0013bf 0000      	nop
0013c0 9bb1      	sbis __i2c_pin,__sda_bit
0013c1 9508      	ret
0013c2 9bb0      	sbis __i2c_pin,__scl_bit
0013c3 9508      	ret
0013c4 d004      	rcall __i2c_delay1
0013c5 9ab9      	sbi  __i2c_dir,__sda_bit
0013c6 d002      	rcall __i2c_delay1
0013c7 9ab8      	sbi  __i2c_dir,__scl_bit
0013c8 e0e1      	ldi  r30,1
                 __i2c_delay1:
0013c9 e16b      	ldi  r22,27
0013ca c007      	rjmp __i2c_delay2l
                 _i2c_stop:
0013cb 9ab9      	sbi  __i2c_dir,__sda_bit
0013cc 9ab8      	sbi  __i2c_dir,__scl_bit
0013cd d003      	rcall __i2c_delay2
0013ce 98b8      	cbi  __i2c_dir,__scl_bit
0013cf dff9      	rcall __i2c_delay1
0013d0 98b9      	cbi  __i2c_dir,__sda_bit
                 __i2c_delay2:
0013d1 e367      	ldi  r22,55
                 __i2c_delay2l:
0013d2 956a      	dec  r22
0013d3 f7f1      	brne __i2c_delay2l
0013d4 9508      	ret
                 _i2c_read:
0013d5 e078      	ldi  r23,8
                 __i2c_read0:
0013d6 98b8      	cbi  __i2c_dir,__scl_bit
0013d7 dff1      	rcall __i2c_delay1
                 __i2c_read3:
0013d8 9bb0      	sbis __i2c_pin,__scl_bit
0013d9 cffe      	rjmp __i2c_read3
0013da dfee      	rcall __i2c_delay1
0013db 9488      	clc
0013dc 99b1      	sbic __i2c_pin,__sda_bit
0013dd 9408      	sec
0013de 9ab8      	sbi  __i2c_dir,__scl_bit
0013df dff1      	rcall __i2c_delay2
0013e0 1fee      	rol  r30
0013e1 957a      	dec  r23
0013e2 f799      	brne __i2c_read0
0013e3 9179      	ld   r23,y+
0013e4 2377      	tst  r23
0013e5 f411      	brne __i2c_read1
0013e6 98b9      	cbi  __i2c_dir,__sda_bit
0013e7 c001      	rjmp __i2c_read2
                 __i2c_read1:
0013e8 9ab9      	sbi  __i2c_dir,__sda_bit
                 __i2c_read2:
0013e9 dfdf      	rcall __i2c_delay1
0013ea 98b8      	cbi  __i2c_dir,__scl_bit
0013eb dfe5      	rcall __i2c_delay2
0013ec 9ab8      	sbi  __i2c_dir,__scl_bit
0013ed dfdb      	rcall __i2c_delay1
0013ee 98b9      	cbi  __i2c_dir,__sda_bit
0013ef cfd9      	rjmp __i2c_delay1
                 
                 _i2c_write:
0013f0 91e9      	ld   r30,y+
0013f1 e078      	ldi  r23,8
                 __i2c_write0:
0013f2 0fee      	lsl  r30
0013f3 f410      	brcc __i2c_write1
0013f4 98b9      	cbi  __i2c_dir,__sda_bit
0013f5 c001      	rjmp __i2c_write2
                 __i2c_write1:
0013f6 9ab9      	sbi  __i2c_dir,__sda_bit
                 __i2c_write2:
0013f7 dfd9      	rcall __i2c_delay2
0013f8 98b8      	cbi  __i2c_dir,__scl_bit
0013f9 dfcf      	rcall __i2c_delay1
                 __i2c_write3:
0013fa 9bb0      	sbis __i2c_pin,__scl_bit
0013fb cffe      	rjmp __i2c_write3
0013fc dfcc      	rcall __i2c_delay1
0013fd 9ab8      	sbi  __i2c_dir,__scl_bit
0013fe 957a      	dec  r23
0013ff f791      	brne __i2c_write0
001400 98b9      	cbi  __i2c_dir,__sda_bit
001401 dfc7      	rcall __i2c_delay1
001402 98b8      	cbi  __i2c_dir,__scl_bit
001403 dfcd      	rcall __i2c_delay2
001404 e0e1      	ldi  r30,1
001405 99b1      	sbic __i2c_pin,__sda_bit
001406 27ee      	clr  r30
001407 9ab8      	sbi  __i2c_dir,__scl_bit
001408 9508      	ret
                 
                 _delay_ms:
001409 91e9      	ld   r30,y+
00140a 91f9      	ld   r31,y+
00140b 9630      	adiw r30,0
00140c f039      	breq __delay_ms1
                 __delay_ms0:
                +
00140d e080     +LDI R24 , LOW ( 0x1000 )
00140e e190     +LDI R25 , HIGH ( 0x1000 )
                +__DELAY_USW_LOOP :
00140f 9701     +SBIW R24 , 1
001410 f7f1     +BRNE __DELAY_USW_LOOP
                 	__DELAY_USW 0x1000
001411 95a8      	wdr
001412 9731      	sbiw r30,1
001413 f7c9      	brne __delay_ms0
                 __delay_ms1:
001414 9508      	ret
                 
                 _sqrt:
001415 9724      	sbiw r28,4
001416 935f      	push r21
001417 819f      	ldd  r25,y+7
001418 2399      	tst  r25
001419 f411      	brne __sqrt0
00141a 9628      	adiw r28,8
00141b c1a3      	rjmp __zerores
                 __sqrt0:
00141c f412      	brpl __sqrt1
00141d 9628      	adiw r28,8
00141e c1ac      	rjmp __maxres
                 __sqrt1:
00141f 934f      	push r20
001420 e442      	ldi  r20,66
001421 818e      	ldd  r24,y+6
001422 81bd      	ldd  r27,y+5
001423 81ac      	ldd  r26,y+4
                 __sqrt2:
001424 8388      	st   y,r24
001425 8399      	std  y+1,r25
001426 83aa      	std  y+2,r26
001427 83bb      	std  y+3,r27
001428 01fd      	movw r30,r26
001429 01bc      	movw r22,r24
00142a 81ac      	ldd  r26,y+4
00142b 81bd      	ldd  r27,y+5
00142c 818e      	ldd  r24,y+6
00142d 819f      	ldd  r25,y+7
00142e d1f0      	rcall __divf21
00142f 8188      	ld   r24,y
001430 8199      	ldd  r25,y+1
001431 81aa      	ldd  r26,y+2
001432 81bb      	ldd  r27,y+3
001433 d14f      	rcall __addf12
001434 d0d2      	rcall __unpack1
001435 957a      	dec  r23
001436 d0b6      	rcall __repack
001437 8188      	ld   r24,y
001438 8199      	ldd  r25,y+1
001439 81aa      	ldd  r26,y+2
00143a 81bb      	ldd  r27,y+3
00143b 27ae      	eor  r26,r30
00143c 7fa8      	andi r26,0xf8
00143d f421      	brne __sqrt4
00143e 17bf      	cp   r27,r31
00143f 0786      	cpc  r24,r22
001440 0797      	cpc  r25,r23
001441 f029      	breq __sqrt3
                 __sqrt4:
001442 954a      	dec  r20
001443 f019      	breq __sqrt3
001444 01df      	movw r26,r30
001445 01cb      	movw r24,r22
001446 cfdd      	rjmp __sqrt2
                 __sqrt3:
001447 914f      	pop  r20
001448 915f      	pop  r21
001449 9628      	adiw r28,8
00144a 9508      	ret
                 
                 __ADDW2R15:
00144b 2400      	CLR  R0
00144c 0daf      	ADD  R26,R15
00144d 1db0      	ADC  R27,R0
00144e 9508      	RET
                 
                 __ADDD12:
00144f 0fea      	ADD  R30,R26
001450 1ffb      	ADC  R31,R27
001451 1f68      	ADC  R22,R24
001452 1f79      	ADC  R23,R25
001453 9508      	RET
                 
                 __ANEGW1:
001454 95f1      	NEG  R31
001455 95e1      	NEG  R30
001456 40f0      	SBCI R31,0
001457 9508      	RET
                 
                 __ANEGD1:
001458 95f0      	COM  R31
001459 9560      	COM  R22
00145a 9570      	COM  R23
00145b 95e1      	NEG  R30
00145c 4fff      	SBCI R31,-1
00145d 4f6f      	SBCI R22,-1
00145e 4f7f      	SBCI R23,-1
00145f 9508      	RET
                 
                 __CBD1:
001460 2ffe      	MOV  R31,R30
001461 0fff      	ADD  R31,R31
001462 0bff      	SBC  R31,R31
001463 2f6f      	MOV  R22,R31
001464 2f7f      	MOV  R23,R31
001465 9508      	RET
                 
                 __CWD1:
001466 2f6f      	MOV  R22,R31
001467 0f66      	ADD  R22,R22
001468 0b66      	SBC  R22,R22
001469 2f76      	MOV  R23,R22
00146a 9508      	RET
                 
                 __CWD2:
00146b 2f8b      	MOV  R24,R27
00146c 0f88      	ADD  R24,R24
00146d 0b88      	SBC  R24,R24
00146e 2f98      	MOV  R25,R24
00146f 9508      	RET
                 
                 __MULD12U:
001470 9f7a      	MUL  R23,R26
001471 2d70      	MOV  R23,R0
001472 9f6b      	MUL  R22,R27
001473 0d70      	ADD  R23,R0
001474 9ff8      	MUL  R31,R24
001475 0d70      	ADD  R23,R0
001476 9fe9      	MUL  R30,R25
001477 0d70      	ADD  R23,R0
001478 9f6a      	MUL  R22,R26
001479 2d60      	MOV  R22,R0
00147a 0d71      	ADD  R23,R1
00147b 9ffb      	MUL  R31,R27
00147c 0d60      	ADD  R22,R0
00147d 1d71      	ADC  R23,R1
00147e 9fe8      	MUL  R30,R24
00147f 0d60      	ADD  R22,R0
001480 1d71      	ADC  R23,R1
001481 2788      	CLR  R24
001482 9ffa      	MUL  R31,R26
001483 2df0      	MOV  R31,R0
001484 0d61      	ADD  R22,R1
001485 1f78      	ADC  R23,R24
001486 9feb      	MUL  R30,R27
001487 0df0      	ADD  R31,R0
001488 1d61      	ADC  R22,R1
001489 1f78      	ADC  R23,R24
00148a 9fea      	MUL  R30,R26
00148b 2de0      	MOV  R30,R0
00148c 0df1      	ADD  R31,R1
00148d 1f68      	ADC  R22,R24
00148e 1f78      	ADC  R23,R24
00148f 9508      	RET
                 
                 __MULD12:
001490 d01a      	RCALL __CHKSIGND
001491 dfde      	RCALL __MULD12U
001492 f40e      	BRTC __MULD121
001493 dfc4      	RCALL __ANEGD1
                 __MULD121:
001494 9508      	RET
                 
                 __DIVW21U:
001495 2400      	CLR  R0
001496 2411      	CLR  R1
001497 e190      	LDI  R25,16
                 __DIVW21U1:
001498 0faa      	LSL  R26
001499 1fbb      	ROL  R27
00149a 1c00      	ROL  R0
00149b 1c11      	ROL  R1
00149c 1a0e      	SUB  R0,R30
00149d 0a1f      	SBC  R1,R31
00149e f418      	BRCC __DIVW21U2
00149f 0e0e      	ADD  R0,R30
0014a0 1e1f      	ADC  R1,R31
0014a1 c001      	RJMP __DIVW21U3
                 __DIVW21U2:
0014a2 60a1      	SBR  R26,1
                 __DIVW21U3:
0014a3 959a      	DEC  R25
0014a4 f799      	BRNE __DIVW21U1
0014a5 01fd      	MOVW R30,R26
0014a6 01d0      	MOVW R26,R0
0014a7 9508      	RET
                 
                 __MODW21U:
0014a8 dfec      	RCALL __DIVW21U
0014a9 01fd      	MOVW R30,R26
0014aa 9508      	RET
                 
                 __CHKSIGND:
0014ab 94e8      	CLT
0014ac ff77      	SBRS R23,7
0014ad c002      	RJMP __CHKSD1
0014ae dfa9      	RCALL __ANEGD1
0014af 9468      	SET
                 __CHKSD1:
0014b0 ff97      	SBRS R25,7
0014b1 c00b      	RJMP __CHKSD2
0014b2 2400      	CLR  R0
0014b3 95a0      	COM  R26
0014b4 95b0      	COM  R27
0014b5 9580      	COM  R24
0014b6 9590      	COM  R25
0014b7 9611      	ADIW R26,1
0014b8 1d80      	ADC  R24,R0
0014b9 1d90      	ADC  R25,R0
0014ba f800      	BLD  R0,0
0014bb 9403      	INC  R0
0014bc fa00      	BST  R0,0
                 __CHKSD2:
0014bd 9508      	RET
                 
                 __GETW1P:
0014be 91ed      	LD   R30,X+
0014bf 91fc      	LD   R31,X
0014c0 9711      	SBIW R26,1
0014c1 9508      	RET
                 
                 __GETW1PF:
0014c2 9005      	LPM  R0,Z+
0014c3 91f4      	LPM  R31,Z
0014c4 2de0      	MOV  R30,R0
0014c5 9508      	RET
                 
                 __PUTPARD1:
0014c6 937a      	ST   -Y,R23
0014c7 936a      	ST   -Y,R22
0014c8 93fa      	ST   -Y,R31
0014c9 93ea      	ST   -Y,R30
0014ca 9508      	RET
                 
                 __CDF2U:
0014cb 9468      	SET
0014cc c001      	RJMP __CDF2U0
                 __CDF2:
0014cd 94e8      	CLT
                 __CDF2U0:
0014ce d001      	RCALL __SWAPD12
0014cf d07a      	RCALL __CDF1U0
                 
                 __SWAPD12:
0014d0 2e18      	MOV  R1,R24
0014d1 2f86      	MOV  R24,R22
0014d2 2d61      	MOV  R22,R1
0014d3 2e19      	MOV  R1,R25
0014d4 2f97      	MOV  R25,R23
0014d5 2d71      	MOV  R23,R1
                 
                 __SWAPW12:
0014d6 2e1b      	MOV  R1,R27
0014d7 2fbf      	MOV  R27,R31
0014d8 2df1      	MOV  R31,R1
                 
                 __SWAPB12:
0014d9 2e1a      	MOV  R1,R26
0014da 2fae      	MOV  R26,R30
0014db 2de1      	MOV  R30,R1
0014dc 9508      	RET
                 
                 __ANEGF1:
0014dd 9730      	SBIW R30,0
0014de 4060      	SBCI R22,0
0014df 4070      	SBCI R23,0
0014e0 f009      	BREQ __ANEGF10
0014e1 5870      	SUBI R23,0x80
                 __ANEGF10:
0014e2 9508      	RET
                 
                 __ROUND_REPACK:
0014e3 2355      	TST  R21
0014e4 f442      	BRPL __REPACK
0014e5 3850      	CPI  R21,0x80
0014e6 f411      	BRNE __ROUND_REPACK0
0014e7 ffe0      	SBRS R30,0
0014e8 c004      	RJMP __REPACK
                 __ROUND_REPACK0:
0014e9 9631      	ADIW R30,1
0014ea 1f69      	ADC  R22,R25
0014eb 1f79      	ADC  R23,R25
0014ec f06b      	BRVS __REPACK1
                 
                 __REPACK:
0014ed e850      	LDI  R21,0x80
0014ee 2757      	EOR  R21,R23
0014ef f411      	BRNE __REPACK0
0014f0 935f      	PUSH R21
0014f1 c0cd      	RJMP __ZERORES
                 __REPACK0:
0014f2 3f5f      	CPI  R21,0xFF
0014f3 f031      	BREQ __REPACK1
0014f4 0f66      	LSL  R22
0014f5 0c00      	LSL  R0
0014f6 9557      	ROR  R21
0014f7 9567      	ROR  R22
0014f8 2f75      	MOV  R23,R21
0014f9 9508      	RET
                 __REPACK1:
0014fa 935f      	PUSH R21
0014fb 2000      	TST  R0
0014fc f00a      	BRMI __REPACK2
0014fd c0cd      	RJMP __MAXRES
                 __REPACK2:
0014fe c0c6      	RJMP __MINRES
                 
                 __UNPACK:
0014ff e850      	LDI  R21,0x80
001500 2e19      	MOV  R1,R25
001501 2215      	AND  R1,R21
001502 0f88      	LSL  R24
001503 1f99      	ROL  R25
001504 2795      	EOR  R25,R21
001505 0f55      	LSL  R21
001506 9587      	ROR  R24
                 
                 __UNPACK1:
001507 e850      	LDI  R21,0x80
001508 2e07      	MOV  R0,R23
001509 2205      	AND  R0,R21
00150a 0f66      	LSL  R22
00150b 1f77      	ROL  R23
00150c 2775      	EOR  R23,R21
00150d 0f55      	LSL  R21
00150e 9567      	ROR  R22
00150f 9508      	RET
                 
                 __CFD1U:
001510 9468      	SET
001511 c001      	RJMP __CFD1U0
                 __CFD1:
001512 94e8      	CLT
                 __CFD1U0:
001513 935f      	PUSH R21
001514 dff2      	RCALL __UNPACK1
001515 3870      	CPI  R23,0x80
001516 f018      	BRLO __CFD10
001517 3f7f      	CPI  R23,0xFF
001518 f408      	BRCC __CFD10
001519 c0a5      	RJMP __ZERORES
                 __CFD10:
00151a e156      	LDI  R21,22
00151b 1b57      	SUB  R21,R23
00151c f4aa      	BRPL __CFD11
00151d 9551      	NEG  R21
00151e 3058      	CPI  R21,8
00151f f40e      	BRTC __CFD19
001520 3059      	CPI  R21,9
                 __CFD19:
001521 f030      	BRLO __CFD17
001522 efef      	SER  R30
001523 efff      	SER  R31
001524 ef6f      	SER  R22
001525 e77f      	LDI  R23,0x7F
001526 f977      	BLD  R23,7
001527 c01a      	RJMP __CFD15
                 __CFD17:
001528 2777      	CLR  R23
001529 2355      	TST  R21
00152a f0b9      	BREQ __CFD15
                 __CFD18:
00152b 0fee      	LSL  R30
00152c 1fff      	ROL  R31
00152d 1f66      	ROL  R22
00152e 1f77      	ROL  R23
00152f 955a      	DEC  R21
001530 f7d1      	BRNE __CFD18
001531 c010      	RJMP __CFD15
                 __CFD11:
001532 2777      	CLR  R23
                 __CFD12:
001533 3058      	CPI  R21,8
001534 f028      	BRLO __CFD13
001535 2fef      	MOV  R30,R31
001536 2ff6      	MOV  R31,R22
001537 2f67      	MOV  R22,R23
001538 5058      	SUBI R21,8
001539 cff9      	RJMP __CFD12
                 __CFD13:
00153a 2355      	TST  R21
00153b f031      	BREQ __CFD15
                 __CFD14:
00153c 9576      	LSR  R23
00153d 9567      	ROR  R22
00153e 95f7      	ROR  R31
00153f 95e7      	ROR  R30
001540 955a      	DEC  R21
001541 f7d1      	BRNE __CFD14
                 __CFD15:
001542 2000      	TST  R0
001543 f40a      	BRPL __CFD16
001544 df13      	RCALL __ANEGD1
                 __CFD16:
001545 915f      	POP  R21
001546 9508      	RET
                 
                 __CDF1U:
001547 9468      	SET
001548 c001      	RJMP __CDF1U0
                 __CDF1:
001549 94e8      	CLT
                 __CDF1U0:
00154a 9730      	SBIW R30,0
00154b 4060      	SBCI R22,0
00154c 4070      	SBCI R23,0
00154d f0b1      	BREQ __CDF10
00154e 2400      	CLR  R0
00154f f026      	BRTS __CDF11
001550 2377      	TST  R23
001551 f412      	BRPL __CDF11
001552 9400      	COM  R0
001553 df04      	RCALL __ANEGD1
                 __CDF11:
001554 2e17      	MOV  R1,R23
001555 e17e      	LDI  R23,30
001556 2011      	TST  R1
                 __CDF12:
001557 f032      	BRMI __CDF13
001558 957a      	DEC  R23
001559 0fee      	LSL  R30
00155a 1fff      	ROL  R31
00155b 1f66      	ROL  R22
00155c 1c11      	ROL  R1
00155d cff9      	RJMP __CDF12
                 __CDF13:
00155e 2fef      	MOV  R30,R31
00155f 2ff6      	MOV  R31,R22
001560 2d61      	MOV  R22,R1
001561 935f      	PUSH R21
001562 df8a      	RCALL __REPACK
001563 915f      	POP  R21
                 __CDF10:
001564 9508      	RET
                 
                 __SWAPACC:
001565 934f      	PUSH R20
001566 01af      	MOVW R20,R30
001567 01fd      	MOVW R30,R26
001568 01da      	MOVW R26,R20
001569 01ab      	MOVW R20,R22
00156a 01bc      	MOVW R22,R24
00156b 01ca      	MOVW R24,R20
00156c 2d40      	MOV  R20,R0
00156d 2c01      	MOV  R0,R1
00156e 2e14      	MOV  R1,R20
00156f 914f      	POP  R20
001570 9508      	RET
                 
                 __UADD12:
001571 0fea      	ADD  R30,R26
001572 1ffb      	ADC  R31,R27
001573 1f68      	ADC  R22,R24
001574 9508      	RET
                 
                 __NEGMAN1:
001575 95e0      	COM  R30
001576 95f0      	COM  R31
001577 9560      	COM  R22
001578 5fef      	SUBI R30,-1
001579 4fff      	SBCI R31,-1
00157a 4f6f      	SBCI R22,-1
00157b 9508      	RET
                 
                 __SUBF12:
00157c 935f      	PUSH R21
00157d df81      	RCALL __UNPACK
00157e 3890      	CPI  R25,0x80
00157f f171      	BREQ __ADDF129
001580 e850      	LDI  R21,0x80
001581 2615      	EOR  R1,R21
                 
001582 c004      	RJMP __ADDF120
                 
                 __ADDF12:
001583 935f      	PUSH R21
001584 df7a      	RCALL __UNPACK
001585 3890      	CPI  R25,0x80
001586 f139      	BREQ __ADDF129
                 
                 __ADDF120:
001587 3870      	CPI  R23,0x80
001588 f121      	BREQ __ADDF128
                 __ADDF121:
001589 2f57      	MOV  R21,R23
00158a 1b59      	SUB  R21,R25
00158b f113      	BRVS __ADDF129
00158c f412      	BRPL __ADDF122
00158d dfd7      	RCALL __SWAPACC
00158e cffa      	RJMP __ADDF121
                 __ADDF122:
00158f 3158      	CPI  R21,24
001590 f018      	BRLO __ADDF123
001591 27aa      	CLR  R26
001592 27bb      	CLR  R27
001593 2788      	CLR  R24
                 __ADDF123:
001594 3058      	CPI  R21,8
001595 f028      	BRLO __ADDF124
001596 2fab      	MOV  R26,R27
001597 2fb8      	MOV  R27,R24
001598 2788      	CLR  R24
001599 5058      	SUBI R21,8
00159a cff9      	RJMP __ADDF123
                 __ADDF124:
00159b 2355      	TST  R21
00159c f029      	BREQ __ADDF126
                 __ADDF125:
00159d 9586      	LSR  R24
00159e 95b7      	ROR  R27
00159f 95a7      	ROR  R26
0015a0 955a      	DEC  R21
0015a1 f7d9      	BRNE __ADDF125
                 __ADDF126:
0015a2 2d50      	MOV  R21,R0
0015a3 2551      	EOR  R21,R1
0015a4 f062      	BRMI __ADDF127
0015a5 dfcb      	RCALL __UADD12
0015a6 f438      	BRCC __ADDF129
0015a7 9567      	ROR  R22
0015a8 95f7      	ROR  R31
0015a9 95e7      	ROR  R30
0015aa 9573      	INC  R23
0015ab f413      	BRVC __ADDF129
0015ac c01e      	RJMP __MAXRES
                 __ADDF128:
0015ad dfb7      	RCALL __SWAPACC
                 __ADDF129:
0015ae df3e      	RCALL __REPACK
0015af 915f      	POP  R21
0015b0 9508      	RET
                 __ADDF127:
0015b1 1bea      	SUB  R30,R26
0015b2 0bfb      	SBC  R31,R27
0015b3 0b68      	SBC  R22,R24
0015b4 f051      	BREQ __ZERORES
0015b5 f410      	BRCC __ADDF1210
0015b6 9400      	COM  R0
0015b7 dfbd      	RCALL __NEGMAN1
                 __ADDF1210:
0015b8 2366      	TST  R22
0015b9 f3a2      	BRMI __ADDF129
0015ba 0fee      	LSL  R30
0015bb 1fff      	ROL  R31
0015bc 1f66      	ROL  R22
0015bd 957a      	DEC  R23
0015be f7cb      	BRVC __ADDF1210
                 
                 __ZERORES:
0015bf 27ee      	CLR  R30
0015c0 27ff      	CLR  R31
0015c1 2766      	CLR  R22
0015c2 2777      	CLR  R23
0015c3 915f      	POP  R21
0015c4 9508      	RET
                 
                 __MINRES:
0015c5 efef      	SER  R30
0015c6 efff      	SER  R31
0015c7 e76f      	LDI  R22,0x7F
0015c8 ef7f      	SER  R23
0015c9 915f      	POP  R21
0015ca 9508      	RET
                 
                 __MAXRES:
0015cb efef      	SER  R30
0015cc efff      	SER  R31
0015cd e76f      	LDI  R22,0x7F
0015ce e77f      	LDI  R23,0x7F
0015cf 915f      	POP  R21
0015d0 9508      	RET
                 
                 __MULF12:
0015d1 935f      	PUSH R21
0015d2 df2c      	RCALL __UNPACK
0015d3 3870      	CPI  R23,0x80
0015d4 f351      	BREQ __ZERORES
0015d5 3890      	CPI  R25,0x80
0015d6 f341      	BREQ __ZERORES
0015d7 2401      	EOR  R0,R1
0015d8 9408      	SEC
0015d9 1f79      	ADC  R23,R25
0015da f423      	BRVC __MULF124
0015db f31c      	BRLT __ZERORES
                 __MULF125:
0015dc 2000      	TST  R0
0015dd f33a      	BRMI __MINRES
0015de cfec      	RJMP __MAXRES
                 __MULF124:
0015df 920f      	PUSH R0
0015e0 931f      	PUSH R17
0015e1 932f      	PUSH R18
0015e2 933f      	PUSH R19
0015e3 934f      	PUSH R20
0015e4 2711      	CLR  R17
0015e5 2722      	CLR  R18
0015e6 2799      	CLR  R25
0015e7 9f68      	MUL  R22,R24
0015e8 01a0      	MOVW R20,R0
0015e9 9f8f      	MUL  R24,R31
0015ea 2d30      	MOV  R19,R0
0015eb 0d41      	ADD  R20,R1
0015ec 1f59      	ADC  R21,R25
0015ed 9f6b      	MUL  R22,R27
0015ee 0d30      	ADD  R19,R0
0015ef 1d41      	ADC  R20,R1
0015f0 1f59      	ADC  R21,R25
0015f1 9f8e      	MUL  R24,R30
0015f2 d027      	RCALL __MULF126
0015f3 9fbf      	MUL  R27,R31
0015f4 d025      	RCALL __MULF126
0015f5 9f6a      	MUL  R22,R26
0015f6 d023      	RCALL __MULF126
0015f7 9fbe      	MUL  R27,R30
0015f8 d01d      	RCALL __MULF127
0015f9 9faf      	MUL  R26,R31
0015fa d01b      	RCALL __MULF127
0015fb 9fae      	MUL  R26,R30
0015fc 0d11      	ADD  R17,R1
0015fd 1f29      	ADC  R18,R25
0015fe 1f39      	ADC  R19,R25
0015ff 1f49      	ADC  R20,R25
001600 1f59      	ADC  R21,R25
001601 2fe3      	MOV  R30,R19
001602 2ff4      	MOV  R31,R20
001603 2f65      	MOV  R22,R21
001604 2f52      	MOV  R21,R18
001605 914f      	POP  R20
001606 913f      	POP  R19
001607 912f      	POP  R18
001608 911f      	POP  R17
001609 900f      	POP  R0
00160a 2366      	TST  R22
00160b f02a      	BRMI __MULF122
00160c 0f55      	LSL  R21
00160d 1fee      	ROL  R30
00160e 1fff      	ROL  R31
00160f 1f66      	ROL  R22
001610 c002      	RJMP __MULF123
                 __MULF122:
001611 9573      	INC  R23
001612 f24b      	BRVS __MULF125
                 __MULF123:
001613 decf      	RCALL __ROUND_REPACK
001614 915f      	POP  R21
001615 9508      	RET
                 
                 __MULF127:
001616 0d10      	ADD  R17,R0
001617 1d21      	ADC  R18,R1
001618 1f39      	ADC  R19,R25
001619 c002      	RJMP __MULF128
                 __MULF126:
00161a 0d20      	ADD  R18,R0
00161b 1d31      	ADC  R19,R1
                 __MULF128:
00161c 1f49      	ADC  R20,R25
00161d 1f59      	ADC  R21,R25
00161e 9508      	RET
                 
                 __DIVF21:
00161f 935f      	PUSH R21
001620 dede      	RCALL __UNPACK
001621 3870      	CPI  R23,0x80
001622 f421      	BRNE __DIVF210
001623 2011      	TST  R1
                 __DIVF211:
001624 f40a      	BRPL __DIVF219
001625 cf9f      	RJMP __MINRES
                 __DIVF219:
001626 cfa4      	RJMP __MAXRES
                 __DIVF210:
001627 3890      	CPI  R25,0x80
001628 f409      	BRNE __DIVF218
                 __DIVF217:
001629 cf95      	RJMP __ZERORES
                 __DIVF218:
00162a 2401      	EOR  R0,R1
00162b 9408      	SEC
00162c 0b97      	SBC  R25,R23
00162d f41b      	BRVC __DIVF216
00162e f3d4      	BRLT __DIVF217
00162f 2000      	TST  R0
001630 cff3      	RJMP __DIVF211
                 __DIVF216:
001631 2f79      	MOV  R23,R25
001632 931f      	PUSH R17
001633 932f      	PUSH R18
001634 933f      	PUSH R19
001635 934f      	PUSH R20
001636 2411      	CLR  R1
001637 2711      	CLR  R17
001638 2722      	CLR  R18
001639 2733      	CLR  R19
00163a 2744      	CLR  R20
00163b 2755      	CLR  R21
00163c e290      	LDI  R25,32
                 __DIVF212:
00163d 17ae      	CP   R26,R30
00163e 07bf      	CPC  R27,R31
00163f 0786      	CPC  R24,R22
001640 0741      	CPC  R20,R17
001641 f030      	BRLO __DIVF213
001642 1bae      	SUB  R26,R30
001643 0bbf      	SBC  R27,R31
001644 0b86      	SBC  R24,R22
001645 0b41      	SBC  R20,R17
001646 9408      	SEC
001647 c001      	RJMP __DIVF214
                 __DIVF213:
001648 9488      	CLC
                 __DIVF214:
001649 1f55      	ROL  R21
00164a 1f22      	ROL  R18
00164b 1f33      	ROL  R19
00164c 1c11      	ROL  R1
00164d 1faa      	ROL  R26
00164e 1fbb      	ROL  R27
00164f 1f88      	ROL  R24
001650 1f44      	ROL  R20
001651 959a      	DEC  R25
001652 f751      	BRNE __DIVF212
001653 01f9      	MOVW R30,R18
001654 2d61      	MOV  R22,R1
001655 914f      	POP  R20
001656 913f      	POP  R19
001657 912f      	POP  R18
001658 911f      	POP  R17
001659 2366      	TST  R22
00165a f032      	BRMI __DIVF215
00165b 0f55      	LSL  R21
00165c 1fee      	ROL  R30
00165d 1fff      	ROL  R31
00165e 1f66      	ROL  R22
00165f 957a      	DEC  R23
001660 f243      	BRVS __DIVF217
                 __DIVF215:
001661 de81      	RCALL __ROUND_REPACK
001662 915f      	POP  R21
001663 9508      	RET
                 
                 __CMPF12:
001664 2399      	TST  R25
001665 f09a      	BRMI __CMPF120
001666 2377      	TST  R23
001667 f042      	BRMI __CMPF121
001668 1797      	CP   R25,R23
001669 f048      	BRLO __CMPF122
00166a f429      	BRNE __CMPF121
00166b 17ae      	CP   R26,R30
00166c 07bf      	CPC  R27,R31
00166d 0786      	CPC  R24,R22
00166e f020      	BRLO __CMPF122
00166f f031      	BREQ __CMPF123
                 __CMPF121:
001670 9498      	CLZ
001671 9488      	CLC
001672 9508      	RET
                 __CMPF122:
001673 9498      	CLZ
001674 9408      	SEC
001675 9508      	RET
                 __CMPF123:
001676 9418      	SEZ
001677 9488      	CLC
001678 9508      	RET
                 __CMPF120:
001679 2377      	TST  R23
00167a f7c2      	BRPL __CMPF122
00167b 1797      	CP   R25,R23
00167c f398      	BRLO __CMPF121
00167d f7a9      	BRNE __CMPF122
00167e 17ea      	CP   R30,R26
00167f 07fb      	CPC  R31,R27
001680 0768      	CPC  R22,R24
001681 f388      	BRLO __CMPF122
001682 f399      	BREQ __CMPF123
001683 cfec      	RJMP __CMPF121
                 
                 __CPD10:
001684 9730      	SBIW R30,0
001685 4060      	SBCI R22,0
001686 4070      	SBCI R23,0
001687 9508      	RET
                 
                 __CPD02:
001688 2400      	CLR  R0
001689 160a      	CP   R0,R26
00168a 060b      	CPC  R0,R27
00168b 0608      	CPC  R0,R24
00168c 0609      	CPC  R0,R25
00168d 9508      	RET
                 
                 __SAVELOCR6:
00168e 935a      	ST   -Y,R21
                 __SAVELOCR5:
00168f 934a      	ST   -Y,R20
                 __SAVELOCR4:
001690 933a      	ST   -Y,R19
                 __SAVELOCR3:
001691 932a      	ST   -Y,R18
                 __SAVELOCR2:
001692 931a      	ST   -Y,R17
001693 930a      	ST   -Y,R16
001694 9508      	RET
                 
                 __LOADLOCR6:
001695 815d      	LDD  R21,Y+5
                 __LOADLOCR5:
001696 814c      	LDD  R20,Y+4
                 __LOADLOCR4:
001697 813b      	LDD  R19,Y+3
                 __LOADLOCR3:
001698 812a      	LDD  R18,Y+2
                 __LOADLOCR2:
001699 8119      	LDD  R17,Y+1
00169a 8108      	LD   R16,Y
00169b 9508      	RET
                 
                 ;END OF CODE MARKER
                 __END_OF_CODE:


RESOURCE USE INFORMATION
------------------------

Notice:
The register and instruction counts are symbol table hit counts,
and hence implicitly used resources are not counted, eg, the
'lpm' instruction without operands implicitly uses r0 and z,
none of which are counted.

x,y,z are separate entities in the symbol table and are
counted separately from r26..r31 here.

.dseg memory usage only counts static data declared with .byte

ATmega32 register use summary:
r0 :  59 r1 :  40 r2 :  28 r3 :   4 r4 :   3 r5 :   2 r6 :   3 r7 :   2 
r8 :   5 r9 :   4 r10:   4 r11:   6 r12:  19 r13:  66 r14:   0 r15:   4 
r16:  36 r17:  52 r18:  38 r19:  20 r20:  35 r21:  83 r22: 226 r23: 220 
r24: 128 r25: 104 r26: 318 r27: 144 r28:  39 r29:   1 r30: 858 r31: 426 
x  :  15 y  : 452 z  :  15 
Registers used: 34 out of 35 (97.1%)

ATmega32 instruction use summary:
adc   :  32 add   :  23 adiw  :  40 and   :  21 andi  :   9 asr   :   0 
bclr  :   0 bld   :  15 brbc  :   0 brbs  :   0 brcc  :  59 brcs  :  10 
break :   0 breq  : 118 brge  :   5 brhc  :   0 brhs  :   0 brid  :   0 
brie  :   0 brlo  :  18 brlt  :   2 brmi  :  11 brne  : 132 brpl  :  10 
brsh  :  15 brtc  :   3 brts  :   2 brvc  :   4 brvs  :   4 bset  :   0 
bst   :   3 call  : 663 cbi   :  32 cbr   :   1 clc   :   4 clh   :   0 
cli   :   1 cln   :   0 clr   :  70 cls   :   0 clt   :   7 clv   :   0 
clz   :   2 com   :  12 cp    :  66 cpc   :  32 cpi   :  75 cpse  :   0 
dec   :  21 des   :   0 eor   :  12 fmul  :   0 fmuls :   0 fmulsu:   0 
icall :   0 ijmp  :   0 in    :  10 inc   :   5 jmp   : 101 ld    :  36 
ldd   : 229 ldi   : 839 lds   : 133 lpm   :  15 lsl   :  14 lsr   :   3 
mov   : 122 movw  :  52 mul   :  19 muls  :   1 mulsu :   0 neg   :   4 
nop   :   1 or    :   8 ori   :   5 out   :  55 pop   :  51 push  :  51 
rcall : 107 ret   : 154 reti  :   0 rjmp  : 190 rol   :  28 ror   :  15 
sbc   :  17 sbci  :  15 sbi   :  29 sbic  :  11 sbis  :   5 sbiw  :  37 
sbr   :   3 sbrc  :  18 sbrs  :   3 sec   :   6 seh   :   0 sei   :   0 
sen   :   0 ser   :   8 ses   :   0 set   :  11 sev   :   0 sez   :   1 
sleep :   0 spm   :   0 st    : 133 std   :  72 sts   :  69 sub   :  12 
subi  :  20 swap  :   2 tst   :  27 wdr   :   2 
Instructions used: 82 out of 112 (73.2%)

ATmega32 memory use summary [bytes]:
Segment   Begin    End      Code   Data   Used    Size   Use%
---------------------------------------------------------------
[.cseg] 0x000000 0x002d38  10492   1084  11576   32768  35.3%
[.dseg] 0x000060 0x0002cd      0    109    109    2048   5.3%
[.eseg] 0x000000 0x000000      0      0      0    1024   0.0%

Assembly complete, 0 errors, 10 warnings
