
AVRASM ver. 2.1.17  D:\Lexx\Pro\Project\MD_IB_Exxus_6\Out\List\out.asm Fri May 07 12:17:11 2010

D:\Lexx\Pro\Project\MD_IB_Exxus_6\Out\List\out.asm(1026): warning: Register r4 already defined by the .DEF directive
D:\Lexx\Pro\Project\MD_IB_Exxus_6\Out\List\out.asm(1027): warning: Register r6 already defined by the .DEF directive
D:\Lexx\Pro\Project\MD_IB_Exxus_6\Out\List\out.asm(1028): warning: Register r9 already defined by the .DEF directive
D:\Lexx\Pro\Project\MD_IB_Exxus_6\Out\List\out.asm(1029): warning: Register r8 already defined by the .DEF directive
D:\Lexx\Pro\Project\MD_IB_Exxus_6\Out\List\out.asm(1030): warning: Register r11 already defined by the .DEF directive
D:\Lexx\Pro\Project\MD_IB_Exxus_6\Out\List\out.asm(1031): warning: Register r10 already defined by the .DEF directive
D:\Lexx\Pro\Project\MD_IB_Exxus_6\Out\List\out.asm(1032): warning: Register r13 already defined by the .DEF directive
D:\Lexx\Pro\Project\MD_IB_Exxus_6\Out\List\out.asm(1033): warning: Register r12 already defined by the .DEF directive
                 
                 
                 ;CodeVisionAVR C Compiler V2.03.4 Standard
                 ;(C) Copyright 1998-2008 Pavel Haiduc, HP InfoTech s.r.l.
                 ;http://www.hpinfotech.com
                 
                 ;Chip type              : ATmega32
                 ;Program type           : Application
                 ;Clock frequency        : 16,384000 MHz
                 ;Memory model           : Small
                 ;Optimize for           : Size
                 ;(s)printf features     : int, width
                 ;(s)scanf features      : int, width
                 ;External RAM size      : 0
                 ;Data Stack size        : 512 byte(s)
                 ;Heap size              : 0 byte(s)
                 ;Promote char to int    : Yes
                 ;char is unsigned       : Yes
                 ;global const stored in FLASH  : No
                 ;8 bit enums            : Yes
                 ;Enhanced core instructions    : On
                 ;Smart register allocation : On
                 ;Automatic register allocation : On
                 
                 	#pragma AVRPART ADMIN PART_NAME ATmega32
                 	#pragma AVRPART MEMORY PROG_FLASH 32768
                 	#pragma AVRPART MEMORY EEPROM 1024
                 	#pragma AVRPART MEMORY INT_SRAM SIZE 2048
                 	#pragma AVRPART MEMORY INT_SRAM START_ADDR 0x60
                 
                 	.LISTMAC
                 	.EQU UDRE=0x5
                 	.EQU RXC=0x7
                 	.EQU USR=0xB
                 	.EQU UDR=0xC
                 	.EQU SPSR=0xE
                 	.EQU SPDR=0xF
                 	.EQU EERE=0x0
                 	.EQU EEWE=0x1
                 	.EQU EEMWE=0x2
                 	.EQU EECR=0x1C
                 	.EQU EEDR=0x1D
                 	.EQU EEARL=0x1E
                 	.EQU EEARH=0x1F
                 	.EQU WDTCR=0x21
                 	.EQU MCUCR=0x35
                 	.EQU GICR=0x3B
                 	.EQU SPL=0x3D
                 	.EQU SPH=0x3E
                 	.EQU SREG=0x3F
                 
                 	.DEF R0X0=R0
                 	.DEF R0X1=R1
                 	.DEF R0X2=R2
                 	.DEF R0X3=R3
                 	.DEF R0X4=R4
                 	.DEF R0X5=R5
                 	.DEF R0X6=R6
                 	.DEF R0X7=R7
                 	.DEF R0X8=R8
                 	.DEF R0X9=R9
                 	.DEF R0XA=R10
                 	.DEF R0XB=R11
                 	.DEF R0XC=R12
                 	.DEF R0XD=R13
                 	.DEF R0XE=R14
                 	.DEF R0XF=R15
                 	.DEF R0X10=R16
                 	.DEF R0X11=R17
                 	.DEF R0X12=R18
                 	.DEF R0X13=R19
                 	.DEF R0X14=R20
                 	.DEF R0X15=R21
                 	.DEF R0X16=R22
                 	.DEF R0X17=R23
                 	.DEF R0X18=R24
                 	.DEF R0X19=R25
                 	.DEF R0X1A=R26
                 	.DEF R0X1B=R27
                 	.DEF R0X1C=R28
                 	.DEF R0X1D=R29
                 	.DEF R0X1E=R30
                 	.DEF R0X1F=R31
                 
                 	.MACRO __CPD1N
                 	CPI  R30,LOW(@0)
                 	LDI  R26,HIGH(@0)
                 	CPC  R31,R26
                 	LDI  R26,BYTE3(@0)
                 	CPC  R22,R26
                 	LDI  R26,BYTE4(@0)
                 	CPC  R23,R26
                 	.ENDM
                 
                 	.MACRO __CPD2N
                 	CPI  R26,LOW(@0)
                 	LDI  R30,HIGH(@0)
                 	CPC  R27,R30
                 	LDI  R30,BYTE3(@0)
                 	CPC  R24,R30
                 	LDI  R30,BYTE4(@0)
                 	CPC  R25,R30
                 	.ENDM
                 
                 	.MACRO __CPWRR
                 	CP   R@0,R@2
                 	CPC  R@1,R@3
                 	.ENDM
                 
                 	.MACRO __CPWRN
                 	CPI  R@0,LOW(@2)
                 	LDI  R30,HIGH(@2)
                 	CPC  R@1,R30
                 	.ENDM
                 
                 	.MACRO __ADDB1MN
                 	SUBI R30,LOW(-@0-(@1))
                 	.ENDM
                 
                 	.MACRO __ADDB2MN
                 	SUBI R26,LOW(-@0-(@1))
                 	.ENDM
                 
                 	.MACRO __ADDW1MN
                 	SUBI R30,LOW(-@0-(@1))
                 	SBCI R31,HIGH(-@0-(@1))
                 	.ENDM
                 
                 	.MACRO __ADDW2MN
                 	SUBI R26,LOW(-@0-(@1))
                 	SBCI R27,HIGH(-@0-(@1))
                 	.ENDM
                 
                 	.MACRO __ADDW1FN
                 	SUBI R30,LOW(-2*@0-(@1))
                 	SBCI R31,HIGH(-2*@0-(@1))
                 	.ENDM
                 
                 	.MACRO __ADDD1FN
                 	SUBI R30,LOW(-2*@0-(@1))
                 	SBCI R31,HIGH(-2*@0-(@1))
                 	SBCI R22,BYTE3(-2*@0-(@1))
                 	.ENDM
                 
                 	.MACRO __ADDD1N
                 	SUBI R30,LOW(-@0)
                 	SBCI R31,HIGH(-@0)
                 	SBCI R22,BYTE3(-@0)
                 	SBCI R23,BYTE4(-@0)
                 	.ENDM
                 
                 	.MACRO __ADDD2N
                 	SUBI R26,LOW(-@0)
                 	SBCI R27,HIGH(-@0)
                 	SBCI R24,BYTE3(-@0)
                 	SBCI R25,BYTE4(-@0)
                 	.ENDM
                 
                 	.MACRO __SUBD1N
                 	SUBI R30,LOW(@0)
                 	SBCI R31,HIGH(@0)
                 	SBCI R22,BYTE3(@0)
                 	SBCI R23,BYTE4(@0)
                 	.ENDM
                 
                 	.MACRO __SUBD2N
                 	SUBI R26,LOW(@0)
                 	SBCI R27,HIGH(@0)
                 	SBCI R24,BYTE3(@0)
                 	SBCI R25,BYTE4(@0)
                 	.ENDM
                 
                 	.MACRO __ANDBMNN
                 	LDS  R30,@0+@1
                 	ANDI R30,LOW(@2)
                 	STS  @0+@1,R30
                 	.ENDM
                 
                 	.MACRO __ANDWMNN
                 	LDS  R30,@0+@1
                 	ANDI R30,LOW(@2)
                 	STS  @0+@1,R30
                 	LDS  R30,@0+@1+1
                 	ANDI R30,HIGH(@2)
                 	STS  @0+@1+1,R30
                 	.ENDM
                 
                 	.MACRO __ANDD1N
                 	ANDI R30,LOW(@0)
                 	ANDI R31,HIGH(@0)
                 	ANDI R22,BYTE3(@0)
                 	ANDI R23,BYTE4(@0)
                 	.ENDM
                 
                 	.MACRO __ANDD2N
                 	ANDI R26,LOW(@0)
                 	ANDI R27,HIGH(@0)
                 	ANDI R24,BYTE3(@0)
                 	ANDI R25,BYTE4(@0)
                 	.ENDM
                 
                 	.MACRO __ORBMNN
                 	LDS  R30,@0+@1
                 	ORI  R30,LOW(@2)
                 	STS  @0+@1,R30
                 	.ENDM
                 
                 	.MACRO __ORWMNN
                 	LDS  R30,@0+@1
                 	ORI  R30,LOW(@2)
                 	STS  @0+@1,R30
                 	LDS  R30,@0+@1+1
                 	ORI  R30,HIGH(@2)
                 	STS  @0+@1+1,R30
                 	.ENDM
                 
                 	.MACRO __ORD1N
                 	ORI  R30,LOW(@0)
                 	ORI  R31,HIGH(@0)
                 	ORI  R22,BYTE3(@0)
                 	ORI  R23,BYTE4(@0)
                 	.ENDM
                 
                 	.MACRO __ORD2N
                 	ORI  R26,LOW(@0)
                 	ORI  R27,HIGH(@0)
                 	ORI  R24,BYTE3(@0)
                 	ORI  R25,BYTE4(@0)
                 	.ENDM
                 
                 	.MACRO __DELAY_USB
                 	LDI  R24,LOW(@0)
                 __DELAY_USB_LOOP:
                 	DEC  R24
                 	BRNE __DELAY_USB_LOOP
                 	.ENDM
                 
                 	.MACRO __DELAY_USW
                 	LDI  R24,LOW(@0)
                 	LDI  R25,HIGH(@0)
                 __DELAY_USW_LOOP:
                 	SBIW R24,1
                 	BRNE __DELAY_USW_LOOP
                 	.ENDM
                 
                 	.MACRO __CLRD1S
                 	LDI  R30,0
                 	STD  Y+@0,R30
                 	STD  Y+@0+1,R30
                 	STD  Y+@0+2,R30
                 	STD  Y+@0+3,R30
                 	.ENDM
                 
                 	.MACRO __GETD1S
                 	LDD  R30,Y+@0
                 	LDD  R31,Y+@0+1
                 	LDD  R22,Y+@0+2
                 	LDD  R23,Y+@0+3
                 	.ENDM
                 
                 	.MACRO __PUTD1S
                 	STD  Y+@0,R30
                 	STD  Y+@0+1,R31
                 	STD  Y+@0+2,R22
                 	STD  Y+@0+3,R23
                 	.ENDM
                 
                 	.MACRO __PUTD2S
                 	STD  Y+@0,R26
                 	STD  Y+@0+1,R27
                 	STD  Y+@0+2,R24
                 	STD  Y+@0+3,R25
                 	.ENDM
                 
                 	.MACRO __POINTB1MN
                 	LDI  R30,LOW(@0+@1)
                 	.ENDM
                 
                 	.MACRO __POINTW1MN
                 	LDI  R30,LOW(@0+@1)
                 	LDI  R31,HIGH(@0+@1)
                 	.ENDM
                 
                 	.MACRO __POINTD1M
                 	LDI  R30,LOW(@0)
                 	LDI  R31,HIGH(@0)
                 	LDI  R22,BYTE3(@0)
                 	LDI  R23,BYTE4(@0)
                 	.ENDM
                 
                 	.MACRO __POINTW1FN
                 	LDI  R30,LOW(2*@0+@1)
                 	LDI  R31,HIGH(2*@0+@1)
                 	.ENDM
                 
                 	.MACRO __POINTD1FN
                 	LDI  R30,LOW(2*@0+@1)
                 	LDI  R31,HIGH(2*@0+@1)
                 	LDI  R22,BYTE3(2*@0+@1)
                 	LDI  R23,BYTE4(2*@0+@1)
                 	.ENDM
                 
                 	.MACRO __POINTB2MN
                 	LDI  R26,LOW(@0+@1)
                 	.ENDM
                 
                 	.MACRO __POINTW2MN
                 	LDI  R26,LOW(@0+@1)
                 	LDI  R27,HIGH(@0+@1)
                 	.ENDM
                 
                 	.MACRO __POINTBRM
                 	LDI  R@0,LOW(@1)
                 	.ENDM
                 
                 	.MACRO __POINTWRM
                 	LDI  R@0,LOW(@2)
                 	LDI  R@1,HIGH(@2)
                 	.ENDM
                 
                 	.MACRO __POINTBRMN
                 	LDI  R@0,LOW(@1+@2)
                 	.ENDM
                 
                 	.MACRO __POINTWRMN
                 	LDI  R@0,LOW(@2+@3)
                 	LDI  R@1,HIGH(@2+@3)
                 	.ENDM
                 
                 	.MACRO __POINTWRFN
                 	LDI  R@0,LOW(@2*2+@3)
                 	LDI  R@1,HIGH(@2*2+@3)
                 	.ENDM
                 
                 	.MACRO __GETD1N
                 	LDI  R30,LOW(@0)
                 	LDI  R31,HIGH(@0)
                 	LDI  R22,BYTE3(@0)
                 	LDI  R23,BYTE4(@0)
                 	.ENDM
                 
                 	.MACRO __GETD2N
                 	LDI  R26,LOW(@0)
                 	LDI  R27,HIGH(@0)
                 	LDI  R24,BYTE3(@0)
                 	LDI  R25,BYTE4(@0)
                 	.ENDM
                 
                 	.MACRO __GETD2S
                 	LDD  R26,Y+@0
                 	LDD  R27,Y+@0+1
                 	LDD  R24,Y+@0+2
                 	LDD  R25,Y+@0+3
                 	.ENDM
                 
                 	.MACRO __GETB1MN
                 	LDS  R30,@0+@1
                 	.ENDM
                 
                 	.MACRO __GETB1HMN
                 	LDS  R31,@0+@1
                 	.ENDM
                 
                 	.MACRO __GETW1MN
                 	LDS  R30,@0+@1
                 	LDS  R31,@0+@1+1
                 	.ENDM
                 
                 	.MACRO __GETD1MN
                 	LDS  R30,@0+@1
                 	LDS  R31,@0+@1+1
                 	LDS  R22,@0+@1+2
                 	LDS  R23,@0+@1+3
                 	.ENDM
                 
                 	.MACRO __GETBRMN
                 	LDS  R@0,@1+@2
                 	.ENDM
                 
                 	.MACRO __GETWRMN
                 	LDS  R@0,@2+@3
                 	LDS  R@1,@2+@3+1
                 	.ENDM
                 
                 	.MACRO __GETWRZ
                 	LDD  R@0,Z+@2
                 	LDD  R@1,Z+@2+1
                 	.ENDM
                 
                 	.MACRO __GETD2Z
                 	LDD  R26,Z+@0
                 	LDD  R27,Z+@0+1
                 	LDD  R24,Z+@0+2
                 	LDD  R25,Z+@0+3
                 	.ENDM
                 
                 	.MACRO __GETB2MN
                 	LDS  R26,@0+@1
                 	.ENDM
                 
                 	.MACRO __GETW2MN
                 	LDS  R26,@0+@1
                 	LDS  R27,@0+@1+1
                 	.ENDM
                 
                 	.MACRO __GETD2MN
                 	LDS  R26,@0+@1
                 	LDS  R27,@0+@1+1
                 	LDS  R24,@0+@1+2
                 	LDS  R25,@0+@1+3
                 	.ENDM
                 
                 	.MACRO __PUTB1MN
                 	STS  @0+@1,R30
                 	.ENDM
                 
                 	.MACRO __PUTW1MN
                 	STS  @0+@1,R30
                 	STS  @0+@1+1,R31
                 	.ENDM
                 
                 	.MACRO __PUTD1MN
                 	STS  @0+@1,R30
                 	STS  @0+@1+1,R31
                 	STS  @0+@1+2,R22
                 	STS  @0+@1+3,R23
                 	.ENDM
                 
                 	.MACRO __PUTB1EN
                 	LDI  R26,LOW(@0+@1)
                 	LDI  R27,HIGH(@0+@1)
                 	CALL __EEPROMWRB
                 	.ENDM
                 
                 	.MACRO __PUTW1EN
                 	LDI  R26,LOW(@0+@1)
                 	LDI  R27,HIGH(@0+@1)
                 	CALL __EEPROMWRW
                 	.ENDM
                 
                 	.MACRO __PUTD1EN
                 	LDI  R26,LOW(@0+@1)
                 	LDI  R27,HIGH(@0+@1)
                 	CALL __EEPROMWRD
                 	.ENDM
                 
                 	.MACRO __PUTBR0MN
                 	STS  @0+@1,R0
                 	.ENDM
                 
                 	.MACRO __PUTDZ2
                 	STD  Z+@0,R26
                 	STD  Z+@0+1,R27
                 	STD  Z+@0+2,R24
                 	STD  Z+@0+3,R25
                 	.ENDM
                 
                 	.MACRO __PUTBMRN
                 	STS  @0+@1,R@2
                 	.ENDM
                 
                 	.MACRO __PUTWMRN
                 	STS  @0+@1,R@2
                 	STS  @0+@1+1,R@3
                 	.ENDM
                 
                 	.MACRO __PUTBZR
                 	STD  Z+@1,R@0
                 	.ENDM
                 
                 	.MACRO __PUTWZR
                 	STD  Z+@2,R@0
                 	STD  Z+@2+1,R@1
                 	.ENDM
                 
                 	.MACRO __GETW1R
                 	MOV  R30,R@0
                 	MOV  R31,R@1
                 	.ENDM
                 
                 	.MACRO __GETW2R
                 	MOV  R26,R@0
                 	MOV  R27,R@1
                 	.ENDM
                 
                 	.MACRO __GETWRN
                 	LDI  R@0,LOW(@2)
                 	LDI  R@1,HIGH(@2)
                 	.ENDM
                 
                 	.MACRO __PUTW1R
                 	MOV  R@0,R30
                 	MOV  R@1,R31
                 	.ENDM
                 
                 	.MACRO __PUTW2R
                 	MOV  R@0,R26
                 	MOV  R@1,R27
                 	.ENDM
                 
                 	.MACRO __ADDWRN
                 	SUBI R@0,LOW(-@2)
                 	SBCI R@1,HIGH(-@2)
                 	.ENDM
                 
                 	.MACRO __ADDWRR
                 	ADD  R@0,R@2
                 	ADC  R@1,R@3
                 	.ENDM
                 
                 	.MACRO __SUBWRN
                 	SUBI R@0,LOW(@2)
                 	SBCI R@1,HIGH(@2)
                 	.ENDM
                 
                 	.MACRO __SUBWRR
                 	SUB  R@0,R@2
                 	SBC  R@1,R@3
                 	.ENDM
                 
                 	.MACRO __ANDWRN
                 	ANDI R@0,LOW(@2)
                 	ANDI R@1,HIGH(@2)
                 	.ENDM
                 
                 	.MACRO __ANDWRR
                 	AND  R@0,R@2
                 	AND  R@1,R@3
                 	.ENDM
                 
                 	.MACRO __ORWRN
                 	ORI  R@0,LOW(@2)
                 	ORI  R@1,HIGH(@2)
                 	.ENDM
                 
                 	.MACRO __ORWRR
                 	OR   R@0,R@2
                 	OR   R@1,R@3
                 	.ENDM
                 
                 	.MACRO __EORWRR
                 	EOR  R@0,R@2
                 	EOR  R@1,R@3
                 	.ENDM
                 
                 	.MACRO __GETWRS
                 	LDD  R@0,Y+@2
                 	LDD  R@1,Y+@2+1
                 	.ENDM
                 
                 	.MACRO __PUTWSR
                 	STD  Y+@2,R@0
                 	STD  Y+@2+1,R@1
                 	.ENDM
                 
                 	.MACRO __MOVEWRR
                 	MOV  R@0,R@2
                 	MOV  R@1,R@3
                 	.ENDM
                 
                 	.MACRO __INWR
                 	IN   R@0,@2
                 	IN   R@1,@2+1
                 	.ENDM
                 
                 	.MACRO __OUTWR
                 	OUT  @2+1,R@1
                 	OUT  @2,R@0
                 	.ENDM
                 
                 	.MACRO __CALL1MN
                 	LDS  R30,@0+@1
                 	LDS  R31,@0+@1+1
                 	ICALL
                 	.ENDM
                 
                 	.MACRO __CALL1FN
                 	LDI  R30,LOW(2*@0+@1)
                 	LDI  R31,HIGH(2*@0+@1)
                 	CALL __GETW1PF
                 	ICALL
                 	.ENDM
                 
                 	.MACRO __CALL2EN
                 	LDI  R26,LOW(@0+@1)
                 	LDI  R27,HIGH(@0+@1)
                 	CALL __EEPROMRDW
                 	ICALL
                 	.ENDM
                 
                 	.MACRO __GETW1STACK
                 	IN   R26,SPL
                 	IN   R27,SPH
                 	ADIW R26,@0+1
                 	LD   R30,X+
                 	LD   R31,X
                 	.ENDM
                 
                 	.MACRO __NBST
                 	BST  R@0,@1
                 	IN   R30,SREG
                 	LDI  R31,0x40
                 	EOR  R30,R31
                 	OUT  SREG,R30
                 	.ENDM
                 
                 
                 	.MACRO __PUTB1SN
                 	LDD  R26,Y+@0
                 	LDD  R27,Y+@0+1
                 	SUBI R26,LOW(-@1)
                 	SBCI R27,HIGH(-@1)
                 	ST   X,R30
                 	.ENDM
                 
                 	.MACRO __PUTW1SN
                 	LDD  R26,Y+@0
                 	LDD  R27,Y+@0+1
                 	SUBI R26,LOW(-@1)
                 	SBCI R27,HIGH(-@1)
                 	ST   X+,R30
                 	ST   X,R31
                 	.ENDM
                 
                 	.MACRO __PUTD1SN
                 	LDD  R26,Y+@0
                 	LDD  R27,Y+@0+1
                 	SUBI R26,LOW(-@1)
                 	SBCI R27,HIGH(-@1)
                 	CALL __PUTDP1
                 	.ENDM
                 
                 	.MACRO __PUTB1SNS
                 	LDD  R26,Y+@0
                 	LDD  R27,Y+@0+1
                 	ADIW R26,@1
                 	ST   X,R30
                 	.ENDM
                 
                 	.MACRO __PUTW1SNS
                 	LDD  R26,Y+@0
                 	LDD  R27,Y+@0+1
                 	ADIW R26,@1
                 	ST   X+,R30
                 	ST   X,R31
                 	.ENDM
                 
                 	.MACRO __PUTD1SNS
                 	LDD  R26,Y+@0
                 	LDD  R27,Y+@0+1
                 	ADIW R26,@1
                 	CALL __PUTDP1
                 	.ENDM
                 
                 	.MACRO __PUTB1PMN
                 	LDS  R26,@0
                 	LDS  R27,@0+1
                 	SUBI R26,LOW(-@1)
                 	SBCI R27,HIGH(-@1)
                 	ST   X,R30
                 	.ENDM
                 
                 	.MACRO __PUTW1PMN
                 	LDS  R26,@0
                 	LDS  R27,@0+1
                 	SUBI R26,LOW(-@1)
                 	SBCI R27,HIGH(-@1)
                 	ST   X+,R30
                 	ST   X,R31
                 	.ENDM
                 
                 	.MACRO __PUTD1PMN
                 	LDS  R26,@0
                 	LDS  R27,@0+1
                 	SUBI R26,LOW(-@1)
                 	SBCI R27,HIGH(-@1)
                 	CALL __PUTDP1
                 	.ENDM
                 
                 	.MACRO __PUTB1PMNS
                 	LDS  R26,@0
                 	LDS  R27,@0+1
                 	ADIW R26,@1
                 	ST   X,R30
                 	.ENDM
                 
                 	.MACRO __PUTW1PMNS
                 	LDS  R26,@0
                 	LDS  R27,@0+1
                 	ADIW R26,@1
                 	ST   X+,R30
                 	ST   X,R31
                 	.ENDM
                 
                 	.MACRO __PUTD1PMNS
                 	LDS  R26,@0
                 	LDS  R27,@0+1
                 	ADIW R26,@1
                 	CALL __PUTDP1
                 	.ENDM
                 
                 	.MACRO __PUTB1RN
                 	MOVW R26,R@0
                 	SUBI R26,LOW(-@1)
                 	SBCI R27,HIGH(-@1)
                 	ST   X,R30
                 	.ENDM
                 
                 	.MACRO __PUTW1RN
                 	MOVW R26,R@0
                 	SUBI R26,LOW(-@1)
                 	SBCI R27,HIGH(-@1)
                 	ST   X+,R30
                 	ST   X,R31
                 	.ENDM
                 
                 	.MACRO __PUTD1RN
                 	MOVW R26,R@0
                 	SUBI R26,LOW(-@1)
                 	SBCI R27,HIGH(-@1)
                 	CALL __PUTDP1
                 	.ENDM
                 
                 	.MACRO __PUTB1RNS
                 	MOVW R26,R@0
                 	ADIW R26,@1
                 	ST   X,R30
                 	.ENDM
                 
                 	.MACRO __PUTW1RNS
                 	MOVW R26,R@0
                 	ADIW R26,@1
                 	ST   X+,R30
                 	ST   X,R31
                 	.ENDM
                 
                 	.MACRO __PUTD1RNS
                 	MOVW R26,R@0
                 	ADIW R26,@1
                 	CALL __PUTDP1
                 	.ENDM
                 
                 	.MACRO __PUTB1RON
                 	MOV  R26,R@0
                 	MOV  R27,R@1
                 	SUBI R26,LOW(-@2)
                 	SBCI R27,HIGH(-@2)
                 	ST   X,R30
                 	.ENDM
                 
                 	.MACRO __PUTW1RON
                 	MOV  R26,R@0
                 	MOV  R27,R@1
                 	SUBI R26,LOW(-@2)
                 	SBCI R27,HIGH(-@2)
                 	ST   X+,R30
                 	ST   X,R31
                 	.ENDM
                 
                 	.MACRO __PUTD1RON
                 	MOV  R26,R@0
                 	MOV  R27,R@1
                 	SUBI R26,LOW(-@2)
                 	SBCI R27,HIGH(-@2)
                 	CALL __PUTDP1
                 	.ENDM
                 
                 	.MACRO __PUTB1RONS
                 	MOV  R26,R@0
                 	MOV  R27,R@1
                 	ADIW R26,@2
                 	ST   X,R30
                 	.ENDM
                 
                 	.MACRO __PUTW1RONS
                 	MOV  R26,R@0
                 	MOV  R27,R@1
                 	ADIW R26,@2
                 	ST   X+,R30
                 	ST   X,R31
                 	.ENDM
                 
                 	.MACRO __PUTD1RONS
                 	MOV  R26,R@0
                 	MOV  R27,R@1
                 	ADIW R26,@2
                 	CALL __PUTDP1
                 	.ENDM
                 
                 
                 	.MACRO __GETB1SX
                 	MOVW R30,R28
                 	SUBI R30,LOW(-@0)
                 	SBCI R31,HIGH(-@0)
                 	LD   R30,Z
                 	.ENDM
                 
                 	.MACRO __GETB1HSX
                 	MOVW R30,R28
                 	SUBI R30,LOW(-@0)
                 	SBCI R31,HIGH(-@0)
                 	LD   R31,Z
                 	.ENDM
                 
                 	.MACRO __GETW1SX
                 	MOVW R30,R28
                 	SUBI R30,LOW(-@0)
                 	SBCI R31,HIGH(-@0)
                 	LD   R0,Z+
                 	LD   R31,Z
                 	MOV  R30,R0
                 	.ENDM
                 
                 	.MACRO __GETD1SX
                 	MOVW R30,R28
                 	SUBI R30,LOW(-@0)
                 	SBCI R31,HIGH(-@0)
                 	LD   R0,Z+
                 	LD   R1,Z+
                 	LD   R22,Z+
                 	LD   R23,Z
                 	MOVW R30,R0
                 	.ENDM
                 
                 	.MACRO __GETB2SX
                 	MOVW R26,R28
                 	SUBI R26,LOW(-@0)
                 	SBCI R27,HIGH(-@0)
                 	LD   R26,X
                 	.ENDM
                 
                 	.MACRO __GETW2SX
                 	MOVW R26,R28
                 	SUBI R26,LOW(-@0)
                 	SBCI R27,HIGH(-@0)
                 	LD   R0,X+
                 	LD   R27,X
                 	MOV  R26,R0
                 	.ENDM
                 
                 	.MACRO __GETD2SX
                 	MOVW R26,R28
                 	SUBI R26,LOW(-@0)
                 	SBCI R27,HIGH(-@0)
                 	LD   R0,X+
                 	LD   R1,X+
                 	LD   R24,X+
                 	LD   R25,X
                 	MOVW R26,R0
                 	.ENDM
                 
                 	.MACRO __GETBRSX
                 	MOVW R30,R28
                 	SUBI R30,LOW(-@1)
                 	SBCI R31,HIGH(-@1)
                 	LD   R@0,Z
                 	.ENDM
                 
                 	.MACRO __GETWRSX
                 	MOVW R30,R28
                 	SUBI R30,LOW(-@2)
                 	SBCI R31,HIGH(-@2)
                 	LD   R@0,Z+
                 	LD   R@1,Z
                 	.ENDM
                 
                 	.MACRO __LSLW8SX
                 	MOVW R30,R28
                 	SUBI R30,LOW(-@0)
                 	SBCI R31,HIGH(-@0)
                 	LD   R31,Z
                 	CLR  R30
                 	.ENDM
                 
                 	.MACRO __PUTB1SX
                 	MOVW R26,R28
                 	SUBI R26,LOW(-@0)
                 	SBCI R27,HIGH(-@0)
                 	ST   X,R30
                 	.ENDM
                 
                 	.MACRO __PUTW1SX
                 	MOVW R26,R28
                 	SUBI R26,LOW(-@0)
                 	SBCI R27,HIGH(-@0)
                 	ST   X+,R30
                 	ST   X,R31
                 	.ENDM
                 
                 	.MACRO __PUTD1SX
                 	MOVW R26,R28
                 	SUBI R26,LOW(-@0)
                 	SBCI R27,HIGH(-@0)
                 	ST   X+,R30
                 	ST   X+,R31
                 	ST   X+,R22
                 	ST   X,R23
                 	.ENDM
                 
                 	.MACRO __CLRW1SX
                 	MOVW R30,R28
                 	SUBI R30,LOW(-@0)
                 	SBCI R31,HIGH(-@0)
                 	CLR  R0
                 	ST   Z+,R0
                 	ST   Z,R0
                 	.ENDM
                 
                 	.MACRO __CLRD1SX
                 	MOVW R30,R28
                 	SUBI R30,LOW(-@0)
                 	SBCI R31,HIGH(-@0)
                 	CLR  R0
                 	ST   Z+,R0
                 	ST   Z+,R0
                 	ST   Z+,R0
                 	ST   Z,R0
                 	.ENDM
                 
                 	.MACRO __PUTB2SX
                 	MOVW R30,R28
                 	SUBI R30,LOW(-@0)
                 	SBCI R31,HIGH(-@0)
                 	ST   Z,R26
                 	.ENDM
                 
                 	.MACRO __PUTW2SX
                 	MOVW R30,R28
                 	SUBI R30,LOW(-@0)
                 	SBCI R31,HIGH(-@0)
                 	ST   Z+,R26
                 	ST   Z,R27
                 	.ENDM
                 
                 	.MACRO __PUTD2SX
                 	MOVW R30,R28
                 	SUBI R30,LOW(-@0)
                 	SBCI R31,HIGH(-@0)
                 	ST   Z+,R26
                 	ST   Z+,R27
                 	ST   Z+,R24
                 	ST   Z,R25
                 	.ENDM
                 
                 	.MACRO __PUTBSRX
                 	MOVW R30,R28
                 	SUBI R30,LOW(-@0)
                 	SBCI R31,HIGH(-@0)
                 	ST   Z,R@1
                 	.ENDM
                 
                 	.MACRO __PUTWSRX
                 	MOVW R30,R28
                 	SUBI R30,LOW(-@2)
                 	SBCI R31,HIGH(-@2)
                 	ST   Z+,R@0
                 	ST   Z,R@1
                 	.ENDM
                 
                 	.MACRO __PUTB1SNX
                 	MOVW R26,R28
                 	SUBI R26,LOW(-@0)
                 	SBCI R27,HIGH(-@0)
                 	LD   R0,X+
                 	LD   R27,X
                 	MOV  R26,R0
                 	SUBI R26,LOW(-@1)
                 	SBCI R27,HIGH(-@1)
                 	ST   X,R30
                 	.ENDM
                 
                 	.MACRO __PUTW1SNX
                 	MOVW R26,R28
                 	SUBI R26,LOW(-@0)
                 	SBCI R27,HIGH(-@0)
                 	LD   R0,X+
                 	LD   R27,X
                 	MOV  R26,R0
                 	SUBI R26,LOW(-@1)
                 	SBCI R27,HIGH(-@1)
                 	ST   X+,R30
                 	ST   X,R31
                 	.ENDM
                 
                 	.MACRO __PUTD1SNX
                 	MOVW R26,R28
                 	SUBI R26,LOW(-@0)
                 	SBCI R27,HIGH(-@0)
                 	LD   R0,X+
                 	LD   R27,X
                 	MOV  R26,R0
                 	SUBI R26,LOW(-@1)
                 	SBCI R27,HIGH(-@1)
                 	ST   X+,R30
                 	ST   X+,R31
                 	ST   X+,R22
                 	ST   X,R23
                 	.ENDM
                 
                 	.MACRO __MULBRR
                 	MULS R@0,R@1
                 	MOVW R30,R0
                 	.ENDM
                 
                 	.MACRO __MULBRRU
                 	MUL  R@0,R@1
                 	MOVW R30,R0
                 	.ENDM
                 
                 	.MACRO __MULBRR0
                 	MULS R@0,R@1
                 	.ENDM
                 
                 	.MACRO __MULBRRU0
                 	MUL  R@0,R@1
                 	.ENDM
                 
                 	.MACRO __MULBNWRU
                 	LDI  R26,@2
                 	MUL  R26,R@0
                 	MOVW R30,R0
                 	MUL  R26,R@1
                 	ADD  R31,R0
                 	.ENDM
                 
                 ;NAME DEFINITIONS FOR GLOBAL VARIABLES ALLOCATED TO REGISTERS
                 	.DEF _zero_Y=R4
                 	.DEF _zero_X=R6
                 	.DEF _bar=R9
                 	.DEF _X=R8
                 	.DEF _Y=R11
                 	.DEF _viz_ampl=R10
                 	.DEF _viz_faza=R13
                 	.DEF _adc_data=R12
                 
                 	.CSEG
                 	.ORG 0x00
                 
                 ;INTERRUPT VECTORS
000000 940c 035c 	JMP  __RESET
000002 940c 0000 	JMP  0x00
000004 940c 0000 	JMP  0x00
000006 940c 0000 	JMP  0x00
000008 940c 0000 	JMP  0x00
00000a 940c 0000 	JMP  0x00
00000c 940c 0000 	JMP  0x00
00000e 940c 0000 	JMP  0x00
000010 940c 0000 	JMP  0x00
000012 940c 0000 	JMP  0x00
000014 940c 0000 	JMP  0x00
000016 940c 0000 	JMP  0x00
000018 940c 0000 	JMP  0x00
00001a 940c 0000 	JMP  0x00
00001c 940c 0000 	JMP  0x00
00001e 940c 0000 	JMP  0x00
000020 940c 038c 	JMP  _adc_isr
000022 940c 0000 	JMP  0x00
000024 940c 0000 	JMP  0x00
000026 940c 0000 	JMP  0x00
000028 940c 0000 	JMP  0x00
                 
                 _tbl10_G101:
00002a 2710
00002b 03e8
00002c 0064
00002d 000a      	.DB  0x10,0x27,0xE8,0x3,0x64,0x0,0xA,0x0
00002e 0001      	.DB  0x1,0x0
                 _tbl16_G101:
00002f 1000
000030 0100
000031 0010
000032 0001      	.DB  0x0,0x10,0x0,0x1,0x10,0x0,0x1,0x0
                 
                 _0x0:
000033 6425
000034 252e
000035 5664
000036 4220      	.DB  0x25,0x64,0x2E,0x25,0x64,0x56,0x20,0x42
000037 253d
000038 2064
000039 2020
00003a 2020      	.DB  0x3D,0x25,0x64,0x20,0x20,0x20,0x20,0x20
00003b 2020
00003c 5300
00003d 6174
00003e 0074      	.DB  0x20,0x20,0x0,0x53,0x74,0x61,0x74,0x0
00003f 6944
000040 206e
000041 2500
000042 2078      	.DB  0x44,0x69,0x6E,0x20,0x0,0x25,0x78,0x20
000043 7825
000044 3d20
000045 005a
000046 472b      	.DB  0x25,0x78,0x20,0x3D,0x5A,0x0,0x2B,0x47
000047 2b00
000048 0052
000049 412b
00004a 6c6c      	.DB  0x0,0x2B,0x52,0x0,0x2B,0x41,0x6C,0x6C
00004b 2d00
00004c 6546
00004d 0020
00004e 2020      	.DB  0x0,0x2D,0x46,0x65,0x20,0x0,0x20,0x20
00004f 2020
000050 535f
000051 6174
000052 6974      	.DB  0x20,0x20,0x5F,0x53,0x74,0x61,0x74,0x69
000053 5f63
000054 2020
000055 2020
000056 2000      	.DB  0x63,0x5F,0x20,0x20,0x20,0x20,0x0,0x20
000057 2020
000058 5f20
000059 6944
00005a 616e      	.DB  0x20,0x20,0x20,0x5F,0x44,0x69,0x6E,0x61
00005b 696d
00005c 5f63
00005d 2020
00005e 0020      	.DB  0x6D,0x69,0x63,0x5F,0x20,0x20,0x20,0x0
00005f 6142
000060 7272
000061 6569
000062 2072      	.DB  0x42,0x61,0x72,0x72,0x69,0x65,0x72,0x20
000063 6425
000064 2020
000065 2020
000066 2020      	.DB  0x25,0x64,0x20,0x20,0x20,0x20,0x20,0x20
000067 0020
000068 3e3e
000069 3e3e
00006a 203e      	.DB  0x20,0x0,0x3E,0x3E,0x3E,0x3E,0x3E,0x20
00006b 6f52
00006c 6b63
00006d 3c20
00006e 3c3c      	.DB  0x52,0x6F,0x63,0x6B,0x20,0x3C,0x3C,0x3C
00006f 3c3c
000070 2500
000071 2066
000072 6625      	.DB  0x3C,0x3C,0x0,0x25,0x66,0x20,0x25,0x66
000073 3e00
000074 3e3e
000075 203e
000076 7247      	.DB  0x0,0x3E,0x3E,0x3E,0x3E,0x20,0x47,0x72
000077 756f
000078 646e
000079 3c20
00007a 3c3c      	.DB  0x6F,0x75,0x6E,0x64,0x20,0x3C,0x3C,0x3C
00007b 003c
00007c 6625
00007d 2520
00007e 2066      	.DB  0x3C,0x0,0x25,0x66,0x20,0x25,0x66,0x20
00007f 3e00
000080 3e3e
000081 3e3e
000082 5a20      	.DB  0x0,0x3E,0x3E,0x3E,0x3E,0x3E,0x20,0x5A
000083 7265
000084 206f
000085 3c3c
000086 3c3c      	.DB  0x65,0x72,0x6F,0x20,0x3C,0x3C,0x3C,0x3C
000087 003c
000088 7825
000089 2520
00008a 2078      	.DB  0x3C,0x0,0x25,0x78,0x20,0x25,0x78,0x20
00008b 7825
00008c 2520
00008d 2078
00008e 2000      	.DB  0x25,0x78,0x20,0x25,0x78,0x20,0x0,0x20
00008f 2020
000090 2020
000091 2020
000092 2020      	.DB  0x20,0x20,0x20,0x20,0x20,0x20,0x20,0x20
000093 2020
000094 2020
000095 2020
000096 0020      	.DB  0x20,0x20,0x20,0x20,0x20,0x20,0x20,0x0
000097 205f
000098 2020
000099 2020
00009a 2020      	.DB  0x5F,0x20,0x20,0x20,0x20,0x20,0x20,0x20
00009b 2020
00009c 2020
00009d 2020
00009e 2020      	.DB  0x20,0x20,0x20,0x20,0x20,0x20,0x20,0x20
00009f ff00
0000a0 2020
0000a1 2020
0000a2 2020      	.DB  0x0,0xFF,0x20,0x20,0x20,0x20,0x20,0x20
0000a3 2020
0000a4 2020
0000a5 2020
0000a6 2020      	.DB  0x20,0x20,0x20,0x20,0x20,0x20,0x20,0x20
0000a7 0020
0000a8 5fff
0000a9 2020
0000aa 2020      	.DB  0x20,0x0,0xFF,0x5F,0x20,0x20,0x20,0x20
0000ab 2020
0000ac 2020
0000ad 2020
0000ae 2020      	.DB  0x20,0x20,0x20,0x20,0x20,0x20,0x20,0x20
0000af 2020
0000b0 ff00
0000b1 20ff
0000b2 2020      	.DB  0x20,0x20,0x0,0xFF,0xFF,0x20,0x20,0x20
0000b3 2020
0000b4 2020
0000b5 2020
0000b6 2020      	.DB  0x20,0x20,0x20,0x20,0x20,0x20,0x20,0x20
0000b7 2020
0000b8 0020
0000b9 ffff
0000ba 205f      	.DB  0x20,0x20,0x20,0x0,0xFF,0xFF,0x5F,0x20
0000bb 2020
0000bc 2020
0000bd 2020
0000be 2020      	.DB  0x20,0x20,0x20,0x20,0x20,0x20,0x20,0x20
0000bf 2020
0000c0 2020
0000c1 ff00
0000c2 ffff      	.DB  0x20,0x20,0x20,0x20,0x0,0xFF,0xFF,0xFF
0000c3 2020
0000c4 2020
0000c5 2020
0000c6 2020      	.DB  0x20,0x20,0x20,0x20,0x20,0x20,0x20,0x20
0000c7 2020
0000c8 2020
0000c9 0020
0000ca ffff      	.DB  0x20,0x20,0x20,0x20,0x20,0x0,0xFF,0xFF
0000cb 5fff
0000cc 2020
0000cd 2020
0000ce 2020      	.DB  0xFF,0x5F,0x20,0x20,0x20,0x20,0x20,0x20
0000cf 2020
0000d0 2020
0000d1 2020
0000d2 ff00      	.DB  0x20,0x20,0x20,0x20,0x20,0x20,0x0,0xFF
0000d3 ffff
0000d4 20ff
0000d5 2020
0000d6 2020      	.DB  0xFF,0xFF,0xFF,0x20,0x20,0x20,0x20,0x20
0000d7 2020
0000d8 2020
0000d9 2020
0000da 0020      	.DB  0x20,0x20,0x20,0x20,0x20,0x20,0x20,0x0
0000db ffff
0000dc ffff
0000dd 205f
0000de 2020      	.DB  0xFF,0xFF,0xFF,0xFF,0x5F,0x20,0x20,0x20
0000df 2020
0000e0 2020
0000e1 2020
0000e2 2020      	.DB  0x20,0x20,0x20,0x20,0x20,0x20,0x20,0x20
0000e3 ff00
0000e4 ffff
0000e5 ffff
0000e6 2020      	.DB  0x0,0xFF,0xFF,0xFF,0xFF,0xFF,0x20,0x20
0000e7 2020
0000e8 2020
0000e9 2020
0000ea 2020      	.DB  0x20,0x20,0x20,0x20,0x20,0x20,0x20,0x20
0000eb 0020
0000ec ffff
0000ed ffff
0000ee 5fff      	.DB  0x20,0x0,0xFF,0xFF,0xFF,0xFF,0xFF,0x5F
0000ef 2020
0000f0 2020
0000f1 2020
0000f2 2020      	.DB  0x20,0x20,0x20,0x20,0x20,0x20,0x20,0x20
0000f3 2020
0000f4 ff00
0000f5 ffff
0000f6 ffff      	.DB  0x20,0x20,0x0,0xFF,0xFF,0xFF,0xFF,0xFF
0000f7 20ff
0000f8 2020
0000f9 2020
0000fa 2020      	.DB  0xFF,0x20,0x20,0x20,0x20,0x20,0x20,0x20
0000fb 2020
0000fc 0020
0000fd ffff
0000fe ffff      	.DB  0x20,0x20,0x20,0x0,0xFF,0xFF,0xFF,0xFF
0000ff ffff
000100 205f
000101 2020
000102 2020      	.DB  0xFF,0xFF,0x5F,0x20,0x20,0x20,0x20,0x20
000103 2020
000104 2020
000105 ff00
000106 ffff      	.DB  0x20,0x20,0x20,0x20,0x0,0xFF,0xFF,0xFF
000107 ffff
000108 ffff
000109 2020
00010a 2020      	.DB  0xFF,0xFF,0xFF,0xFF,0x20,0x20,0x20,0x20
00010b 2020
00010c 2020
00010d 0020
00010e ffff      	.DB  0x20,0x20,0x20,0x20,0x20,0x0,0xFF,0xFF
00010f ffff
000110 ffff
000111 5fff
000112 2020      	.DB  0xFF,0xFF,0xFF,0xFF,0xFF,0x5F,0x20,0x20
000113 2020
000114 2020
000115 2020
000116 ff00      	.DB  0x20,0x20,0x20,0x20,0x20,0x20,0x0,0xFF
000117 ffff
000118 ffff
000119 ffff
00011a 20ff      	.DB  0xFF,0xFF,0xFF,0xFF,0xFF,0xFF,0xFF,0x20
00011b 2020
00011c 2020
00011d 2020
00011e 0020      	.DB  0x20,0x20,0x20,0x20,0x20,0x20,0x20,0x0
00011f ffff
000120 ffff
000121 ffff
000122 ffff      	.DB  0xFF,0xFF,0xFF,0xFF,0xFF,0xFF,0xFF,0xFF
000123 205f
000124 2020
000125 2020
000126 2020      	.DB  0x5F,0x20,0x20,0x20,0x20,0x20,0x20,0x20
000127 ff00
000128 ffff
000129 ffff
00012a ffff      	.DB  0x0,0xFF,0xFF,0xFF,0xFF,0xFF,0xFF,0xFF
00012b ffff
00012c 2020
00012d 2020
00012e 2020      	.DB  0xFF,0xFF,0x20,0x20,0x20,0x20,0x20,0x20
00012f 0020
000130 ffff
000131 ffff
000132 ffff      	.DB  0x20,0x0,0xFF,0xFF,0xFF,0xFF,0xFF,0xFF
000133 ffff
000134 5fff
000135 2020
000136 2020      	.DB  0xFF,0xFF,0xFF,0x5F,0x20,0x20,0x20,0x20
000137 2020
000138 ff00
000139 ffff
00013a ffff      	.DB  0x20,0x20,0x0,0xFF,0xFF,0xFF,0xFF,0xFF
00013b ffff
00013c ffff
00013d 20ff
00013e 2020      	.DB  0xFF,0xFF,0xFF,0xFF,0xFF,0x20,0x20,0x20
00013f 2020
000140 0020
000141 ffff
000142 ffff      	.DB  0x20,0x20,0x20,0x0,0xFF,0xFF,0xFF,0xFF
000143 ffff
000144 ffff
000145 ffff
000146 205f      	.DB  0xFF,0xFF,0xFF,0xFF,0xFF,0xFF,0x5F,0x20
000147 2020
000148 2020
000149 ff00
00014a ffff      	.DB  0x20,0x20,0x20,0x20,0x0,0xFF,0xFF,0xFF
00014b ffff
00014c ffff
00014d ffff
00014e ffff      	.DB  0xFF,0xFF,0xFF,0xFF,0xFF,0xFF,0xFF,0xFF
00014f 2020
000150 2020
000151 0020
000152 ffff      	.DB  0x20,0x20,0x20,0x20,0x20,0x0,0xFF,0xFF
000153 ffff
000154 ffff
000155 ffff
000156 ffff      	.DB  0xFF,0xFF,0xFF,0xFF,0xFF,0xFF,0xFF,0xFF
000157 5fff
000158 2020
000159 2020
00015a ff00      	.DB  0xFF,0x5F,0x20,0x20,0x20,0x20,0x0,0xFF
00015b ffff
00015c ffff
00015d ffff
00015e ffff      	.DB  0xFF,0xFF,0xFF,0xFF,0xFF,0xFF,0xFF,0xFF
00015f ffff
000160 20ff
000161 2020
000162 0020      	.DB  0xFF,0xFF,0xFF,0x20,0x20,0x20,0x20,0x0
000163 ffff
000164 ffff
000165 ffff
000166 ffff      	.DB  0xFF,0xFF,0xFF,0xFF,0xFF,0xFF,0xFF,0xFF
000167 ffff
000168 ffff
000169 205f
00016a 2020      	.DB  0xFF,0xFF,0xFF,0xFF,0x5F,0x20,0x20,0x20
00016b ff00
00016c ffff
00016d ffff
00016e ffff      	.DB  0x0,0xFF,0xFF,0xFF,0xFF,0xFF,0xFF,0xFF
00016f ffff
000170 ffff
000171 ffff
000172 2020      	.DB  0xFF,0xFF,0xFF,0xFF,0xFF,0xFF,0x20,0x20
000173 0020
000174 ffff
000175 ffff
000176 ffff      	.DB  0x20,0x0,0xFF,0xFF,0xFF,0xFF,0xFF,0xFF
000177 ffff
000178 ffff
000179 ffff
00017a 5fff      	.DB  0xFF,0xFF,0xFF,0xFF,0xFF,0xFF,0xFF,0x5F
00017b 2020
00017c ff00
00017d ffff
00017e ffff      	.DB  0x20,0x20,0x0,0xFF,0xFF,0xFF,0xFF,0xFF
00017f ffff
000180 ffff
000181 ffff
000182 ffff      	.DB  0xFF,0xFF,0xFF,0xFF,0xFF,0xFF,0xFF,0xFF
000183 20ff
000184 0020
000185 ffff
000186 ffff      	.DB  0xFF,0x20,0x20,0x0,0xFF,0xFF,0xFF,0xFF
000187 ffff
000188 ffff
000189 ffff
00018a ffff      	.DB  0xFF,0xFF,0xFF,0xFF,0xFF,0xFF,0xFF,0xFF
00018b ffff
00018c 205f
00018d ff00
00018e ffff      	.DB  0xFF,0xFF,0x5F,0x20,0x0,0xFF,0xFF,0xFF
00018f ffff
000190 ffff
000191 ffff
000192 ffff      	.DB  0xFF,0xFF,0xFF,0xFF,0xFF,0xFF,0xFF,0xFF
000193 ffff
000194 ffff
000195 0020
000196 ffff      	.DB  0xFF,0xFF,0xFF,0xFF,0x20,0x0,0xFF,0xFF
000197 ffff
000198 ffff
000199 ffff
00019a ffff      	.DB  0xFF,0xFF,0xFF,0xFF,0xFF,0xFF,0xFF,0xFF
00019b ffff
00019c ffff
00019d 5fff
00019e ff00      	.DB  0xFF,0xFF,0xFF,0xFF,0xFF,0x5F,0x0,0xFF
00019f ffff
0001a0 ffff
0001a1 ffff
0001a2 ffff      	.DB  0xFF,0xFF,0xFF,0xFF,0xFF,0xFF,0xFF,0xFF
0001a3 ffff
0001a4 ffff
0001a5 ffff
0001a6 00ff      	.DB  0xFF,0xFF,0xFF,0xFF,0xFF,0xFF,0xFF,0x0
0001a7 2020
0001a8 2020
0001a9 2020
0001aa 2020      	.DB  0x20,0x20,0x20,0x20,0x20,0x20,0x20,0x20
0001ab ffff
0001ac ffff
0001ad ffff
0001ae ffff      	.DB  0xFF,0xFF,0xFF,0xFF,0xFF,0xFF,0xFF,0xFF
0001af 2000
0001b0 2020
0001b1 2020
0001b2 2020      	.DB  0x0,0x20,0x20,0x20,0x20,0x20,0x20,0x20
0001b3 ff20
0001b4 ffff
0001b5 ffff
0001b6 ffff      	.DB  0x20,0xFF,0xFF,0xFF,0xFF,0xFF,0xFF,0xFF
0001b7 005f
0001b8 2020
0001b9 2020
0001ba 2020      	.DB  0x5F,0x0,0x20,0x20,0x20,0x20,0x20,0x20
0001bb 2020
0001bc ffff
0001bd ffff
0001be ffff      	.DB  0x20,0x20,0xFF,0xFF,0xFF,0xFF,0xFF,0xFF
0001bf 20ff
0001c0 2000
0001c1 2020
0001c2 2020      	.DB  0xFF,0x20,0x0,0x20,0x20,0x20,0x20,0x20
0001c3 2020
0001c4 ff20
0001c5 ffff
0001c6 ffff      	.DB  0x20,0x20,0x20,0xFF,0xFF,0xFF,0xFF,0xFF
0001c7 5fff
0001c8 0020
0001c9 2020
0001ca 2020      	.DB  0xFF,0x5F,0x20,0x0,0x20,0x20,0x20,0x20
0001cb 2020
0001cc 2020
0001cd ffff
0001ce ffff      	.DB  0x20,0x20,0x20,0x20,0xFF,0xFF,0xFF,0xFF
0001cf ffff
0001d0 2020
0001d1 2000
0001d2 2020      	.DB  0xFF,0xFF,0x20,0x20,0x0,0x20,0x20,0x20
0001d3 2020
0001d4 2020
0001d5 ff20
0001d6 ffff      	.DB  0x20,0x20,0x20,0x20,0x20,0xFF,0xFF,0xFF
0001d7 ffff
0001d8 205f
0001d9 0020
0001da 2020      	.DB  0xFF,0xFF,0x5F,0x20,0x20,0x0,0x20,0x20
0001db 2020
0001dc 2020
0001dd 2020
0001de ffff      	.DB  0x20,0x20,0x20,0x20,0x20,0x20,0xFF,0xFF
0001df ffff
0001e0 20ff
0001e1 2020
0001e2 2000      	.DB  0xFF,0xFF,0xFF,0x20,0x20,0x20,0x0,0x20
0001e3 2020
0001e4 2020
0001e5 2020
0001e6 ff20      	.DB  0x20,0x20,0x20,0x20,0x20,0x20,0x20,0xFF
0001e7 ffff
0001e8 5fff
0001e9 2020
0001ea 0020      	.DB  0xFF,0xFF,0xFF,0x5F,0x20,0x20,0x20,0x0
0001eb 2020
0001ec 2020
0001ed 2020
0001ee 2020      	.DB  0x20,0x20,0x20,0x20,0x20,0x20,0x20,0x20
0001ef ffff
0001f0 ffff
0001f1 2020
0001f2 2020      	.DB  0xFF,0xFF,0xFF,0xFF,0x20,0x20,0x20,0x20
0001f3 2000
0001f4 2020
0001f5 2020
0001f6 2020      	.DB  0x0,0x20,0x20,0x20,0x20,0x20,0x20,0x20
0001f7 ff20
0001f8 ffff
0001f9 205f
0001fa 2020      	.DB  0x20,0xFF,0xFF,0xFF,0x5F,0x20,0x20,0x20
0001fb 0020
0001fc 2020
0001fd 2020
0001fe 2020      	.DB  0x20,0x0,0x20,0x20,0x20,0x20,0x20,0x20
0001ff 2020
000200 ffff
000201 20ff
000202 2020      	.DB  0x20,0x20,0xFF,0xFF,0xFF,0x20,0x20,0x20
000203 2020
000204 2000
000205 2020
000206 2020      	.DB  0x20,0x20,0x0,0x20,0x20,0x20,0x20,0x20
000207 2020
000208 ff20
000209 5fff
00020a 2020      	.DB  0x20,0x20,0x20,0xFF,0xFF,0x5F,0x20,0x20
00020b 2020
00020c 0020
00020d 2020
00020e 2020      	.DB  0x20,0x20,0x20,0x0,0x20,0x20,0x20,0x20
00020f 2020
000210 2020
000211 ffff
000212 2020      	.DB  0x20,0x20,0x20,0x20,0xFF,0xFF,0x20,0x20
000213 2020
000214 2020
000215 2000
000216 2020      	.DB  0x20,0x20,0x20,0x20,0x0,0x20,0x20,0x20
000217 2020
000218 2020
000219 ff20
00021a 205f      	.DB  0x20,0x20,0x20,0x20,0x20,0xFF,0x5F,0x20
00021b 2020
00021c 2020
00021d 0020
00021e 2020      	.DB  0x20,0x20,0x20,0x20,0x20,0x0,0x20,0x20
00021f 2020
000220 2020
000221 2020
000222 20ff      	.DB  0x20,0x20,0x20,0x20,0x20,0x20,0xFF,0x20
000223 2020
000224 2020
000225 2020
000226 2000      	.DB  0x20,0x20,0x20,0x20,0x20,0x20,0x0,0x20
000227 2020
000228 2020
000229 2020
00022a 5f20      	.DB  0x20,0x20,0x20,0x20,0x20,0x20,0x20,0x5F
00022b 2020
00022c 2020
00022d 2020
00022e 0020      	.DB  0x20,0x20,0x20,0x20,0x20,0x20,0x20,0x0
00022f 2020
000230 2020
000231 2020
000232 5f20      	.DB  0x20,0x20,0x20,0x20,0x20,0x20,0x20,0x5F
000233 2020
000234 2020
000235 2020
000236 2020      	.DB  0x20,0x20,0x20,0x20,0x20,0x20,0x20,0x20
000237 2000
000238 2020
000239 2020
00023a 2020      	.DB  0x0,0x20,0x20,0x20,0x20,0x20,0x20,0x20
00023b 20ff
00023c 2020
00023d 2020
00023e 2020      	.DB  0xFF,0x20,0x20,0x20,0x20,0x20,0x20,0x20
00023f 0020
000240 2020
000241 2020
000242 2020      	.DB  0x20,0x0,0x20,0x20,0x20,0x20,0x20,0x20
000243 ff5f
000244 2020
000245 2020
000246 2020      	.DB  0x5F,0xFF,0x20,0x20,0x20,0x20,0x20,0x20
000247 2020
000248 2000
000249 2020
00024a 2020      	.DB  0x20,0x20,0x0,0x20,0x20,0x20,0x20,0x20
00024b ff20
00024c 20ff
00024d 2020
00024e 2020      	.DB  0x20,0xFF,0xFF,0x20,0x20,0x20,0x20,0x20
00024f 2020
000250 0020
000251 2020
000252 2020      	.DB  0x20,0x20,0x20,0x0,0x20,0x20,0x20,0x20
000253 5f20
000254 ffff
000255 2020
000256 2020      	.DB  0x20,0x5F,0xFF,0xFF,0x20,0x20,0x20,0x20
000257 2020
000258 2020
000259 2000
00025a 2020      	.DB  0x20,0x20,0x20,0x20,0x0,0x20,0x20,0x20
00025b 2020
00025c ffff
00025d 20ff
00025e 2020      	.DB  0x20,0x20,0xFF,0xFF,0xFF,0x20,0x20,0x20
00025f 2020
000260 2020
000261 0020
000262 2020      	.DB  0x20,0x20,0x20,0x20,0x20,0x0,0x20,0x20
000263 2020
000264 ff5f
000265 ffff
000266 2020      	.DB  0x20,0x20,0x5F,0xFF,0xFF,0xFF,0x20,0x20
000267 2020
000268 2020
000269 2020
00026a 2000      	.DB  0x20,0x20,0x20,0x20,0x20,0x20,0x0,0x20
00026b 2020
00026c ff20
00026d ffff
00026e 20ff      	.DB  0x20,0x20,0x20,0xFF,0xFF,0xFF,0xFF,0x20
00026f 2020
000270 2020
000271 2020
000272 0020      	.DB  0x20,0x20,0x20,0x20,0x20,0x20,0x20,0x0
000273 2020
000274 5f20
000275 ffff
000276 ffff      	.DB  0x20,0x20,0x20,0x5F,0xFF,0xFF,0xFF,0xFF
000277 2020
000278 2020
000279 2020
00027a 2020      	.DB  0x20,0x20,0x20,0x20,0x20,0x20,0x20,0x20
00027b 2000
00027c 2020
00027d ffff
00027e ffff      	.DB  0x0,0x20,0x20,0x20,0xFF,0xFF,0xFF,0xFF
00027f 20ff
000280 2020
000281 2020
000282 2020      	.DB  0xFF,0x20,0x20,0x20,0x20,0x20,0x20,0x20
000283 0020
000284 2020
000285 ff5f
000286 ffff      	.DB  0x20,0x0,0x20,0x20,0x5F,0xFF,0xFF,0xFF
000287 ffff
000288 2020
000289 2020
00028a 2020      	.DB  0xFF,0xFF,0x20,0x20,0x20,0x20,0x20,0x20
00028b 2020
00028c 2000
00028d ff20
00028e ffff      	.DB  0x20,0x20,0x0,0x20,0x20,0xFF,0xFF,0xFF
00028f ffff
000290 20ff
000291 2020
000292 2020      	.DB  0xFF,0xFF,0xFF,0x20,0x20,0x20,0x20,0x20
000293 2020
000294 0020
000295 5f20
000296 ffff      	.DB  0x20,0x20,0x20,0x0,0x20,0x5F,0xFF,0xFF
000297 ffff
000298 ffff
000299 2020
00029a 2020      	.DB  0xFF,0xFF,0xFF,0xFF,0x20,0x20,0x20,0x20
00029b 2020
00029c 2020
00029d 2000
00029e ffff      	.DB  0x20,0x20,0x20,0x20,0x0,0x20,0xFF,0xFF
00029f ffff
0002a0 ffff
0002a1 20ff
0002a2 2020      	.DB  0xFF,0xFF,0xFF,0xFF,0xFF,0x20,0x20,0x20
0002a3 2020
0002a4 2020
0002a5 0020
0002a6 ff5f      	.DB  0x20,0x20,0x20,0x20,0x20,0x0,0x5F,0xFF
0002a7 ffff
0002a8 ffff
0002a9 ffff
0002aa 2020      	.DB  0xFF,0xFF,0xFF,0xFF,0xFF,0xFF,0x20,0x20
0002ab 2020
0002ac 2020
0002ad 2020
0002ae db00      	.DB  0x20,0x20,0x20,0x20,0x20,0x20,0x0,0xDB
0002af 2d2d
0002b0 2d2d
0002b1 2d2d
0002b2 4949      	.DB  0x2D,0x2D,0x2D,0x2D,0x2D,0x2D,0x49,0x49
0002b3 2d2d
0002b4 2d2d
0002b5 2d2d
0002b6 00dc      	.DB  0x2D,0x2D,0x2D,0x2D,0x2D,0x2D,0xDC,0x0
0002b7 2ddb
0002b8 2d2d
0002b9 2d2d
0002ba 232d      	.DB  0xDB,0x2D,0x2D,0x2D,0x2D,0x2D,0x2D,0x23
0002bb 2d49
0002bc 2d2d
0002bd 2d2d
0002be dc2d      	.DB  0x49,0x2D,0x2D,0x2D,0x2D,0x2D,0x2D,0xDC
0002bf db00
0002c0 2d2d
0002c1 2d2d
0002c2 232d      	.DB  0x0,0xDB,0x2D,0x2D,0x2D,0x2D,0x2D,0x23
0002c3 4949
0002c4 2d2d
0002c5 2d2d
0002c6 2d2d      	.DB  0x49,0x49,0x2D,0x2D,0x2D,0x2D,0x2D,0x2D
0002c7 00dc
0002c8 2ddb
0002c9 2d2d
0002ca 232d      	.DB  0xDC,0x0,0xDB,0x2D,0x2D,0x2D,0x2D,0x23
0002cb 492d
0002cc 2d49
0002cd 2d2d
0002ce 2d2d      	.DB  0x2D,0x49,0x49,0x2D,0x2D,0x2D,0x2D,0x2D
0002cf dc2d
0002d0 db00
0002d1 2d2d
0002d2 232d      	.DB  0x2D,0xDC,0x0,0xDB,0x2D,0x2D,0x2D,0x23
0002d3 2d2d
0002d4 4949
0002d5 2d2d
0002d6 2d2d      	.DB  0x2D,0x2D,0x49,0x49,0x2D,0x2D,0x2D,0x2D
0002d7 2d2d
0002d8 00dc
0002d9 2ddb
0002da 232d      	.DB  0x2D,0x2D,0xDC,0x0,0xDB,0x2D,0x2D,0x23
0002db 2d2d
0002dc 492d
0002dd 2d49
0002de 2d2d      	.DB  0x2D,0x2D,0x2D,0x49,0x49,0x2D,0x2D,0x2D
0002df 2d2d
0002e0 dc2d
0002e1 db00
0002e2 232d      	.DB  0x2D,0x2D,0x2D,0xDC,0x0,0xDB,0x2D,0x23
0002e3 2d2d
0002e4 2d2d
0002e5 4949
0002e6 2d2d      	.DB  0x2D,0x2D,0x2D,0x2D,0x49,0x49,0x2D,0x2D
0002e7 2d2d
0002e8 2d2d
0002e9 00dc
0002ea 23db      	.DB  0x2D,0x2D,0x2D,0x2D,0xDC,0x0,0xDB,0x23
0002eb 2d2d
0002ec 2d2d
0002ed 492d
0002ee 2d49      	.DB  0x2D,0x2D,0x2D,0x2D,0x2D,0x49,0x49,0x2D
0002ef 2d2d
0002f0 2d2d
0002f1 dc2d
0002f2 3e00      	.DB  0x2D,0x2D,0x2D,0x2D,0x2D,0xDC,0x0,0x3E
0002f3 3c5f
0002f4 2d2d
0002f5 2d2d
0002f6 4949      	.DB  0x5F,0x3C,0x2D,0x2D,0x2D,0x2D,0x49,0x49
0002f7 2d2d
0002f8 2d2d
0002f9 2d2d
0002fa 00dc      	.DB  0x2D,0x2D,0x2D,0x2D,0x2D,0x2D,0xDC,0x0
0002fb 2ddb
0002fc 2d2d
0002fd 2d2d
0002fe 492d      	.DB  0xDB,0x2D,0x2D,0x2D,0x2D,0x2D,0x2D,0x49
0002ff 2d23
000300 2d2d
000301 2d2d
000302 dc2d      	.DB  0x23,0x2D,0x2D,0x2D,0x2D,0x2D,0x2D,0xDC
000303 db00
000304 2d2d
000305 2d2d
000306 2d2d      	.DB  0x0,0xDB,0x2D,0x2D,0x2D,0x2D,0x2D,0x2D
000307 4949
000308 2d23
000309 2d2d
00030a 2d2d      	.DB  0x49,0x49,0x23,0x2D,0x2D,0x2D,0x2D,0x2D
00030b 00dc
00030c 2ddb
00030d 2d2d
00030e 2d2d      	.DB  0xDC,0x0,0xDB,0x2D,0x2D,0x2D,0x2D,0x2D
00030f 492d
000310 2d49
000311 2d23
000312 2d2d      	.DB  0x2D,0x49,0x49,0x2D,0x23,0x2D,0x2D,0x2D
000313 dc2d
000314 db00
000315 2d2d
000316 2d2d      	.DB  0x2D,0xDC,0x0,0xDB,0x2D,0x2D,0x2D,0x2D
000317 2d2d
000318 4949
000319 2d2d
00031a 2d23      	.DB  0x2D,0x2D,0x49,0x49,0x2D,0x2D,0x23,0x2D
00031b 2d2d
00031c 00dc
00031d 2ddb
00031e 2d2d      	.DB  0x2D,0x2D,0xDC,0x0,0xDB,0x2D,0x2D,0x2D
00031f 2d2d
000320 492d
000321 2d49
000322 2d2d      	.DB  0x2D,0x2D,0x2D,0x49,0x49,0x2D,0x2D,0x2D
000323 2d23
000324 dc2d
000325 db00
000326 2d2d      	.DB  0x23,0x2D,0x2D,0xDC,0x0,0xDB,0x2D,0x2D
000327 2d2d
000328 2d2d
000329 4949
00032a 2d2d      	.DB  0x2D,0x2D,0x2D,0x2D,0x49,0x49,0x2D,0x2D
00032b 2d2d
00032c 2d23
00032d 00dc
00032e 2ddb      	.DB  0x2D,0x2D,0x23,0x2D,0xDC,0x0,0xDB,0x2D
00032f 2d2d
000330 2d2d
000331 492d
000332 2d49      	.DB  0x2D,0x2D,0x2D,0x2D,0x2D,0x49,0x49,0x2D
000333 2d2d
000334 2d2d
000335 dc23
000336 db00      	.DB  0x2D,0x2D,0x2D,0x2D,0x23,0xDC,0x0,0xDB
000337 2d2d
000338 2d2d
000339 2d2d
00033a 4949      	.DB  0x2D,0x2D,0x2D,0x2D,0x2D,0x2D,0x49,0x49
00033b 2d2d
00033c 2d2d
00033d 5f6f
00033e 004f      	.DB  0x2D,0x2D,0x2D,0x2D,0x6F,0x5F,0x4F,0x0
00033f 2424
000340 2024
000341 4249
000342 455f      	.DB  0x24,0x24,0x24,0x20,0x49,0x42,0x5F,0x45
000343 7878
000344 7375
000345 2420
000346 2424      	.DB  0x78,0x78,0x75,0x73,0x20,0x24,0x24,0x24
000347 7600
000348 2e31
000349 2036
00034a 5f5e      	.DB  0x0,0x76,0x31,0x2E,0x36,0x20,0x5E,0x5F
00034b 205e
00034c 646d
00034d 7534
00034e 722e      	.DB  0x5E,0x20,0x6D,0x64,0x34,0x75,0x2E,0x72
00034f 0075      	.DB  0x75,0x0
                 _0x2000003:
000350 c080      	.DB  0x80,0xC0
                 _0x20A005F:
D:\Lexx\Pro\Project\MD_IB_Exxus_6\Out\List\out.asm(1271): warning: .cseg .db misalignment - padding zero byte
000351 0001      	.DB  0x1
                 _0x20A0000:
000352 4e2d
000353 4e41
D:\Lexx\Pro\Project\MD_IB_Exxus_6\Out\List\out.asm(1273): warning: .cseg .db misalignment - padding zero byte
000354 0000      	.DB  0x2D,0x4E,0x41,0x4E,0x0
                 
                 __GLOBAL_INI_TBL:
000355 0002      	.DW  0x02
000356 02c0      	.DW  __base_y_G100
000357 06a0      	.DW  _0x2000003*2
                 
000358 0001      	.DW  0x01
000359 02c9      	.DW  __seed_G105
00035a 06a2      	.DW  _0x20A005F*2
                 
                 _0xFFFFFFFF:
00035b 0000      	.DW  0
                 
                 __RESET:
00035c 94f8      	CLI
00035d 27ee      	CLR  R30
00035e bbec      	OUT  EECR,R30
                 
                 ;INTERRUPT VECTORS ARE PLACED
                 ;AT THE START OF FLASH
00035f e0f1      	LDI  R31,1
000360 bffb      	OUT  GICR,R31
000361 bfeb      	OUT  GICR,R30
000362 bfe5      	OUT  MCUCR,R30
                 
                 ;DISABLE WATCHDOG
000363 e1f8      	LDI  R31,0x18
000364 bdf1      	OUT  WDTCR,R31
000365 bde1      	OUT  WDTCR,R30
                 
                 ;CLEAR R2-R14
000366 e08d      	LDI  R24,(14-2)+1
000367 e0a2      	LDI  R26,2
000368 27bb      	CLR  R27
                 __CLEAR_REG:
000369 93ed      	ST   X+,R30
00036a 958a      	DEC  R24
00036b f7e9      	BRNE __CLEAR_REG
                 
                 ;CLEAR SRAM
00036c e080      	LDI  R24,LOW(0x800)
00036d e098      	LDI  R25,HIGH(0x800)
00036e e6a0      	LDI  R26,0x60
                 __CLEAR_SRAM:
00036f 93ed      	ST   X+,R30
000370 9701      	SBIW R24,1
000371 f7e9      	BRNE __CLEAR_SRAM
                 
                 ;GLOBAL VARIABLES INITIALIZATION
000372 eaea      	LDI  R30,LOW(__GLOBAL_INI_TBL*2)
000373 e0f6      	LDI  R31,HIGH(__GLOBAL_INI_TBL*2)
                 __GLOBAL_INI_NEXT:
000374 9185      	LPM  R24,Z+
000375 9195      	LPM  R25,Z+
000376 9700      	SBIW R24,0
000377 f061      	BREQ __GLOBAL_INI_END
000378 91a5      	LPM  R26,Z+
000379 91b5      	LPM  R27,Z+
00037a 9005      	LPM  R0,Z+
00037b 9015      	LPM  R1,Z+
00037c 01bf      	MOVW R22,R30
00037d 01f0      	MOVW R30,R0
                 __GLOBAL_INI_LOOP:
00037e 9005      	LPM  R0,Z+
00037f 920d      	ST   X+,R0
000380 9701      	SBIW R24,1
000381 f7e1      	BRNE __GLOBAL_INI_LOOP
000382 01fb      	MOVW R30,R22
000383 cff0      	RJMP __GLOBAL_INI_NEXT
                 __GLOBAL_INI_END:
                 
                 ;STACK POINTER INITIALIZATION
000384 e5ef      	LDI  R30,LOW(0x85F)
000385 bfed      	OUT  SPL,R30
000386 e0e8      	LDI  R30,HIGH(0x85F)
000387 bfee      	OUT  SPH,R30
                 
                 ;DATA STACK POINTER INITIALIZATION
000388 e6c0      	LDI  R28,LOW(0x260)
000389 e0d2      	LDI  R29,HIGH(0x260)
                 
00038a 940c 0a12 	JMP  _main
                 
                 	.ESEG
                 	.ORG 0
                 
                 	.DSEG
                 	.ORG 0x260
                 
                 	.CSEG
                 ;
                 ;#include <mega32.h>
                 	#ifndef __SLEEP_DEFINED__
                 	#define __SLEEP_DEFINED__
                 	.EQU __se_bit=0x80
                 	.EQU __sm_mask=0x70
                 	.EQU __sm_powerdown=0x20
                 	.EQU __sm_powersave=0x30
                 	.EQU __sm_standby=0x60
                 	.EQU __sm_ext_standby=0x70
                 	.EQU __sm_adc_noise_red=0x10
                 	.SET power_ctrl_reg=mcucr
                 	#endif
                 ;
                 ;// Alphanumeric LCD Module functions
                 ;#asm
                    .equ __lcd_port=0x15 ;PORTC
                 ; 0000 0007 #endasm
                 ;
                 ;#include <lcd.h>
                 ;#include <stdio.h>
                 ;#include <delay.h>
                 ;#include <math.h>
                 ;
                 ;#define ADC_VREF_TYPE 0x20
                 ;#define light PORTD.6
                 ;
                 ;// Declare your global variables here
                 ;char string_LCD_1[20], string_LCD_2[20];
                 ;unsigned int zero_Y, zero_X;
                 ;float  gnd_ampl, gnd_faza, rock_ampl, rock_faza, gnd_ampl_max, gnd_faza_max, rock_ampl_max, rock_faza_max;
                 ;float now_ampl, now_faza, bar_rad;
                 ;float temp_ampl, temp_faza;
                 ;unsigned char bar;
                 ;unsigned char X, Y, viz_ampl, viz_faza;
                 ;unsigned char adc_data;
                 ;unsigned int batt_celoe, batt_drob;
                 ;bit kn1, kn2, kn3, kn4, kn5, kn6, menu, mod_gnd, mod_rock, mod_all_met, rezym;
                 ;
                 ;// ADC interrupt service routine
                 ;interrupt [ADC_INT] void adc_isr(void)
                 ; 0000 001F {
                 
                 	.CSEG
                 _adc_isr:
                 ; 0000 0020 // Read the 8 most significant bits
                 ; 0000 0021 // of the AD conversion result
                 ; 0000 0022 adc_data=ADCH;
00038c b0c5      	IN   R12,5
                 ; 0000 0023 }
00038d 9518      	RETI
                 ;
                 ;// Read the 8 most significant bits
                 ;// of the AD conversion result
                 ;// with noise canceling
                 ;unsigned char read_adc(unsigned char adc_input)
                 ; 0000 0029 {
                 _read_adc:
                 ; 0000 002A ADMUX=adc_input | (ADC_VREF_TYPE & 0xff);
                 ;	adc_input -> Y+0
00038e 940e 13f5 	CALL SUBOPT_0x0
000390 62e0      	ORI  R30,0x20
000391 b9e7      	OUT  0x7,R30
                 ; 0000 002B // Delay needed for the stabilization of the ADC input voltage
                 ; 0000 002C delay_us(10);
                +
000392 e387     +LDI R24 , LOW ( 55 )
                +__DELAY_USB_LOOP :
000393 958a     +DEC R24
000394 f7f1     +BRNE __DELAY_USB_LOOP
                 	__DELAY_USB 55
                 ; 0000 002D #asm
                 ; 0000 002E     in   r30,mcucr
000395 b7e5          in   r30,mcucr
                 ; 0000 002F     cbr  r30,__sm_mask
000396 78ef          cbr  r30,__sm_mask
                 ; 0000 0030     sbr  r30,__se_bit | __sm_adc_noise_red
000397 69e0          sbr  r30,__se_bit | __sm_adc_noise_red
                 ; 0000 0031     out  mcucr,r30
000398 bfe5          out  mcucr,r30
                 ; 0000 0032     sleep
000399 9588          sleep
                 ; 0000 0033     cbr  r30,__se_bit
00039a 77ef          cbr  r30,__se_bit
                 ; 0000 0034     out  mcucr,r30
00039b bfe5          out  mcucr,r30
                 ; 0000 0035 #endasm
                 ; 0000 0036 return adc_data;
00039c 2dec      	MOV  R30,R12
00039d 9621      	ADIW R28,1
00039e 9508      	RET
                 ; 0000 0037 }
                 ;
                 ;void batt_zarqd(void)
                 ; 0000 003A     {
                 _batt_zarqd:
                 ; 0000 003B     unsigned int temp;
                 ; 0000 003C     temp=read_adc(4);
00039f 931a      	ST   -Y,R17
0003a0 930a      	ST   -Y,R16
                 ;	temp -> R16,R17
0003a1 e0e4      	LDI  R30,LOW(4)
0003a2 93ea      	ST   -Y,R30
0003a3 dfea      	RCALL _read_adc
0003a4 2f0e      	MOV  R16,R30
0003a5 2711      	CLR  R17
                 ; 0000 003D     batt_celoe=temp/20;
0003a6 01d8      	MOVW R26,R16
0003a7 e1e4      	LDI  R30,LOW(20)
0003a8 e0f0      	LDI  R31,HIGH(20)
0003a9 940e 17a5 	CALL __DIVW21U
0003ab 93e0 02bc 	STS  _batt_celoe,R30
0003ad 93f0 02bd 	STS  _batt_celoe+1,R31
                 ; 0000 003E     batt_drob=temp%20;
0003af 01d8      	MOVW R26,R16
0003b0 e1e4      	LDI  R30,LOW(20)
0003b1 e0f0      	LDI  R31,HIGH(20)
0003b2 940e 17b8 	CALL __MODW21U
0003b4 93e0 02be 	STS  _batt_drob,R30
0003b6 93f0 02bf 	STS  _batt_drob+1,R31
                 ; 0000 003F     }
0003b8 9109      	LD   R16,Y+
0003b9 9119      	LD   R17,Y+
0003ba 9508      	RET
                 ;
                 ;void kn_klava(void)
                 ; 0000 0042     {
                 _kn_klava:
                 ; 0000 0043     kn1=0;
0003bb 94e8      	CLT
0003bc f820      	BLD  R2,0
                 ; 0000 0044     kn2=0;
0003bd f821      	BLD  R2,1
                 ; 0000 0045     kn3=0;
0003be f822      	BLD  R2,2
                 ; 0000 0046     kn4=0;
0003bf f823      	BLD  R2,3
                 ; 0000 0047     kn5=0;
0003c0 f824      	BLD  R2,4
                 ; 0000 0048     kn6=0;
0003c1 f825      	BLD  R2,5
                 ; 0000 0049     DDRD.2=1;
0003c2 9a8a      	SBI  0x11,2
                 ; 0000 004A     PORTD.2=0;
0003c3 9892      	CBI  0x12,2
                 ; 0000 004B     delay_ms (1);
0003c4 940e 13f8 	CALL SUBOPT_0x1
                 ; 0000 004C     if (PIND.3==0 && PIND.4==0) kn1=1;
0003c6 e0a0      	LDI  R26,0
0003c7 9983      	SBIC 0x10,3
0003c8 e0a1      	LDI  R26,1
0003c9 30a0      	CPI  R26,LOW(0x0)
0003ca f419      	BRNE _0x8
0003cb 940e 13fe 	CALL SUBOPT_0x2
0003cd f009      	BREQ _0x9
                 _0x8:
0003ce c002      	RJMP _0x7
                 _0x9:
0003cf 9468      	SET
0003d0 f820      	BLD  R2,0
                 ; 0000 004D     if (PIND.3==1 && PIND.4==0) kn2=1;
                 _0x7:
0003d1 e0a0      	LDI  R26,0
0003d2 9983      	SBIC 0x10,3
0003d3 e0a1      	LDI  R26,1
0003d4 30a1      	CPI  R26,LOW(0x1)
0003d5 f419      	BRNE _0xB
0003d6 940e 13fe 	CALL SUBOPT_0x2
0003d8 f009      	BREQ _0xC
                 _0xB:
0003d9 c002      	RJMP _0xA
                 _0xC:
0003da 9468      	SET
0003db f821      	BLD  R2,1
                 ; 0000 004E     DDRD.2=0;
                 _0xA:
0003dc 988a      	CBI  0x11,2
                 ; 0000 004F     DDRD.3=1;
0003dd 9a8b      	SBI  0x11,3
                 ; 0000 0050     PORTD.2=1;
0003de 9a92      	SBI  0x12,2
                 ; 0000 0051     PORTD.3=0;
0003df 9893      	CBI  0x12,3
                 ; 0000 0052     delay_ms (1);
0003e0 940e 13f8 	CALL SUBOPT_0x1
                 ; 0000 0053     if (PIND.2==1 && PIND.4==0) kn3=1;
0003e2 e0a0      	LDI  R26,0
0003e3 9982      	SBIC 0x10,2
0003e4 e0a1      	LDI  R26,1
0003e5 30a1      	CPI  R26,LOW(0x1)
0003e6 f419      	BRNE _0x16
0003e7 940e 13fe 	CALL SUBOPT_0x2
0003e9 f009      	BREQ _0x17
                 _0x16:
0003ea c002      	RJMP _0x15
                 _0x17:
0003eb 9468      	SET
0003ec f822      	BLD  R2,2
                 ; 0000 0054     if (PIND.2==0 && PIND.4==0) kn4=1;
                 _0x15:
0003ed e0a0      	LDI  R26,0
0003ee 9982      	SBIC 0x10,2
0003ef e0a1      	LDI  R26,1
0003f0 30a0      	CPI  R26,LOW(0x0)
0003f1 f419      	BRNE _0x19
0003f2 940e 13fe 	CALL SUBOPT_0x2
0003f4 f009      	BREQ _0x1A
                 _0x19:
0003f5 c002      	RJMP _0x18
                 _0x1A:
0003f6 9468      	SET
0003f7 f823      	BLD  R2,3
                 ; 0000 0055     DDRD.3=0;
                 _0x18:
0003f8 988b      	CBI  0x11,3
                 ; 0000 0056     DDRD.4=1;
0003f9 9a8c      	SBI  0x11,4
                 ; 0000 0057     PORTD.3=1;
0003fa 9a93      	SBI  0x12,3
                 ; 0000 0058     PORTD.4=0;
0003fb 9894      	CBI  0x12,4
                 ; 0000 0059     delay_ms (1);
0003fc 940e 13f8 	CALL SUBOPT_0x1
                 ; 0000 005A     if (PIND.2==1 && PIND.3==0) kn5=1;
0003fe e0a0      	LDI  R26,0
0003ff 9982      	SBIC 0x10,2
000400 e0a1      	LDI  R26,1
000401 30a1      	CPI  R26,LOW(0x1)
000402 f429      	BRNE _0x24
000403 e0a0      	LDI  R26,0
000404 9983      	SBIC 0x10,3
000405 e0a1      	LDI  R26,1
000406 30a0      	CPI  R26,LOW(0x0)
000407 f009      	BREQ _0x25
                 _0x24:
000408 c002      	RJMP _0x23
                 _0x25:
000409 9468      	SET
00040a f824      	BLD  R2,4
                 ; 0000 005B     if (PIND.2==0 && PIND.3==1) kn6=1;
                 _0x23:
00040b e0a0      	LDI  R26,0
00040c 9982      	SBIC 0x10,2
00040d e0a1      	LDI  R26,1
00040e 30a0      	CPI  R26,LOW(0x0)
00040f f429      	BRNE _0x27
000410 e0a0      	LDI  R26,0
000411 9983      	SBIC 0x10,3
000412 e0a1      	LDI  R26,1
000413 30a1      	CPI  R26,LOW(0x1)
000414 f009      	BREQ _0x28
                 _0x27:
000415 c002      	RJMP _0x26
                 _0x28:
000416 9468      	SET
000417 f825      	BLD  R2,5
                 ; 0000 005C     DDRD.4=0;
                 _0x26:
000418 988c      	CBI  0x11,4
                 ; 0000 005D     PORTD.4=1;
000419 9a94      	SBI  0x12,4
                 ; 0000 005E     }
00041a 9508      	RET
                 ;
                 ;void lcd_disp(void)
                 ; 0000 0061     {
                 _lcd_disp:
                 ; 0000 0062     if (menu==1)
00041b 940e 1403 	CALL SUBOPT_0x3
00041d f011      	BREQ PC+3
00041e 940c 04a8 	JMP _0x2D
                 ; 0000 0063         {
                 ; 0000 0064         light=1;
000420 940e 1408 	CALL SUBOPT_0x4
                 ; 0000 0065 
                 ; 0000 0066         lcd_gotoxy (0,0);
                 ; 0000 0067         sprintf (string_LCD_1, "%d.%dV B=%d       ", batt_celoe, batt_drob, bar);
000422 940e 140e 	CALL SUBOPT_0x5
                +
000424 e6e6     +LDI R30 , LOW ( 2 * _0x0 + 0 )
000425 e0f0     +LDI R31 , HIGH ( 2 * _0x0 + 0 )
                 	__POINTW1FN _0x0,0
000426 93fa      	ST   -Y,R31
000427 93ea      	ST   -Y,R30
000428 91e0 02bc 	LDS  R30,_batt_celoe
00042a 91f0 02bd 	LDS  R31,_batt_celoe+1
00042c 940e 1413 	CALL SUBOPT_0x6
00042e 91e0 02be 	LDS  R30,_batt_drob
000430 91f0 02bf 	LDS  R31,_batt_drob+1
000432 940e 1413 	CALL SUBOPT_0x6
000434 940e 1418 	CALL SUBOPT_0x7
000436 e08c      	LDI  R24,12
000437 940e 11db 	CALL _sprintf
000439 9660      	ADIW R28,16
                 ; 0000 0068         lcd_puts (string_LCD_1);
00043a 940e 140e 	CALL SUBOPT_0x5
00043c 940e 0f9d 	CALL _lcd_puts
                 ; 0000 0069 
                 ; 0000 006A         lcd_gotoxy (12,0);
00043e e0ec      	LDI  R30,LOW(12)
00043f 940e 141f 	CALL SUBOPT_0x8
                 ; 0000 006B         if (rezym == 0)         sprintf (string_LCD_1, "Stat");
000441 fc32      	SBRC R3,2
000442 c005      	RJMP _0x30
000443 940e 140e 	CALL SUBOPT_0x5
                +
000445 e7e9     +LDI R30 , LOW ( 2 * _0x0 + 19 )
000446 e0f0     +LDI R31 , HIGH ( 2 * _0x0 + 19 )
                 	__POINTW1FN _0x0,19
000447 c004      	RJMP _0x1A4
                 ; 0000 006C         else                    sprintf (string_LCD_1, "Din ");
                 _0x30:
000448 940e 140e 	CALL SUBOPT_0x5
                +
00044a e7ee     +LDI R30 , LOW ( 2 * _0x0 + 24 )
00044b e0f0     +LDI R31 , HIGH ( 2 * _0x0 + 24 )
                 	__POINTW1FN _0x0,24
                 _0x1A4:
00044c 93fa      	ST   -Y,R31
00044d 93ea      	ST   -Y,R30
00044e 940e 1424 	CALL SUBOPT_0x9
                 ; 0000 006D         lcd_puts (string_LCD_1);
000450 940e 140e 	CALL SUBOPT_0x5
000452 940e 1429 	CALL SUBOPT_0xA
                 ; 0000 006E 
                 ; 0000 006F         lcd_gotoxy (0,1);
                 ; 0000 0070         sprintf (string_LCD_2, "%x %x =Z", X, Y);
                +
000454 e8e3     +LDI R30 , LOW ( 2 * _0x0 + 29 )
000455 e0f0     +LDI R31 , HIGH ( 2 * _0x0 + 29 )
                 	__POINTW1FN _0x0,29
000456 93fa      	ST   -Y,R31
000457 93ea      	ST   -Y,R30
000458 940e 1436 	CALL SUBOPT_0xB
00045a 940e 143d 	CALL SUBOPT_0xC
00045c 940e 1444 	CALL SUBOPT_0xD
                 ; 0000 0071         lcd_puts (string_LCD_2);
00045e 940e 1449 	CALL SUBOPT_0xE
000460 940e 0f9d 	CALL _lcd_puts
                 ; 0000 0072 
                 ; 0000 0073         lcd_gotoxy (8,1);
000462 e0e8      	LDI  R30,LOW(8)
000463 940e 144e 	CALL SUBOPT_0xF
                 ; 0000 0074         if (mod_gnd == 1)   sprintf (string_LCD_2, "+G");
000465 e0a0      	LDI  R26,0
000466 fc27      	SBRC R2,7
000467 e0a1      	LDI  R26,1
000468 30a1      	CPI  R26,LOW(0x1)
000469 f429      	BRNE _0x32
00046a 940e 1449 	CALL SUBOPT_0xE
                +
00046c e8ec     +LDI R30 , LOW ( 2 * _0x0 + 38 )
00046d e0f0     +LDI R31 , HIGH ( 2 * _0x0 + 38 )
                 	__POINTW1FN _0x0,38
00046e c004      	RJMP _0x1A5
                 ; 0000 0075         else                    sprintf (string_LCD_2, "  ");
                 _0x32:
00046f 940e 1449 	CALL SUBOPT_0xE
                +
000471 e7e6     +LDI R30 , LOW ( 2 * _0x0 + 16 )
000472 e0f0     +LDI R31 , HIGH ( 2 * _0x0 + 16 )
                 	__POINTW1FN _0x0,16
                 _0x1A5:
000473 93fa      	ST   -Y,R31
000474 93ea      	ST   -Y,R30
000475 940e 1424 	CALL SUBOPT_0x9
                 ; 0000 0076         lcd_puts (string_LCD_2);
000477 940e 1449 	CALL SUBOPT_0xE
000479 940e 0f9d 	CALL _lcd_puts
                 ; 0000 0077 
                 ; 0000 0078         lcd_gotoxy (10,1);
00047b e0ea      	LDI  R30,LOW(10)
00047c 940e 144e 	CALL SUBOPT_0xF
                 ; 0000 0079         if (mod_rock == 1)   sprintf (string_LCD_2, "+R");
00047e 940e 1453 	CALL SUBOPT_0x10
000480 f429      	BRNE _0x34
000481 940e 1449 	CALL SUBOPT_0xE
                +
000483 e8ef     +LDI R30 , LOW ( 2 * _0x0 + 41 )
000484 e0f0     +LDI R31 , HIGH ( 2 * _0x0 + 41 )
                 	__POINTW1FN _0x0,41
000485 c004      	RJMP _0x1A6
                 ; 0000 007A         else                    sprintf (string_LCD_2, "  ");
                 _0x34:
000486 940e 1449 	CALL SUBOPT_0xE
                +
000488 e7e6     +LDI R30 , LOW ( 2 * _0x0 + 16 )
000489 e0f0     +LDI R31 , HIGH ( 2 * _0x0 + 16 )
                 	__POINTW1FN _0x0,16
                 _0x1A6:
00048a 93fa      	ST   -Y,R31
00048b 93ea      	ST   -Y,R30
00048c 940e 1424 	CALL SUBOPT_0x9
                 ; 0000 007B         lcd_puts (string_LCD_2);
00048e 940e 1449 	CALL SUBOPT_0xE
000490 940e 0f9d 	CALL _lcd_puts
                 ; 0000 007C 
                 ; 0000 007D         lcd_gotoxy (12,1);
000492 e0ec      	LDI  R30,LOW(12)
000493 940e 144e 	CALL SUBOPT_0xF
                 ; 0000 007E         if (mod_all_met == 1)   sprintf (string_LCD_2, "+All");
000495 e0a0      	LDI  R26,0
000496 fc31      	SBRC R3,1
000497 e0a1      	LDI  R26,1
000498 30a1      	CPI  R26,LOW(0x1)
000499 f429      	BRNE _0x36
00049a 940e 1449 	CALL SUBOPT_0xE
                +
00049c e9e2     +LDI R30 , LOW ( 2 * _0x0 + 44 )
00049d e0f0     +LDI R31 , HIGH ( 2 * _0x0 + 44 )
                 	__POINTW1FN _0x0,44
00049e c004      	RJMP _0x1A7
                 ; 0000 007F         else                    sprintf (string_LCD_2, "-Fe ");
                 _0x36:
00049f 940e 1449 	CALL SUBOPT_0xE
                +
0004a1 e9e7     +LDI R30 , LOW ( 2 * _0x0 + 49 )
0004a2 e0f0     +LDI R31 , HIGH ( 2 * _0x0 + 49 )
                 	__POINTW1FN _0x0,49
                 _0x1A7:
0004a3 93fa      	ST   -Y,R31
0004a4 93ea      	ST   -Y,R30
0004a5 940e 1424 	CALL SUBOPT_0x9
                 ; 0000 0080         lcd_puts (string_LCD_2);
0004a7 c384      	RJMP _0x20C0008
                 ; 0000 0081 
                 ; 0000 0082         return;
                 ; 0000 0083         };
                 _0x2D:
                 ; 0000 0084 
                 ; 0000 0085     if (kn2==1)
0004a8 940e 1458 	CALL SUBOPT_0x11
0004aa f4a1      	BRNE _0x38
                 ; 0000 0086         {
                 ; 0000 0087         light=1;
0004ab 940e 1408 	CALL SUBOPT_0x4
                 ; 0000 0088         lcd_gotoxy (0,0);
                 ; 0000 0089         if (rezym == 0)         sprintf (string_LCD_1, "    _Static_    ");
0004ad fc32      	SBRC R3,2
0004ae c005      	RJMP _0x3B
0004af 940e 140e 	CALL SUBOPT_0x5
                +
0004b1 e9ec     +LDI R30 , LOW ( 2 * _0x0 + 54 )
0004b2 e0f0     +LDI R31 , HIGH ( 2 * _0x0 + 54 )
                 	__POINTW1FN _0x0,54
0004b3 c004      	RJMP _0x1A8
                 ; 0000 008A         else                    sprintf (string_LCD_1, "    _Dinamic_   ");
                 _0x3B:
0004b4 940e 140e 	CALL SUBOPT_0x5
                +
0004b6 eaed     +LDI R30 , LOW ( 2 * _0x0 + 71 )
0004b7 e0f0     +LDI R31 , HIGH ( 2 * _0x0 + 71 )
                 	__POINTW1FN _0x0,71
                 _0x1A8:
0004b8 93fa      	ST   -Y,R31
0004b9 93ea      	ST   -Y,R30
0004ba 940e 1424 	CALL SUBOPT_0x9
                 ; 0000 008B         lcd_puts (string_LCD_1);
0004bc e6e0      	LDI  R30,LOW(_string_LCD_1)
0004bd e0f2      	LDI  R31,HIGH(_string_LCD_1)
0004be c36f      	RJMP _0x20C0009
                 ; 0000 008C         return;
                 ; 0000 008D         };
                 _0x38:
                 ; 0000 008E 
                 ; 0000 008F     if (kn3==1)
0004bf 940e 145d 	CALL SUBOPT_0x12
0004c1 f489      	BRNE _0x3D
                 ; 0000 0090         {
                 ; 0000 0091         light=1;
0004c2 9a96      	SBI  0x12,6
                 ; 0000 0092         lcd_gotoxy (0,1);
0004c3 e0e0      	LDI  R30,LOW(0)
0004c4 940e 144e 	CALL SUBOPT_0xF
                 ; 0000 0093         sprintf (string_LCD_2, "Barrier %d       ", bar);
0004c6 940e 1449 	CALL SUBOPT_0xE
                +
0004c8 ebee     +LDI R30 , LOW ( 2 * _0x0 + 88 )
0004c9 e0f0     +LDI R31 , HIGH ( 2 * _0x0 + 88 )
                 	__POINTW1FN _0x0,88
0004ca 93fa      	ST   -Y,R31
0004cb 93ea      	ST   -Y,R30
0004cc 940e 1418 	CALL SUBOPT_0x7
0004ce e084      	LDI  R24,4
0004cf 940e 11db 	CALL _sprintf
0004d1 9628      	ADIW R28,8
                 ; 0000 0094         lcd_puts (string_LCD_2);
0004d2 c359      	RJMP _0x20C0008
                 ; 0000 0095         return;
                 ; 0000 0096         };
                 _0x3D:
                 ; 0000 0097 
                 ; 0000 0098     if (kn4==1)
0004d3 e0a0      	LDI  R26,0
0004d4 fc23      	SBRC R2,3
0004d5 e0a1      	LDI  R26,1
0004d6 30a1      	CPI  R26,LOW(0x1)
0004d7 f4d9      	BRNE _0x40
                 ; 0000 0099         {
                 ; 0000 009A         light=1;
0004d8 940e 1408 	CALL SUBOPT_0x4
                 ; 0000 009B         lcd_gotoxy (0,0);
                 ; 0000 009C         sprintf (string_LCD_1, ">>>>> Rock <<<<<", bar);
0004da 940e 140e 	CALL SUBOPT_0x5
                +
0004dc ede0     +LDI R30 , LOW ( 2 * _0x0 + 106 )
0004dd e0f0     +LDI R31 , HIGH ( 2 * _0x0 + 106 )
                 	__POINTW1FN _0x0,106
0004de 93fa      	ST   -Y,R31
0004df 93ea      	ST   -Y,R30
0004e0 940e 1418 	CALL SUBOPT_0x7
0004e2 e084      	LDI  R24,4
0004e3 940e 11db 	CALL _sprintf
0004e5 9628      	ADIW R28,8
                 ; 0000 009D         lcd_puts (string_LCD_1);
0004e6 940e 140e 	CALL SUBOPT_0x5
0004e8 940e 1429 	CALL SUBOPT_0xA
                 ; 0000 009E         lcd_gotoxy (0,1);
                 ; 0000 009F         sprintf (string_LCD_2, "%f %f", rock_ampl, rock_faza);
                +
0004ea eee1     +LDI R30 , LOW ( 2 * _0x0 + 123 )
0004eb e0f0     +LDI R31 , HIGH ( 2 * _0x0 + 123 )
                 	__POINTW1FN _0x0,123
0004ec 940e 1462 	CALL SUBOPT_0x13
0004ee 940e 146d 	CALL SUBOPT_0x14
0004f0 940e 1444 	CALL SUBOPT_0xD
                 ; 0000 00A0         lcd_puts (string_LCD_2);
0004f2 c339      	RJMP _0x20C0008
                 ; 0000 00A1         return;
                 ; 0000 00A2         };
                 _0x40:
                 ; 0000 00A3 
                 ; 0000 00A4     if (kn5==1)
0004f3 e0a0      	LDI  R26,0
0004f4 fc24      	SBRC R2,4
0004f5 e0a1      	LDI  R26,1
0004f6 30a1      	CPI  R26,LOW(0x1)
0004f7 f4a9      	BRNE _0x43
                 ; 0000 00A5         {
                 ; 0000 00A6         light=1;
0004f8 940e 1408 	CALL SUBOPT_0x4
                 ; 0000 00A7         lcd_gotoxy (0,0);
                 ; 0000 00A8         sprintf (string_LCD_1, ">>>> Ground <<<<");
0004fa 940e 140e 	CALL SUBOPT_0x5
                +
0004fc eee7     +LDI R30 , LOW ( 2 * _0x0 + 129 )
0004fd e0f0     +LDI R31 , HIGH ( 2 * _0x0 + 129 )
                 	__POINTW1FN _0x0,129
0004fe 940e 147a 	CALL SUBOPT_0x15
                 ; 0000 00A9         lcd_puts (string_LCD_1);
000500 940e 140e 	CALL SUBOPT_0x5
000502 940e 1429 	CALL SUBOPT_0xA
                 ; 0000 00AA         lcd_gotoxy (0,1);
                 ; 0000 00AB         sprintf (string_LCD_2, "%f %f ", gnd_ampl, gnd_faza);
                +
000504 efe8     +LDI R30 , LOW ( 2 * _0x0 + 146 )
000505 e0f0     +LDI R31 , HIGH ( 2 * _0x0 + 146 )
                 	__POINTW1FN _0x0,146
000506 940e 147d 	CALL SUBOPT_0x16
000508 940e 1488 	CALL SUBOPT_0x17
00050a 940e 1444 	CALL SUBOPT_0xD
                 ; 0000 00AC         lcd_puts (string_LCD_2);
00050c c31f      	RJMP _0x20C0008
                 ; 0000 00AD         return;
                 ; 0000 00AE         };
                 _0x43:
                 ; 0000 00AF     if (kn6==1)
00050d e0a0      	LDI  R26,0
00050e fc25      	SBRC R2,5
00050f e0a1      	LDI  R26,1
000510 30a1      	CPI  R26,LOW(0x1)
000511 f4f9      	BRNE _0x46
                 ; 0000 00B0         {
                 ; 0000 00B1         light=1;
000512 940e 1408 	CALL SUBOPT_0x4
                 ; 0000 00B2         lcd_gotoxy (0,0);
                 ; 0000 00B3         sprintf (string_LCD_1, ">>>>> Zero <<<<<");
000514 940e 140e 	CALL SUBOPT_0x5
                +
000516 efef     +LDI R30 , LOW ( 2 * _0x0 + 153 )
000517 e0f0     +LDI R31 , HIGH ( 2 * _0x0 + 153 )
                 	__POINTW1FN _0x0,153
000518 940e 147a 	CALL SUBOPT_0x15
                 ; 0000 00B4         lcd_puts (string_LCD_1);
00051a 940e 140e 	CALL SUBOPT_0x5
00051c 940e 1429 	CALL SUBOPT_0xA
                 ; 0000 00B5         lcd_gotoxy (0,1);
                 ; 0000 00B6         sprintf (string_LCD_2, "%x %x %x %x ", zero_Y, zero_X, Y, X);
                +
00051e e1e0     +LDI R30 , LOW ( 2 * _0x0 + 170 )
00051f e0f1     +LDI R31 , HIGH ( 2 * _0x0 + 170 )
                 	__POINTW1FN _0x0,170
000520 93fa      	ST   -Y,R31
000521 93ea      	ST   -Y,R30
000522 01f2      	MOVW R30,R4
000523 940e 1413 	CALL SUBOPT_0x6
000525 01f3      	MOVW R30,R6
000526 940e 1413 	CALL SUBOPT_0x6
000528 940e 143d 	CALL SUBOPT_0xC
00052a 940e 1436 	CALL SUBOPT_0xB
00052c e180      	LDI  R24,16
00052d 940e 11db 	CALL _sprintf
00052f 9664      	ADIW R28,20
                 ; 0000 00B7         lcd_puts (string_LCD_2);
000530 c2fb      	RJMP _0x20C0008
                 ; 0000 00B8         return;
                 ; 0000 00B9         };
                 _0x46:
                 ; 0000 00BA     lcd_gotoxy (0,0);
000531 e0e0      	LDI  R30,LOW(0)
000532 940e 141f 	CALL SUBOPT_0x8
                 ; 0000 00BB     if (rezym == 0)
000534 fc32      	SBRC R3,2
000535 c128      	RJMP _0x49
                 ; 0000 00BC         {
                 ; 0000 00BD         if (viz_ampl==0)    sprintf (string_LCD_1, "                ");
000536 20aa      	TST  R10
000537 f431      	BRNE _0x4A
000538 940e 140e 	CALL SUBOPT_0x5
                +
00053a e1ed     +LDI R30 , LOW ( 2 * _0x0 + 183 )
00053b e0f1     +LDI R31 , HIGH ( 2 * _0x0 + 183 )
                 	__POINTW1FN _0x0,183
00053c 940e 147a 	CALL SUBOPT_0x15
                 ; 0000 00BE         if (viz_ampl==1)    sprintf (string_LCD_1, "_               ");
                 _0x4A:
00053e e0e1      	LDI  R30,LOW(1)
00053f 15ea      	CP   R30,R10
000540 f431      	BRNE _0x4B
000541 940e 140e 	CALL SUBOPT_0x5
                +
000543 e2ee     +LDI R30 , LOW ( 2 * _0x0 + 200 )
000544 e0f1     +LDI R31 , HIGH ( 2 * _0x0 + 200 )
                 	__POINTW1FN _0x0,200
000545 940e 147a 	CALL SUBOPT_0x15
                 ; 0000 00BF         if (viz_ampl==2)    sprintf (string_LCD_1, "               ");
                 _0x4B:
000547 e0e2      	LDI  R30,LOW(2)
000548 15ea      	CP   R30,R10
000549 f431      	BRNE _0x4C
00054a 940e 140e 	CALL SUBOPT_0x5
                +
00054c e3ef     +LDI R30 , LOW ( 2 * _0x0 + 217 )
00054d e0f1     +LDI R31 , HIGH ( 2 * _0x0 + 217 )
                 	__POINTW1FN _0x0,217
00054e 940e 147a 	CALL SUBOPT_0x15
                 ; 0000 00C0         if (viz_ampl==3)    sprintf (string_LCD_1, "_              ");
                 _0x4C:
000550 e0e3      	LDI  R30,LOW(3)
000551 15ea      	CP   R30,R10
000552 f431      	BRNE _0x4D
000553 940e 140e 	CALL SUBOPT_0x5
                +
000555 e5e0     +LDI R30 , LOW ( 2 * _0x0 + 234 )
000556 e0f1     +LDI R31 , HIGH ( 2 * _0x0 + 234 )
                 	__POINTW1FN _0x0,234
000557 940e 147a 	CALL SUBOPT_0x15
                 ; 0000 00C1         if (viz_ampl==4)    sprintf (string_LCD_1, "              ");
                 _0x4D:
000559 e0e4      	LDI  R30,LOW(4)
00055a 15ea      	CP   R30,R10
00055b f431      	BRNE _0x4E
00055c 940e 140e 	CALL SUBOPT_0x5
                +
00055e e6e1     +LDI R30 , LOW ( 2 * _0x0 + 251 )
00055f e0f1     +LDI R31 , HIGH ( 2 * _0x0 + 251 )
                 	__POINTW1FN _0x0,251
000560 940e 147a 	CALL SUBOPT_0x15
                 ; 0000 00C2         if (viz_ampl==5)    sprintf (string_LCD_1, "_             ");
                 _0x4E:
000562 e0e5      	LDI  R30,LOW(5)
000563 15ea      	CP   R30,R10
000564 f431      	BRNE _0x4F
000565 940e 140e 	CALL SUBOPT_0x5
                +
000567 e7e2     +LDI R30 , LOW ( 2 * _0x0 + 268 )
000568 e0f1     +LDI R31 , HIGH ( 2 * _0x0 + 268 )
                 	__POINTW1FN _0x0,268
000569 940e 147a 	CALL SUBOPT_0x15
                 ; 0000 00C3         if (viz_ampl==6)    sprintf (string_LCD_1, "             ");
                 _0x4F:
00056b e0e6      	LDI  R30,LOW(6)
00056c 15ea      	CP   R30,R10
00056d f431      	BRNE _0x50
00056e 940e 140e 	CALL SUBOPT_0x5
                +
000570 e8e3     +LDI R30 , LOW ( 2 * _0x0 + 285 )
000571 e0f1     +LDI R31 , HIGH ( 2 * _0x0 + 285 )
                 	__POINTW1FN _0x0,285
000572 940e 147a 	CALL SUBOPT_0x15
                 ; 0000 00C4         if (viz_ampl==7)    sprintf (string_LCD_1, "_            ");
                 _0x50:
000574 e0e7      	LDI  R30,LOW(7)
000575 15ea      	CP   R30,R10
000576 f431      	BRNE _0x51
000577 940e 140e 	CALL SUBOPT_0x5
                +
000579 e9e4     +LDI R30 , LOW ( 2 * _0x0 + 302 )
00057a e0f1     +LDI R31 , HIGH ( 2 * _0x0 + 302 )
                 	__POINTW1FN _0x0,302
00057b 940e 147a 	CALL SUBOPT_0x15
                 ; 0000 00C5         if (viz_ampl==8)    sprintf (string_LCD_1, "            ");
                 _0x51:
00057d e0e8      	LDI  R30,LOW(8)
00057e 15ea      	CP   R30,R10
00057f f431      	BRNE _0x52
000580 940e 140e 	CALL SUBOPT_0x5
                +
000582 eae5     +LDI R30 , LOW ( 2 * _0x0 + 319 )
000583 e0f1     +LDI R31 , HIGH ( 2 * _0x0 + 319 )
                 	__POINTW1FN _0x0,319
000584 940e 147a 	CALL SUBOPT_0x15
                 ; 0000 00C6         if (viz_ampl==9)    sprintf (string_LCD_1, "_           ");
                 _0x52:
000586 e0e9      	LDI  R30,LOW(9)
000587 15ea      	CP   R30,R10
000588 f431      	BRNE _0x53
000589 940e 140e 	CALL SUBOPT_0x5
                +
00058b ebe6     +LDI R30 , LOW ( 2 * _0x0 + 336 )
00058c e0f1     +LDI R31 , HIGH ( 2 * _0x0 + 336 )
                 	__POINTW1FN _0x0,336
00058d 940e 147a 	CALL SUBOPT_0x15
                 ; 0000 00C7         if (viz_ampl==10)   sprintf (string_LCD_1, "           ");
                 _0x53:
00058f e0ea      	LDI  R30,LOW(10)
000590 15ea      	CP   R30,R10
000591 f431      	BRNE _0x54
000592 940e 140e 	CALL SUBOPT_0x5
                +
000594 ece7     +LDI R30 , LOW ( 2 * _0x0 + 353 )
000595 e0f1     +LDI R31 , HIGH ( 2 * _0x0 + 353 )
                 	__POINTW1FN _0x0,353
000596 940e 147a 	CALL SUBOPT_0x15
                 ; 0000 00C8         if (viz_ampl==11)   sprintf (string_LCD_1, "_          ");
                 _0x54:
000598 e0eb      	LDI  R30,LOW(11)
000599 15ea      	CP   R30,R10
00059a f431      	BRNE _0x55
00059b 940e 140e 	CALL SUBOPT_0x5
                +
00059d ede8     +LDI R30 , LOW ( 2 * _0x0 + 370 )
00059e e0f1     +LDI R31 , HIGH ( 2 * _0x0 + 370 )
                 	__POINTW1FN _0x0,370
00059f 940e 147a 	CALL SUBOPT_0x15
                 ; 0000 00C9         if (viz_ampl==12)   sprintf (string_LCD_1, "          ");
                 _0x55:
0005a1 e0ec      	LDI  R30,LOW(12)
0005a2 15ea      	CP   R30,R10
0005a3 f431      	BRNE _0x56
0005a4 940e 140e 	CALL SUBOPT_0x5
                +
0005a6 eee9     +LDI R30 , LOW ( 2 * _0x0 + 387 )
0005a7 e0f1     +LDI R31 , HIGH ( 2 * _0x0 + 387 )
                 	__POINTW1FN _0x0,387
0005a8 940e 147a 	CALL SUBOPT_0x15
                 ; 0000 00CA         if (viz_ampl==13)   sprintf (string_LCD_1, "_         ");
                 _0x56:
0005aa e0ed      	LDI  R30,LOW(13)
0005ab 15ea      	CP   R30,R10
0005ac f431      	BRNE _0x57
0005ad 940e 140e 	CALL SUBOPT_0x5
                +
0005af efea     +LDI R30 , LOW ( 2 * _0x0 + 404 )
0005b0 e0f1     +LDI R31 , HIGH ( 2 * _0x0 + 404 )
                 	__POINTW1FN _0x0,404
0005b1 940e 147a 	CALL SUBOPT_0x15
                 ; 0000 00CB         if (viz_ampl==14)   sprintf (string_LCD_1, "         ");
                 _0x57:
0005b3 e0ee      	LDI  R30,LOW(14)
0005b4 15ea      	CP   R30,R10
0005b5 f431      	BRNE _0x58
0005b6 940e 140e 	CALL SUBOPT_0x5
                +
0005b8 e0eb     +LDI R30 , LOW ( 2 * _0x0 + 421 )
0005b9 e0f2     +LDI R31 , HIGH ( 2 * _0x0 + 421 )
                 	__POINTW1FN _0x0,421
0005ba 940e 147a 	CALL SUBOPT_0x15
                 ; 0000 00CC         if (viz_ampl==15)   sprintf (string_LCD_1, "_        ");
                 _0x58:
0005bc e0ef      	LDI  R30,LOW(15)
0005bd 15ea      	CP   R30,R10
0005be f431      	BRNE _0x59
0005bf 940e 140e 	CALL SUBOPT_0x5
                +
0005c1 e1ec     +LDI R30 , LOW ( 2 * _0x0 + 438 )
0005c2 e0f2     +LDI R31 , HIGH ( 2 * _0x0 + 438 )
                 	__POINTW1FN _0x0,438
0005c3 940e 147a 	CALL SUBOPT_0x15
                 ; 0000 00CD         if (viz_ampl==16)   sprintf (string_LCD_1, "        ");
                 _0x59:
0005c5 e1e0      	LDI  R30,LOW(16)
0005c6 15ea      	CP   R30,R10
0005c7 f431      	BRNE _0x5A
0005c8 940e 140e 	CALL SUBOPT_0x5
                +
0005ca e2ed     +LDI R30 , LOW ( 2 * _0x0 + 455 )
0005cb e0f2     +LDI R31 , HIGH ( 2 * _0x0 + 455 )
                 	__POINTW1FN _0x0,455
0005cc 940e 147a 	CALL SUBOPT_0x15
                 ; 0000 00CE         if (viz_ampl==17)   sprintf (string_LCD_1, "_       ");
                 _0x5A:
0005ce e1e1      	LDI  R30,LOW(17)
0005cf 15ea      	CP   R30,R10
0005d0 f431      	BRNE _0x5B
0005d1 940e 140e 	CALL SUBOPT_0x5
                +
0005d3 e3ee     +LDI R30 , LOW ( 2 * _0x0 + 472 )
0005d4 e0f2     +LDI R31 , HIGH ( 2 * _0x0 + 472 )
                 	__POINTW1FN _0x0,472
0005d5 940e 147a 	CALL SUBOPT_0x15
                 ; 0000 00CF         if (viz_ampl==18)   sprintf (string_LCD_1, "       ");
                 _0x5B:
0005d7 e1e2      	LDI  R30,LOW(18)
0005d8 15ea      	CP   R30,R10
0005d9 f431      	BRNE _0x5C
0005da 940e 140e 	CALL SUBOPT_0x5
                +
0005dc e4ef     +LDI R30 , LOW ( 2 * _0x0 + 489 )
0005dd e0f2     +LDI R31 , HIGH ( 2 * _0x0 + 489 )
                 	__POINTW1FN _0x0,489
0005de 940e 147a 	CALL SUBOPT_0x15
                 ; 0000 00D0         if (viz_ampl==19)   sprintf (string_LCD_1, "_      ");
                 _0x5C:
0005e0 e1e3      	LDI  R30,LOW(19)
0005e1 15ea      	CP   R30,R10
0005e2 f431      	BRNE _0x5D
0005e3 940e 140e 	CALL SUBOPT_0x5
                +
0005e5 e6e0     +LDI R30 , LOW ( 2 * _0x0 + 506 )
0005e6 e0f2     +LDI R31 , HIGH ( 2 * _0x0 + 506 )
                 	__POINTW1FN _0x0,506
0005e7 940e 147a 	CALL SUBOPT_0x15
                 ; 0000 00D1         if (viz_ampl==20)   sprintf (string_LCD_1, "      ");
                 _0x5D:
0005e9 e1e4      	LDI  R30,LOW(20)
0005ea 15ea      	CP   R30,R10
0005eb f431      	BRNE _0x5E
0005ec 940e 140e 	CALL SUBOPT_0x5
                +
0005ee e7e1     +LDI R30 , LOW ( 2 * _0x0 + 523 )
0005ef e0f2     +LDI R31 , HIGH ( 2 * _0x0 + 523 )
                 	__POINTW1FN _0x0,523
0005f0 940e 147a 	CALL SUBOPT_0x15
                 ; 0000 00D2         if (viz_ampl==21)   sprintf (string_LCD_1, "_     ");
                 _0x5E:
0005f2 e1e5      	LDI  R30,LOW(21)
0005f3 15ea      	CP   R30,R10
0005f4 f431      	BRNE _0x5F
0005f5 940e 140e 	CALL SUBOPT_0x5
                +
0005f7 e8e2     +LDI R30 , LOW ( 2 * _0x0 + 540 )
0005f8 e0f2     +LDI R31 , HIGH ( 2 * _0x0 + 540 )
                 	__POINTW1FN _0x0,540
0005f9 940e 147a 	CALL SUBOPT_0x15
                 ; 0000 00D3         if (viz_ampl==22)   sprintf (string_LCD_1, "     ");
                 _0x5F:
0005fb e1e6      	LDI  R30,LOW(22)
0005fc 15ea      	CP   R30,R10
0005fd f431      	BRNE _0x60
0005fe 940e 140e 	CALL SUBOPT_0x5
                +
000600 e9e3     +LDI R30 , LOW ( 2 * _0x0 + 557 )
000601 e0f2     +LDI R31 , HIGH ( 2 * _0x0 + 557 )
                 	__POINTW1FN _0x0,557
000602 940e 147a 	CALL SUBOPT_0x15
                 ; 0000 00D4         if (viz_ampl==23)   sprintf (string_LCD_1, "_    ");
                 _0x60:
000604 e1e7      	LDI  R30,LOW(23)
000605 15ea      	CP   R30,R10
000606 f431      	BRNE _0x61
000607 940e 140e 	CALL SUBOPT_0x5
                +
000609 eae4     +LDI R30 , LOW ( 2 * _0x0 + 574 )
00060a e0f2     +LDI R31 , HIGH ( 2 * _0x0 + 574 )
                 	__POINTW1FN _0x0,574
00060b 940e 147a 	CALL SUBOPT_0x15
                 ; 0000 00D5         if (viz_ampl==24)   sprintf (string_LCD_1, "    ");
                 _0x61:
00060d e1e8      	LDI  R30,LOW(24)
00060e 15ea      	CP   R30,R10
00060f f431      	BRNE _0x62
000610 940e 140e 	CALL SUBOPT_0x5
                +
000612 ebe5     +LDI R30 , LOW ( 2 * _0x0 + 591 )
000613 e0f2     +LDI R31 , HIGH ( 2 * _0x0 + 591 )
                 	__POINTW1FN _0x0,591
000614 940e 147a 	CALL SUBOPT_0x15
                 ; 0000 00D6         if (viz_ampl==25)   sprintf (string_LCD_1, "_   ");
                 _0x62:
000616 e1e9      	LDI  R30,LOW(25)
000617 15ea      	CP   R30,R10
000618 f431      	BRNE _0x63
000619 940e 140e 	CALL SUBOPT_0x5
                +
00061b ece6     +LDI R30 , LOW ( 2 * _0x0 + 608 )
00061c e0f2     +LDI R31 , HIGH ( 2 * _0x0 + 608 )
                 	__POINTW1FN _0x0,608
00061d 940e 147a 	CALL SUBOPT_0x15
                 ; 0000 00D7         if (viz_ampl==26)   sprintf (string_LCD_1, "   ");
                 _0x63:
00061f e1ea      	LDI  R30,LOW(26)
000620 15ea      	CP   R30,R10
000621 f431      	BRNE _0x64
000622 940e 140e 	CALL SUBOPT_0x5
                +
000624 ede7     +LDI R30 , LOW ( 2 * _0x0 + 625 )
000625 e0f2     +LDI R31 , HIGH ( 2 * _0x0 + 625 )
                 	__POINTW1FN _0x0,625
000626 940e 147a 	CALL SUBOPT_0x15
                 ; 0000 00D8         if (viz_ampl==27)   sprintf (string_LCD_1, "_  ");
                 _0x64:
000628 e1eb      	LDI  R30,LOW(27)
000629 15ea      	CP   R30,R10
00062a f431      	BRNE _0x65
00062b 940e 140e 	CALL SUBOPT_0x5
                +
00062d eee8     +LDI R30 , LOW ( 2 * _0x0 + 642 )
00062e e0f2     +LDI R31 , HIGH ( 2 * _0x0 + 642 )
                 	__POINTW1FN _0x0,642
00062f 940e 147a 	CALL SUBOPT_0x15
                 ; 0000 00D9         if (viz_ampl==28)   sprintf (string_LCD_1, "  ");
                 _0x65:
000631 e1ec      	LDI  R30,LOW(28)
000632 15ea      	CP   R30,R10
000633 f431      	BRNE _0x66
000634 940e 140e 	CALL SUBOPT_0x5
                +
000636 efe9     +LDI R30 , LOW ( 2 * _0x0 + 659 )
000637 e0f2     +LDI R31 , HIGH ( 2 * _0x0 + 659 )
                 	__POINTW1FN _0x0,659
000638 940e 147a 	CALL SUBOPT_0x15
                 ; 0000 00DA         if (viz_ampl==29)   sprintf (string_LCD_1, "_ ");
                 _0x66:
00063a e1ed      	LDI  R30,LOW(29)
00063b 15ea      	CP   R30,R10
00063c f431      	BRNE _0x67
00063d 940e 140e 	CALL SUBOPT_0x5
                +
00063f e0ea     +LDI R30 , LOW ( 2 * _0x0 + 676 )
000640 e0f3     +LDI R31 , HIGH ( 2 * _0x0 + 676 )
                 	__POINTW1FN _0x0,676
000641 940e 147a 	CALL SUBOPT_0x15
                 ; 0000 00DB         if (viz_ampl==30)   sprintf (string_LCD_1, " ");
                 _0x67:
000643 e1ee      	LDI  R30,LOW(30)
000644 15ea      	CP   R30,R10
000645 f431      	BRNE _0x68
000646 940e 140e 	CALL SUBOPT_0x5
                +
000648 e1eb     +LDI R30 , LOW ( 2 * _0x0 + 693 )
000649 e0f3     +LDI R31 , HIGH ( 2 * _0x0 + 693 )
                 	__POINTW1FN _0x0,693
00064a 940e 147a 	CALL SUBOPT_0x15
                 ; 0000 00DC         if (viz_ampl==31)   sprintf (string_LCD_1, "_");
                 _0x68:
00064c e1ef      	LDI  R30,LOW(31)
00064d 15ea      	CP   R30,R10
00064e f431      	BRNE _0x69
00064f 940e 140e 	CALL SUBOPT_0x5
                +
000651 e2ec     +LDI R30 , LOW ( 2 * _0x0 + 710 )
000652 e0f3     +LDI R31 , HIGH ( 2 * _0x0 + 710 )
                 	__POINTW1FN _0x0,710
000653 940e 147a 	CALL SUBOPT_0x15
                 ; 0000 00DD         if (viz_ampl==32)   sprintf (string_LCD_1, "");
                 _0x69:
000655 e2e0      	LDI  R30,LOW(32)
000656 15ea      	CP   R30,R10
000657 f431      	BRNE _0x6A
000658 940e 140e 	CALL SUBOPT_0x5
                +
00065a e3ed     +LDI R30 , LOW ( 2 * _0x0 + 727 )
00065b e0f3     +LDI R31 , HIGH ( 2 * _0x0 + 727 )
                 	__POINTW1FN _0x0,727
00065c 940e 147a 	CALL SUBOPT_0x15
                 ; 0000 00DE         };
                 _0x6A:
                 _0x49:
                 ; 0000 00DF     if (rezym == 1)
00065e e0a0      	LDI  R26,0
00065f fc32      	SBRC R3,2
000660 e0a1      	LDI  R26,1
000661 30a1      	CPI  R26,LOW(0x1)
000662 f011      	BREQ PC+3
000663 940c 078d 	JMP _0x6B
                 ; 0000 00E0         {
                 ; 0000 00E1         if (viz_ampl==0)    sprintf (string_LCD_1, "        ");
000665 20aa      	TST  R10
000666 f431      	BRNE _0x6C
000667 940e 140e 	CALL SUBOPT_0x5
                +
000669 e4ee     +LDI R30 , LOW ( 2 * _0x0 + 744 )
00066a e0f3     +LDI R31 , HIGH ( 2 * _0x0 + 744 )
                 	__POINTW1FN _0x0,744
00066b 940e 147a 	CALL SUBOPT_0x15
                 ; 0000 00E2         if (viz_ampl==1)    sprintf (string_LCD_1, "        _");
                 _0x6C:
00066d e0e1      	LDI  R30,LOW(1)
00066e 15ea      	CP   R30,R10
00066f f431      	BRNE _0x6D
000670 940e 140e 	CALL SUBOPT_0x5
                +
000672 e5ef     +LDI R30 , LOW ( 2 * _0x0 + 761 )
000673 e0f3     +LDI R31 , HIGH ( 2 * _0x0 + 761 )
                 	__POINTW1FN _0x0,761
000674 940e 147a 	CALL SUBOPT_0x15
                 ; 0000 00E3         if (viz_ampl==2)    sprintf (string_LCD_1, "         ");
                 _0x6D:
000676 e0e2      	LDI  R30,LOW(2)
000677 15ea      	CP   R30,R10
000678 f431      	BRNE _0x6E
000679 940e 140e 	CALL SUBOPT_0x5
                +
00067b e7e0     +LDI R30 , LOW ( 2 * _0x0 + 778 )
00067c e0f3     +LDI R31 , HIGH ( 2 * _0x0 + 778 )
                 	__POINTW1FN _0x0,778
00067d 940e 147a 	CALL SUBOPT_0x15
                 ; 0000 00E4         if (viz_ampl==3)    sprintf (string_LCD_1, "        _ ");
                 _0x6E:
00067f e0e3      	LDI  R30,LOW(3)
000680 15ea      	CP   R30,R10
000681 f431      	BRNE _0x6F
000682 940e 140e 	CALL SUBOPT_0x5
                +
000684 e8e1     +LDI R30 , LOW ( 2 * _0x0 + 795 )
000685 e0f3     +LDI R31 , HIGH ( 2 * _0x0 + 795 )
                 	__POINTW1FN _0x0,795
000686 940e 147a 	CALL SUBOPT_0x15
                 ; 0000 00E5         if (viz_ampl==4)    sprintf (string_LCD_1, "          ");
                 _0x6F:
000688 e0e4      	LDI  R30,LOW(4)
000689 15ea      	CP   R30,R10
00068a f431      	BRNE _0x70
00068b 940e 140e 	CALL SUBOPT_0x5
                +
00068d e9e2     +LDI R30 , LOW ( 2 * _0x0 + 812 )
00068e e0f3     +LDI R31 , HIGH ( 2 * _0x0 + 812 )
                 	__POINTW1FN _0x0,812
00068f 940e 147a 	CALL SUBOPT_0x15
                 ; 0000 00E6         if (viz_ampl==5)    sprintf (string_LCD_1, "        _  ");
                 _0x70:
000691 e0e5      	LDI  R30,LOW(5)
000692 15ea      	CP   R30,R10
000693 f431      	BRNE _0x71
000694 940e 140e 	CALL SUBOPT_0x5
                +
000696 eae3     +LDI R30 , LOW ( 2 * _0x0 + 829 )
000697 e0f3     +LDI R31 , HIGH ( 2 * _0x0 + 829 )
                 	__POINTW1FN _0x0,829
000698 940e 147a 	CALL SUBOPT_0x15
                 ; 0000 00E7         if (viz_ampl==6)    sprintf (string_LCD_1, "           ");
                 _0x71:
00069a e0e6      	LDI  R30,LOW(6)
00069b 15ea      	CP   R30,R10
00069c f431      	BRNE _0x72
00069d 940e 140e 	CALL SUBOPT_0x5
                +
00069f ebe4     +LDI R30 , LOW ( 2 * _0x0 + 846 )
0006a0 e0f3     +LDI R31 , HIGH ( 2 * _0x0 + 846 )
                 	__POINTW1FN _0x0,846
0006a1 940e 147a 	CALL SUBOPT_0x15
                 ; 0000 00E8         if (viz_ampl==7)    sprintf (string_LCD_1, "        _   ");
                 _0x72:
0006a3 e0e7      	LDI  R30,LOW(7)
0006a4 15ea      	CP   R30,R10
0006a5 f431      	BRNE _0x73
0006a6 940e 140e 	CALL SUBOPT_0x5
                +
0006a8 ece5     +LDI R30 , LOW ( 2 * _0x0 + 863 )
0006a9 e0f3     +LDI R31 , HIGH ( 2 * _0x0 + 863 )
                 	__POINTW1FN _0x0,863
0006aa 940e 147a 	CALL SUBOPT_0x15
                 ; 0000 00E9         if (viz_ampl==8)    sprintf (string_LCD_1, "            ");
                 _0x73:
0006ac e0e8      	LDI  R30,LOW(8)
0006ad 15ea      	CP   R30,R10
0006ae f431      	BRNE _0x74
0006af 940e 140e 	CALL SUBOPT_0x5
                +
0006b1 ede6     +LDI R30 , LOW ( 2 * _0x0 + 880 )
0006b2 e0f3     +LDI R31 , HIGH ( 2 * _0x0 + 880 )
                 	__POINTW1FN _0x0,880
0006b3 940e 147a 	CALL SUBOPT_0x15
                 ; 0000 00EA         if (viz_ampl==9)    sprintf (string_LCD_1, "        _    ");
                 _0x74:
0006b5 e0e9      	LDI  R30,LOW(9)
0006b6 15ea      	CP   R30,R10
0006b7 f431      	BRNE _0x75
0006b8 940e 140e 	CALL SUBOPT_0x5
                +
0006ba eee7     +LDI R30 , LOW ( 2 * _0x0 + 897 )
0006bb e0f3     +LDI R31 , HIGH ( 2 * _0x0 + 897 )
                 	__POINTW1FN _0x0,897
0006bc 940e 147a 	CALL SUBOPT_0x15
                 ; 0000 00EB         if (viz_ampl==10)   sprintf (string_LCD_1, "             ");
                 _0x75:
0006be e0ea      	LDI  R30,LOW(10)
0006bf 15ea      	CP   R30,R10
0006c0 f431      	BRNE _0x76
0006c1 940e 140e 	CALL SUBOPT_0x5
                +
0006c3 efe8     +LDI R30 , LOW ( 2 * _0x0 + 914 )
0006c4 e0f3     +LDI R31 , HIGH ( 2 * _0x0 + 914 )
                 	__POINTW1FN _0x0,914
0006c5 940e 147a 	CALL SUBOPT_0x15
                 ; 0000 00EC         if (viz_ampl==11)   sprintf (string_LCD_1, "        _     ");
                 _0x76:
0006c7 e0eb      	LDI  R30,LOW(11)
0006c8 15ea      	CP   R30,R10
0006c9 f431      	BRNE _0x77
0006ca 940e 140e 	CALL SUBOPT_0x5
                +
0006cc e0e9     +LDI R30 , LOW ( 2 * _0x0 + 931 )
0006cd e0f4     +LDI R31 , HIGH ( 2 * _0x0 + 931 )
                 	__POINTW1FN _0x0,931
0006ce 940e 147a 	CALL SUBOPT_0x15
                 ; 0000 00ED         if (viz_ampl==12)   sprintf (string_LCD_1, "              ");
                 _0x77:
0006d0 e0ec      	LDI  R30,LOW(12)
0006d1 15ea      	CP   R30,R10
0006d2 f431      	BRNE _0x78
0006d3 940e 140e 	CALL SUBOPT_0x5
                +
0006d5 e1ea     +LDI R30 , LOW ( 2 * _0x0 + 948 )
0006d6 e0f4     +LDI R31 , HIGH ( 2 * _0x0 + 948 )
                 	__POINTW1FN _0x0,948
0006d7 940e 147a 	CALL SUBOPT_0x15
                 ; 0000 00EE         if (viz_ampl==13)   sprintf (string_LCD_1, "        _      ");
                 _0x78:
0006d9 e0ed      	LDI  R30,LOW(13)
0006da 15ea      	CP   R30,R10
0006db f431      	BRNE _0x79
0006dc 940e 140e 	CALL SUBOPT_0x5
                +
0006de e2eb     +LDI R30 , LOW ( 2 * _0x0 + 965 )
0006df e0f4     +LDI R31 , HIGH ( 2 * _0x0 + 965 )
                 	__POINTW1FN _0x0,965
0006e0 940e 147a 	CALL SUBOPT_0x15
                 ; 0000 00EF         if (viz_ampl==14)   sprintf (string_LCD_1, "               ");
                 _0x79:
0006e2 e0ee      	LDI  R30,LOW(14)
0006e3 15ea      	CP   R30,R10
0006e4 f431      	BRNE _0x7A
0006e5 940e 140e 	CALL SUBOPT_0x5
                +
0006e7 e3ec     +LDI R30 , LOW ( 2 * _0x0 + 982 )
0006e8 e0f4     +LDI R31 , HIGH ( 2 * _0x0 + 982 )
                 	__POINTW1FN _0x0,982
0006e9 940e 147a 	CALL SUBOPT_0x15
                 ; 0000 00F0         if (viz_ampl==15)   sprintf (string_LCD_1, "        _       ");
                 _0x7A:
0006eb e0ef      	LDI  R30,LOW(15)
0006ec 15ea      	CP   R30,R10
0006ed f431      	BRNE _0x7B
0006ee 940e 140e 	CALL SUBOPT_0x5
                +
0006f0 e4ed     +LDI R30 , LOW ( 2 * _0x0 + 999 )
0006f1 e0f4     +LDI R31 , HIGH ( 2 * _0x0 + 999 )
                 	__POINTW1FN _0x0,999
0006f2 940e 147a 	CALL SUBOPT_0x15
                 ; 0000 00F1         if (viz_ampl==16)   sprintf (string_LCD_1, "                ");
                 _0x7B:
0006f4 e1e0      	LDI  R30,LOW(16)
0006f5 15ea      	CP   R30,R10
0006f6 f431      	BRNE _0x7C
0006f7 940e 140e 	CALL SUBOPT_0x5
                +
0006f9 e1ed     +LDI R30 , LOW ( 2 * _0x0 + 183 )
0006fa e0f1     +LDI R31 , HIGH ( 2 * _0x0 + 183 )
                 	__POINTW1FN _0x0,183
0006fb 940e 147a 	CALL SUBOPT_0x15
                 ; 0000 00F2         if (viz_ampl==17)   sprintf (string_LCD_1, "       _        ");
                 _0x7C:
0006fd e1e1      	LDI  R30,LOW(17)
0006fe 15ea      	CP   R30,R10
0006ff f431      	BRNE _0x7D
000700 940e 140e 	CALL SUBOPT_0x5
                +
000702 e5ee     +LDI R30 , LOW ( 2 * _0x0 + 1016 )
000703 e0f4     +LDI R31 , HIGH ( 2 * _0x0 + 1016 )
                 	__POINTW1FN _0x0,1016
000704 940e 147a 	CALL SUBOPT_0x15
                 ; 0000 00F3         if (viz_ampl==18)   sprintf (string_LCD_1, "               ");
                 _0x7D:
000706 e1e2      	LDI  R30,LOW(18)
000707 15ea      	CP   R30,R10
000708 f431      	BRNE _0x7E
000709 940e 140e 	CALL SUBOPT_0x5
                +
00070b e6ef     +LDI R30 , LOW ( 2 * _0x0 + 1033 )
00070c e0f4     +LDI R31 , HIGH ( 2 * _0x0 + 1033 )
                 	__POINTW1FN _0x0,1033
00070d 940e 147a 	CALL SUBOPT_0x15
                 ; 0000 00F4         if (viz_ampl==19)   sprintf (string_LCD_1, "      _        ");
                 _0x7E:
00070f e1e3      	LDI  R30,LOW(19)
000710 15ea      	CP   R30,R10
000711 f431      	BRNE _0x7F
000712 940e 140e 	CALL SUBOPT_0x5
                +
000714 e8e0     +LDI R30 , LOW ( 2 * _0x0 + 1050 )
000715 e0f4     +LDI R31 , HIGH ( 2 * _0x0 + 1050 )
                 	__POINTW1FN _0x0,1050
000716 940e 147a 	CALL SUBOPT_0x15
                 ; 0000 00F5         if (viz_ampl==20)   sprintf (string_LCD_1, "              ");
                 _0x7F:
000718 e1e4      	LDI  R30,LOW(20)
000719 15ea      	CP   R30,R10
00071a f431      	BRNE _0x80
00071b 940e 140e 	CALL SUBOPT_0x5
                +
00071d e9e1     +LDI R30 , LOW ( 2 * _0x0 + 1067 )
00071e e0f4     +LDI R31 , HIGH ( 2 * _0x0 + 1067 )
                 	__POINTW1FN _0x0,1067
00071f 940e 147a 	CALL SUBOPT_0x15
                 ; 0000 00F6         if (viz_ampl==21)   sprintf (string_LCD_1, "     _        ");
                 _0x80:
000721 e1e5      	LDI  R30,LOW(21)
000722 15ea      	CP   R30,R10
000723 f431      	BRNE _0x81
000724 940e 140e 	CALL SUBOPT_0x5
                +
000726 eae2     +LDI R30 , LOW ( 2 * _0x0 + 1084 )
000727 e0f4     +LDI R31 , HIGH ( 2 * _0x0 + 1084 )
                 	__POINTW1FN _0x0,1084
000728 940e 147a 	CALL SUBOPT_0x15
                 ; 0000 00F7         if (viz_ampl==22)   sprintf (string_LCD_1, "             ");
                 _0x81:
00072a e1e6      	LDI  R30,LOW(22)
00072b 15ea      	CP   R30,R10
00072c f431      	BRNE _0x82
00072d 940e 140e 	CALL SUBOPT_0x5
                +
00072f ebe3     +LDI R30 , LOW ( 2 * _0x0 + 1101 )
000730 e0f4     +LDI R31 , HIGH ( 2 * _0x0 + 1101 )
                 	__POINTW1FN _0x0,1101
000731 940e 147a 	CALL SUBOPT_0x15
                 ; 0000 00F8         if (viz_ampl==23)   sprintf (string_LCD_1, "    _        ");
                 _0x82:
000733 e1e7      	LDI  R30,LOW(23)
000734 15ea      	CP   R30,R10
000735 f431      	BRNE _0x83
000736 940e 140e 	CALL SUBOPT_0x5
                +
000738 ece4     +LDI R30 , LOW ( 2 * _0x0 + 1118 )
000739 e0f4     +LDI R31 , HIGH ( 2 * _0x0 + 1118 )
                 	__POINTW1FN _0x0,1118
00073a 940e 147a 	CALL SUBOPT_0x15
                 ; 0000 00F9         if (viz_ampl==24)   sprintf (string_LCD_1, "            ");
                 _0x83:
00073c e1e8      	LDI  R30,LOW(24)
00073d 15ea      	CP   R30,R10
00073e f431      	BRNE _0x84
00073f 940e 140e 	CALL SUBOPT_0x5
                +
000741 ede5     +LDI R30 , LOW ( 2 * _0x0 + 1135 )
000742 e0f4     +LDI R31 , HIGH ( 2 * _0x0 + 1135 )
                 	__POINTW1FN _0x0,1135
000743 940e 147a 	CALL SUBOPT_0x15
                 ; 0000 00FA         if (viz_ampl==25)   sprintf (string_LCD_1, "   _        ");
                 _0x84:
000745 e1e9      	LDI  R30,LOW(25)
000746 15ea      	CP   R30,R10
000747 f431      	BRNE _0x85
000748 940e 140e 	CALL SUBOPT_0x5
                +
00074a eee6     +LDI R30 , LOW ( 2 * _0x0 + 1152 )
00074b e0f4     +LDI R31 , HIGH ( 2 * _0x0 + 1152 )
                 	__POINTW1FN _0x0,1152
00074c 940e 147a 	CALL SUBOPT_0x15
                 ; 0000 00FB         if (viz_ampl==26)   sprintf (string_LCD_1, "           ");
                 _0x85:
00074e e1ea      	LDI  R30,LOW(26)
00074f 15ea      	CP   R30,R10
000750 f431      	BRNE _0x86
000751 940e 140e 	CALL SUBOPT_0x5
                +
000753 efe7     +LDI R30 , LOW ( 2 * _0x0 + 1169 )
000754 e0f4     +LDI R31 , HIGH ( 2 * _0x0 + 1169 )
                 	__POINTW1FN _0x0,1169
000755 940e 147a 	CALL SUBOPT_0x15
                 ; 0000 00FC         if (viz_ampl==27)   sprintf (string_LCD_1, "  _        ");
                 _0x86:
000757 e1eb      	LDI  R30,LOW(27)
000758 15ea      	CP   R30,R10
000759 f431      	BRNE _0x87
00075a 940e 140e 	CALL SUBOPT_0x5
                +
00075c e0e8     +LDI R30 , LOW ( 2 * _0x0 + 1186 )
00075d e0f5     +LDI R31 , HIGH ( 2 * _0x0 + 1186 )
                 	__POINTW1FN _0x0,1186
00075e 940e 147a 	CALL SUBOPT_0x15
                 ; 0000 00FD         if (viz_ampl==28)   sprintf (string_LCD_1, "          ");
                 _0x87:
000760 e1ec      	LDI  R30,LOW(28)
000761 15ea      	CP   R30,R10
000762 f431      	BRNE _0x88
000763 940e 140e 	CALL SUBOPT_0x5
                +
000765 e1e9     +LDI R30 , LOW ( 2 * _0x0 + 1203 )
000766 e0f5     +LDI R31 , HIGH ( 2 * _0x0 + 1203 )
                 	__POINTW1FN _0x0,1203
000767 940e 147a 	CALL SUBOPT_0x15
                 ; 0000 00FE         if (viz_ampl==29)   sprintf (string_LCD_1, " _        ");
                 _0x88:
000769 e1ed      	LDI  R30,LOW(29)
00076a 15ea      	CP   R30,R10
00076b f431      	BRNE _0x89
00076c 940e 140e 	CALL SUBOPT_0x5
                +
00076e e2ea     +LDI R30 , LOW ( 2 * _0x0 + 1220 )
00076f e0f5     +LDI R31 , HIGH ( 2 * _0x0 + 1220 )
                 	__POINTW1FN _0x0,1220
000770 940e 147a 	CALL SUBOPT_0x15
                 ; 0000 00FF         if (viz_ampl==30)   sprintf (string_LCD_1, "         ");
                 _0x89:
000772 e1ee      	LDI  R30,LOW(30)
000773 15ea      	CP   R30,R10
000774 f431      	BRNE _0x8A
000775 940e 140e 	CALL SUBOPT_0x5
                +
000777 e3eb     +LDI R30 , LOW ( 2 * _0x0 + 1237 )
000778 e0f5     +LDI R31 , HIGH ( 2 * _0x0 + 1237 )
                 	__POINTW1FN _0x0,1237
000779 940e 147a 	CALL SUBOPT_0x15
                 ; 0000 0100         if (viz_ampl==31)   sprintf (string_LCD_1, "_        ");
                 _0x8A:
00077b e1ef      	LDI  R30,LOW(31)
00077c 15ea      	CP   R30,R10
00077d f431      	BRNE _0x8B
00077e 940e 140e 	CALL SUBOPT_0x5
                +
000780 e4ec     +LDI R30 , LOW ( 2 * _0x0 + 1254 )
000781 e0f5     +LDI R31 , HIGH ( 2 * _0x0 + 1254 )
                 	__POINTW1FN _0x0,1254
000782 940e 147a 	CALL SUBOPT_0x15
                 ; 0000 0101         if (viz_ampl==32)   sprintf (string_LCD_1, "        ");
                 _0x8B:
000784 e2e0      	LDI  R30,LOW(32)
000785 15ea      	CP   R30,R10
000786 f431      	BRNE _0x8C
000787 940e 140e 	CALL SUBOPT_0x5
                +
000789 e2ed     +LDI R30 , LOW ( 2 * _0x0 + 455 )
00078a e0f2     +LDI R31 , HIGH ( 2 * _0x0 + 455 )
                 	__POINTW1FN _0x0,455
00078b 940e 147a 	CALL SUBOPT_0x15
                 ; 0000 0102         };
                 _0x8C:
                 _0x6B:
                 ; 0000 0103     lcd_puts (string_LCD_1);
00078d 940e 140e 	CALL SUBOPT_0x5
00078f 940e 0f9d 	CALL _lcd_puts
                 ; 0000 0104     lcd_gotoxy (0,1);
000791 e0e0      	LDI  R30,LOW(0)
000792 940e 144e 	CALL SUBOPT_0xF
                 ; 0000 0105     if (viz_faza==0)  sprintf (string_LCD_2, "------II------");
000794 20dd      	TST  R13
000795 f431      	BRNE _0x8D
000796 940e 1449 	CALL SUBOPT_0xE
                +
000798 e5ed     +LDI R30 , LOW ( 2 * _0x0 + 1271 )
000799 e0f5     +LDI R31 , HIGH ( 2 * _0x0 + 1271 )
                 	__POINTW1FN _0x0,1271
00079a 940e 147a 	CALL SUBOPT_0x15
                 ; 0000 0106     if (viz_faza==1)  sprintf (string_LCD_2, "------#I------");
                 _0x8D:
00079c e0e1      	LDI  R30,LOW(1)
00079d 15ed      	CP   R30,R13
00079e f431      	BRNE _0x8E
00079f 940e 1449 	CALL SUBOPT_0xE
                +
0007a1 e6ee     +LDI R30 , LOW ( 2 * _0x0 + 1288 )
0007a2 e0f5     +LDI R31 , HIGH ( 2 * _0x0 + 1288 )
                 	__POINTW1FN _0x0,1288
0007a3 940e 147a 	CALL SUBOPT_0x15
                 ; 0000 0107     if (viz_faza==2)  sprintf (string_LCD_2, "-----#II------");
                 _0x8E:
0007a5 e0e2      	LDI  R30,LOW(2)
0007a6 15ed      	CP   R30,R13
0007a7 f431      	BRNE _0x8F
0007a8 940e 1449 	CALL SUBOPT_0xE
                +
0007aa e7ef     +LDI R30 , LOW ( 2 * _0x0 + 1305 )
0007ab e0f5     +LDI R31 , HIGH ( 2 * _0x0 + 1305 )
                 	__POINTW1FN _0x0,1305
0007ac 940e 147a 	CALL SUBOPT_0x15
                 ; 0000 0108     if (viz_faza==3)  sprintf (string_LCD_2, "----#-II------");
                 _0x8F:
0007ae e0e3      	LDI  R30,LOW(3)
0007af 15ed      	CP   R30,R13
0007b0 f431      	BRNE _0x90
0007b1 940e 1449 	CALL SUBOPT_0xE
                +
0007b3 e9e0     +LDI R30 , LOW ( 2 * _0x0 + 1322 )
0007b4 e0f5     +LDI R31 , HIGH ( 2 * _0x0 + 1322 )
                 	__POINTW1FN _0x0,1322
0007b5 940e 147a 	CALL SUBOPT_0x15
                 ; 0000 0109     if (viz_faza==4)  sprintf (string_LCD_2, "---#--II------");
                 _0x90:
0007b7 e0e4      	LDI  R30,LOW(4)
0007b8 15ed      	CP   R30,R13
0007b9 f431      	BRNE _0x91
0007ba 940e 1449 	CALL SUBOPT_0xE
                +
0007bc eae1     +LDI R30 , LOW ( 2 * _0x0 + 1339 )
0007bd e0f5     +LDI R31 , HIGH ( 2 * _0x0 + 1339 )
                 	__POINTW1FN _0x0,1339
0007be 940e 147a 	CALL SUBOPT_0x15
                 ; 0000 010A     if (viz_faza==5)  sprintf (string_LCD_2, "--#---II------");
                 _0x91:
0007c0 e0e5      	LDI  R30,LOW(5)
0007c1 15ed      	CP   R30,R13
0007c2 f431      	BRNE _0x92
0007c3 940e 1449 	CALL SUBOPT_0xE
                +
0007c5 ebe2     +LDI R30 , LOW ( 2 * _0x0 + 1356 )
0007c6 e0f5     +LDI R31 , HIGH ( 2 * _0x0 + 1356 )
                 	__POINTW1FN _0x0,1356
0007c7 940e 147a 	CALL SUBOPT_0x15
                 ; 0000 010B     if (viz_faza==6)  sprintf (string_LCD_2, "-#----II------");
                 _0x92:
0007c9 e0e6      	LDI  R30,LOW(6)
0007ca 15ed      	CP   R30,R13
0007cb f431      	BRNE _0x93
0007cc 940e 1449 	CALL SUBOPT_0xE
                +
0007ce ece3     +LDI R30 , LOW ( 2 * _0x0 + 1373 )
0007cf e0f5     +LDI R31 , HIGH ( 2 * _0x0 + 1373 )
                 	__POINTW1FN _0x0,1373
0007d0 940e 147a 	CALL SUBOPT_0x15
                 ; 0000 010C     if (viz_faza==7)  sprintf (string_LCD_2, "#-----II------");
                 _0x93:
0007d2 e0e7      	LDI  R30,LOW(7)
0007d3 15ed      	CP   R30,R13
0007d4 f431      	BRNE _0x94
0007d5 940e 1449 	CALL SUBOPT_0xE
                +
0007d7 ede4     +LDI R30 , LOW ( 2 * _0x0 + 1390 )
0007d8 e0f5     +LDI R31 , HIGH ( 2 * _0x0 + 1390 )
                 	__POINTW1FN _0x0,1390
0007d9 940e 147a 	CALL SUBOPT_0x15
                 ; 0000 010D     if (viz_faza==8)  sprintf (string_LCD_2, ">_<----II------");
                 _0x94:
0007db e0e8      	LDI  R30,LOW(8)
0007dc 15ed      	CP   R30,R13
0007dd f431      	BRNE _0x95
0007de 940e 1449 	CALL SUBOPT_0xE
                +
0007e0 eee5     +LDI R30 , LOW ( 2 * _0x0 + 1407 )
0007e1 e0f5     +LDI R31 , HIGH ( 2 * _0x0 + 1407 )
                 	__POINTW1FN _0x0,1407
0007e2 940e 147a 	CALL SUBOPT_0x15
                 ; 0000 010E     if (viz_faza==9)  sprintf (string_LCD_2, "------I#------");
                 _0x95:
0007e4 e0e9      	LDI  R30,LOW(9)
0007e5 15ed      	CP   R30,R13
0007e6 f431      	BRNE _0x96
0007e7 940e 1449 	CALL SUBOPT_0xE
                +
0007e9 efe6     +LDI R30 , LOW ( 2 * _0x0 + 1424 )
0007ea e0f5     +LDI R31 , HIGH ( 2 * _0x0 + 1424 )
                 	__POINTW1FN _0x0,1424
0007eb 940e 147a 	CALL SUBOPT_0x15
                 ; 0000 010F     if (viz_faza==10) sprintf (string_LCD_2, "------II#-----");
                 _0x96:
0007ed e0ea      	LDI  R30,LOW(10)
0007ee 15ed      	CP   R30,R13
0007ef f431      	BRNE _0x97
0007f0 940e 1449 	CALL SUBOPT_0xE
                +
0007f2 e0e7     +LDI R30 , LOW ( 2 * _0x0 + 1441 )
0007f3 e0f6     +LDI R31 , HIGH ( 2 * _0x0 + 1441 )
                 	__POINTW1FN _0x0,1441
0007f4 940e 147a 	CALL SUBOPT_0x15
                 ; 0000 0110     if (viz_faza==11) sprintf (string_LCD_2, "------II-#----");
                 _0x97:
0007f6 e0eb      	LDI  R30,LOW(11)
0007f7 15ed      	CP   R30,R13
0007f8 f431      	BRNE _0x98
0007f9 940e 1449 	CALL SUBOPT_0xE
                +
0007fb e1e8     +LDI R30 , LOW ( 2 * _0x0 + 1458 )
0007fc e0f6     +LDI R31 , HIGH ( 2 * _0x0 + 1458 )
                 	__POINTW1FN _0x0,1458
0007fd 940e 147a 	CALL SUBOPT_0x15
                 ; 0000 0111     if (viz_faza==12) sprintf (string_LCD_2, "------II--#---");
                 _0x98:
0007ff e0ec      	LDI  R30,LOW(12)
000800 15ed      	CP   R30,R13
000801 f431      	BRNE _0x99
000802 940e 1449 	CALL SUBOPT_0xE
                +
000804 e2e9     +LDI R30 , LOW ( 2 * _0x0 + 1475 )
000805 e0f6     +LDI R31 , HIGH ( 2 * _0x0 + 1475 )
                 	__POINTW1FN _0x0,1475
000806 940e 147a 	CALL SUBOPT_0x15
                 ; 0000 0112     if (viz_faza==13) sprintf (string_LCD_2, "------II---#--");
                 _0x99:
000808 e0ed      	LDI  R30,LOW(13)
000809 15ed      	CP   R30,R13
00080a f431      	BRNE _0x9A
00080b 940e 1449 	CALL SUBOPT_0xE
                +
00080d e3ea     +LDI R30 , LOW ( 2 * _0x0 + 1492 )
00080e e0f6     +LDI R31 , HIGH ( 2 * _0x0 + 1492 )
                 	__POINTW1FN _0x0,1492
00080f 940e 147a 	CALL SUBOPT_0x15
                 ; 0000 0113     if (viz_faza==14) sprintf (string_LCD_2, "------II----#-");
                 _0x9A:
000811 e0ee      	LDI  R30,LOW(14)
000812 15ed      	CP   R30,R13
000813 f431      	BRNE _0x9B
000814 940e 1449 	CALL SUBOPT_0xE
                +
000816 e4eb     +LDI R30 , LOW ( 2 * _0x0 + 1509 )
000817 e0f6     +LDI R31 , HIGH ( 2 * _0x0 + 1509 )
                 	__POINTW1FN _0x0,1509
000818 940e 147a 	CALL SUBOPT_0x15
                 ; 0000 0114     if (viz_faza==15) sprintf (string_LCD_2, "------II-----#");
                 _0x9B:
00081a e0ef      	LDI  R30,LOW(15)
00081b 15ed      	CP   R30,R13
00081c f431      	BRNE _0x9C
00081d 940e 1449 	CALL SUBOPT_0xE
                +
00081f e5ec     +LDI R30 , LOW ( 2 * _0x0 + 1526 )
000820 e0f6     +LDI R31 , HIGH ( 2 * _0x0 + 1526 )
                 	__POINTW1FN _0x0,1526
000821 940e 147a 	CALL SUBOPT_0x15
                 ; 0000 0115     if (viz_faza==16) sprintf (string_LCD_2, "------II----o_O");
                 _0x9C:
000823 e1e0      	LDI  R30,LOW(16)
000824 15ed      	CP   R30,R13
000825 f431      	BRNE _0x9D
000826 940e 1449 	CALL SUBOPT_0xE
                +
000828 e6ed     +LDI R30 , LOW ( 2 * _0x0 + 1543 )
000829 e0f6     +LDI R31 , HIGH ( 2 * _0x0 + 1543 )
                 	__POINTW1FN _0x0,1543
00082a 940e 147a 	CALL SUBOPT_0x15
                 ; 0000 0116     lcd_puts (string_LCD_2);
                 _0x9D:
                 _0x20C0008:
00082c e7e4      	LDI  R30,LOW(_string_LCD_2)
00082d e0f2      	LDI  R31,HIGH(_string_LCD_2)
                 _0x20C0009:
00082e 93fa      	ST   -Y,R31
00082f 93ea      	ST   -Y,R30
000830 940e 0f9d 	CALL _lcd_puts
                 ; 0000 0117     }
000832 9508      	RET
                 ;
                 ;void zvuk ()
                 ; 0000 011A     {
                 _zvuk:
                 ; 0000 011B     UDR = X;
000833 b88c      	OUT  0xC,R8
                 ; 0000 011C     }
000834 9508      	RET
                 ;
                 ;void new_X_Y_stat (void)
                 ; 0000 011F     {
                 _new_X_Y_stat:
                 ; 0000 0120     X = read_adc (0);
000835 e0e0      	LDI  R30,LOW(0)
000836 93ea      	ST   -Y,R30
000837 db56      	RCALL _read_adc
000838 2e8e      	MOV  R8,R30
                 ; 0000 0121     Y = read_adc (1);
000839 e0e1      	LDI  R30,LOW(1)
00083a c005      	RJMP _0x20C0007
                 ; 0000 0122     }
                 ;
                 ;void new_X_Y_din (void)
                 ; 0000 0125     {
                 _new_X_Y_din:
                 ; 0000 0126     X = read_adc (2);
00083b e0e2      	LDI  R30,LOW(2)
00083c 93ea      	ST   -Y,R30
00083d db50      	RCALL _read_adc
00083e 2e8e      	MOV  R8,R30
                 ; 0000 0127     Y = read_adc (3);
00083f e0e3      	LDI  R30,LOW(3)
                 _0x20C0007:
000840 93ea      	ST   -Y,R30
000841 db4c      	RCALL _read_adc
000842 2ebe      	MOV  R11,R30
                 ; 0000 0128     }
000843 9508      	RET
                 ;
                 ;float vektor_ampl (unsigned int Y_1, unsigned int X_1, unsigned int Y_2, unsigned int X_2)
                 ; 0000 012B     {
                 _vektor_ampl:
                 ; 0000 012C     long int YY, XX;
                 ; 0000 012D     long unsigned int YX2;
                 ; 0000 012E     float YX3;
                 ; 0000 012F     if (Y_1 > Y_2) YY = Y_1 - Y_2;
000844 9760      	SBIW R28,16
                 ;	Y_1 -> Y+22
                 ;	X_1 -> Y+20
                 ;	Y_2 -> Y+18
                 ;	X_2 -> Y+16
                 ;	YY -> Y+12
                 ;	XX -> Y+8
                 ;	YX2 -> Y+4
                 ;	YX3 -> Y+0
000845 89ea      	LDD  R30,Y+18
000846 89fb      	LDD  R31,Y+18+1
000847 89ae      	LDD  R26,Y+22
000848 89bf      	LDD  R27,Y+22+1
000849 17ea      	CP   R30,R26
00084a 07fb      	CPC  R31,R27
00084b f428      	BRSH _0x9E
00084c 89aa      	LDD  R26,Y+18
00084d 89bb      	LDD  R27,Y+18+1
00084e 89ee      	LDD  R30,Y+22
00084f 89ff      	LDD  R31,Y+22+1
000850 c004      	RJMP _0x1A9
                 ; 0000 0130     else YY = Y_2 - Y_1;
                 _0x9E:
000851 89ae      	LDD  R26,Y+22
000852 89bf      	LDD  R27,Y+22+1
000853 89ea      	LDD  R30,Y+18
000854 89fb      	LDD  R31,Y+18+1
                 _0x1A9:
000855 1bea      	SUB  R30,R26
000856 0bfb      	SBC  R31,R27
000857 2766      	CLR  R22
000858 2777      	CLR  R23
                +
000859 87ec     +STD Y + 12 , R30
00085a 87fd     +STD Y + 12 + 1 , R31
00085b 876e     +STD Y + 12 + 2 , R22
00085c 877f     +STD Y + 12 + 3 , R23
                 	__PUTD1S 12
                 ; 0000 0131     if (X_1 > X_2) XX = X_1 - X_2;
00085d 89e8      	LDD  R30,Y+16
00085e 89f9      	LDD  R31,Y+16+1
00085f 89ac      	LDD  R26,Y+20
000860 89bd      	LDD  R27,Y+20+1
000861 17ea      	CP   R30,R26
000862 07fb      	CPC  R31,R27
000863 f428      	BRSH _0xA0
000864 89a8      	LDD  R26,Y+16
000865 89b9      	LDD  R27,Y+16+1
000866 89ec      	LDD  R30,Y+20
000867 89fd      	LDD  R31,Y+20+1
000868 c004      	RJMP _0x1AA
                 ; 0000 0132     else XX = X_2 - X_1;
                 _0xA0:
000869 89ac      	LDD  R26,Y+20
00086a 89bd      	LDD  R27,Y+20+1
00086b 89e8      	LDD  R30,Y+16
00086c 89f9      	LDD  R31,Y+16+1
                 _0x1AA:
00086d 1bea      	SUB  R30,R26
00086e 0bfb      	SBC  R31,R27
00086f 2766      	CLR  R22
000870 2777      	CLR  R23
                +
000871 87e8     +STD Y + 8 , R30
000872 87f9     +STD Y + 8 + 1 , R31
000873 876a     +STD Y + 8 + 2 , R22
000874 877b     +STD Y + 8 + 3 , R23
                 	__PUTD1S 8
                 ; 0000 0133     YX2  = YY*YY + XX*XX;
000875 940e 1495 	CALL SUBOPT_0x18
000877 940e 17a0 	CALL __MULD12
000879 937f      	PUSH R23
00087a 936f      	PUSH R22
00087b 93ff      	PUSH R31
00087c 93ef      	PUSH R30
                +
00087d 85e8     +LDD R30 , Y + 8
00087e 85f9     +LDD R31 , Y + 8 + 1
00087f 856a     +LDD R22 , Y + 8 + 2
000880 857b     +LDD R23 , Y + 8 + 3
                 	__GETD1S 8
000881 940e 149e 	CALL SUBOPT_0x19
000883 940e 17a0 	CALL __MULD12
000885 91af      	POP  R26
000886 91bf      	POP  R27
000887 918f      	POP  R24
000888 919f      	POP  R25
000889 940e 175f 	CALL __ADDD12
00088b 940e 14a3 	CALL SUBOPT_0x1A
                 ; 0000 0134     YX3 = sqrt (YX2);
00088d 940e 1857 	CALL __CDF1U
00088f 940e 14a8 	CALL SUBOPT_0x1B
000891 940e 14ac 	CALL SUBOPT_0x1C
                 ; 0000 0135     return YX3;
000893 940e 14b1 	CALL SUBOPT_0x1D
000895 c06e      	RJMP _0x20C0006
                 ; 0000 0136     }
                 ;
                 ;
                 ;float vektor_faza (unsigned int Y_1, unsigned int X_1, unsigned int Y_2, unsigned int X_2)
                 ; 0000 013A     {
                 _vektor_faza:
                 ; 0000 013B     signed int YY, XX;
                 ; 0000 013C     float YX2;
                 ; 0000 013D     YY = Y_1 - Y_2;
000896 9724      	SBIW R28,4
000897 940e 19a0 	CALL __SAVELOCR4
                 ;	Y_1 -> Y+14
                 ;	X_1 -> Y+12
                 ;	Y_2 -> Y+10
                 ;	X_2 -> Y+8
                 ;	YY -> R16,R17
                 ;	XX -> R18,R19
                 ;	YX2 -> Y+4
000899 85aa      	LDD  R26,Y+10
00089a 85bb      	LDD  R27,Y+10+1
00089b 85ee      	LDD  R30,Y+14
00089c 85ff      	LDD  R31,Y+14+1
00089d 1bea      	SUB  R30,R26
00089e 0bfb      	SBC  R31,R27
00089f 018f      	MOVW R16,R30
                 ; 0000 013E     XX = X_1 - X_2;
0008a0 85a8      	LDD  R26,Y+8
0008a1 85b9      	LDD  R27,Y+8+1
0008a2 85ec      	LDD  R30,Y+12
0008a3 85fd      	LDD  R31,Y+12+1
0008a4 1bea      	SUB  R30,R26
0008a5 0bfb      	SBC  R31,R27
0008a6 019f      	MOVW R18,R30
                 ; 0000 013F     YX2 = atan2 (YY,XX);
0008a7 01f8      	MOVW R30,R16
0008a8 940e 14b6 	CALL SUBOPT_0x1E
0008aa 01f9      	MOVW R30,R18
0008ab 940e 14b6 	CALL SUBOPT_0x1E
0008ad 940e 138d 	CALL _atan2
0008af 940e 14a3 	CALL SUBOPT_0x1A
                 ; 0000 0140     return YX2;
0008b1 940e 19a7 	CALL __LOADLOCR4
0008b3 9660      	ADIW R28,16
0008b4 9508      	RET
                 ; 0000 0141     }
                 ;
                 ;float th_cos (float a, float aa_x, float b, float bb_x)
                 ; 0000 0144     {
                 _th_cos:
                 ; 0000 0145     float c;
                 ; 0000 0146     float aabb;
                 ; 0000 0147     aabb = aa_x - bb_x;
0008b5 9728      	SBIW R28,8
                 ;	a -> Y+20
                 ;	aa_x -> Y+16
                 ;	b -> Y+12
                 ;	bb_x -> Y+8
                 ;	c -> Y+4
                 ;	aabb -> Y+0
0008b6 940e 149e 	CALL SUBOPT_0x19
                +
0008b8 89e8     +LDD R30 , Y + 16
0008b9 89f9     +LDD R31 , Y + 16 + 1
0008ba 896a     +LDD R22 , Y + 16 + 2
0008bb 897b     +LDD R23 , Y + 16 + 3
                 	__GETD1S 16
0008bc 940e 188c 	CALL __SUBF12
0008be 940e 14ac 	CALL SUBOPT_0x1C
                 ; 0000 0148     c = sqrt (a*a + b*b - 2*a*b*cos(aabb));
                +
0008c0 89ec     +LDD R30 , Y + 20
0008c1 89fd     +LDD R31 , Y + 20 + 1
0008c2 896e     +LDD R22 , Y + 20 + 2
0008c3 897f     +LDD R23 , Y + 20 + 3
                 	__GETD1S 20
                +
0008c4 89ac     +LDD R26 , Y + 20
0008c5 89bd     +LDD R27 , Y + 20 + 1
0008c6 898e     +LDD R24 , Y + 20 + 2
0008c7 899f     +LDD R25 , Y + 20 + 3
                 	__GETD2S 20
0008c8 940e 18e1 	CALL __MULF12
0008ca 937f      	PUSH R23
0008cb 936f      	PUSH R22
0008cc 93ff      	PUSH R31
0008cd 93ef      	PUSH R30
0008ce 940e 1495 	CALL SUBOPT_0x18
0008d0 940e 18e1 	CALL __MULF12
0008d2 91af      	POP  R26
0008d3 91bf      	POP  R27
0008d4 918f      	POP  R24
0008d5 919f      	POP  R25
0008d6 940e 1893 	CALL __ADDF12
0008d8 937f      	PUSH R23
0008d9 936f      	PUSH R22
0008da 93ff      	PUSH R31
0008db 93ef      	PUSH R30
                +
0008dc 89ec     +LDD R30 , Y + 20
0008dd 89fd     +LDD R31 , Y + 20 + 1
0008de 896e     +LDD R22 , Y + 20 + 2
0008df 897f     +LDD R23 , Y + 20 + 3
                 	__GETD1S 20
                +
0008e0 e0a0     +LDI R26 , LOW ( 0x40000000 )
0008e1 e0b0     +LDI R27 , HIGH ( 0x40000000 )
0008e2 e080     +LDI R24 , BYTE3 ( 0x40000000 )
0008e3 e490     +LDI R25 , BYTE4 ( 0x40000000 )
                 	__GETD2N 0x40000000
0008e4 940e 18e1 	CALL __MULF12
                +
0008e6 85ac     +LDD R26 , Y + 12
0008e7 85bd     +LDD R27 , Y + 12 + 1
0008e8 858e     +LDD R24 , Y + 12 + 2
0008e9 859f     +LDD R25 , Y + 12 + 3
                 	__GETD2S 12
0008ea 940e 18e1 	CALL __MULF12
0008ec 937f      	PUSH R23
0008ed 936f      	PUSH R22
0008ee 93ff      	PUSH R31
0008ef 93ef      	PUSH R30
0008f0 940e 14bd 	CALL SUBOPT_0x1F
0008f2 940e 12be 	CALL _cos
0008f4 91af      	POP  R26
0008f5 91bf      	POP  R27
0008f6 918f      	POP  R24
0008f7 919f      	POP  R25
0008f8 940e 18e1 	CALL __MULF12
0008fa 91af      	POP  R26
0008fb 91bf      	POP  R27
0008fc 918f      	POP  R24
0008fd 919f      	POP  R25
0008fe 940e 14c1 	CALL SUBOPT_0x20
000900 940e 14a8 	CALL SUBOPT_0x1B
000902 940e 14a3 	CALL SUBOPT_0x1A
                 ; 0000 0149     return c;
                 _0x20C0006:
000904 9668      	ADIW R28,24
000905 9508      	RET
                 ; 0000 014A     }
                 ;
                 ;float th_sin (float c, int b_y, int b_x, int c_y, int c_x)
                 ; 0000 014D     {
                 _th_sin:
                 ; 0000 014E     int ab;
                 ; 0000 014F     float temp;
                 ; 0000 0150     if (b_y > c_y) ab = b_y - c_y;
000906 9724      	SBIW R28,4
000907 931a      	ST   -Y,R17
000908 930a      	ST   -Y,R16
                 ;	c -> Y+14
                 ;	b_y -> Y+12
                 ;	b_x -> Y+10
                 ;	c_y -> Y+8
                 ;	c_x -> Y+6
                 ;	ab -> R16,R17
                 ;	temp -> Y+2
000909 85e8      	LDD  R30,Y+8
00090a 85f9      	LDD  R31,Y+8+1
00090b 85ac      	LDD  R26,Y+12
00090c 85bd      	LDD  R27,Y+12+1
00090d 17ea      	CP   R30,R26
00090e 07fb      	CPC  R31,R27
00090f f42c      	BRGE _0xA2
000910 85a8      	LDD  R26,Y+8
000911 85b9      	LDD  R27,Y+8+1
000912 85ec      	LDD  R30,Y+12
000913 85fd      	LDD  R31,Y+12+1
000914 c004      	RJMP _0x1AB
                 ; 0000 0151     else ab = c_y - b_y;
                 _0xA2:
000915 85ac      	LDD  R26,Y+12
000916 85bd      	LDD  R27,Y+12+1
000917 85e8      	LDD  R30,Y+8
000918 85f9      	LDD  R31,Y+8+1
                 _0x1AB:
000919 1bea      	SUB  R30,R26
00091a 0bfb      	SBC  R31,R27
00091b 018f      	MOVW R16,R30
                 ; 0000 0152     temp = asin (ab/c);
                +
00091c 85ee     +LDD R30 , Y + 14
00091d 85ff     +LDD R31 , Y + 14 + 1
00091e 8968     +LDD R22 , Y + 14 + 2
00091f 8979     +LDD R23 , Y + 14 + 3
                 	__GETD1S 14
000920 01d8      	MOVW R26,R16
000921 940e 177b 	CALL __CWD2
000923 940e 17dd 	CALL __CDF2
000925 940e 14c6 	CALL SUBOPT_0x21
000927 940e 132f 	CALL _asin
                +
000929 83ea     +STD Y + 2 , R30
00092a 83fb     +STD Y + 2 + 1 , R31
00092b 836c     +STD Y + 2 + 2 , R22
00092c 837d     +STD Y + 2 + 3 , R23
                 	__PUTD1S 2
                 ; 0000 0153     if (c_x > b_x) temp = 3.141593 - temp;
00092d 85ea      	LDD  R30,Y+10
00092e 85fb      	LDD  R31,Y+10+1
00092f 81ae      	LDD  R26,Y+6
000930 81bf      	LDD  R27,Y+6+1
000931 17ea      	CP   R30,R26
000932 07fb      	CPC  R31,R27
000933 f474      	BRGE _0xA4
                +
000934 81aa     +LDD R26 , Y + 2
000935 81bb     +LDD R27 , Y + 2 + 1
000936 818c     +LDD R24 , Y + 2 + 2
000937 819d     +LDD R25 , Y + 2 + 3
                 	__GETD2S 2
                +
000938 edec     +LDI R30 , LOW ( 0x40490FDC )
000939 e0ff     +LDI R31 , HIGH ( 0x40490FDC )
00093a e469     +LDI R22 , BYTE3 ( 0x40490FDC )
00093b e470     +LDI R23 , BYTE4 ( 0x40490FDC )
                 	__GETD1N 0x40490FDC
00093c 940e 188c 	CALL __SUBF12
                +
00093e 83ea     +STD Y + 2 , R30
00093f 83fb     +STD Y + 2 + 1 , R31
000940 836c     +STD Y + 2 + 2 , R22
000941 837d     +STD Y + 2 + 3 , R23
                 	__PUTD1S 2
                 ; 0000 0154     return temp;
                 _0xA4:
                +
000942 81ea     +LDD R30 , Y + 2
000943 81fb     +LDD R31 , Y + 2 + 1
000944 816c     +LDD R22 , Y + 2 + 2
000945 817d     +LDD R23 , Y + 2 + 3
                 	__GETD1S 2
000946 8119      	LDD  R17,Y+1
000947 8108      	LDD  R16,Y+0
000948 9662      	ADIW R28,18
000949 9508      	RET
                 ; 0000 0155     }
                 ;
                 ;void main_menu(void)
                 ; 0000 0158     {
                 _main_menu:
                 ; 0000 0159     menu++;
00094a e4e0      	LDI  R30,LOW(64)
00094b 262e      	EOR  R2,R30
                 ; 0000 015A     while (kn1==1)
                 _0xA5:
00094c e0a0      	LDI  R26,0
00094d fc20      	SBRC R2,0
00094e e0a1      	LDI  R26,1
00094f 30a1      	CPI  R26,LOW(0x1)
000950 f419      	BRNE _0xA7
                 ; 0000 015B         {
                 ; 0000 015C         kn_klava();
000951 940e 14cb 	CALL SUBOPT_0x22
                 ; 0000 015D         lcd_disp();
                 ; 0000 015E         };
000953 cff8      	RJMP _0xA5
                 _0xA7:
                 ; 0000 015F     }
000954 9508      	RET
                 ;
                 ;void rezymm(void)
                 ; 0000 0162     {
                 _rezymm:
                 ; 0000 0163     rezym++;
000955 e0e4      	LDI  R30,LOW(4)
000956 263e      	EOR  R3,R30
                 ; 0000 0164     while (kn2==1)
                 _0xA8:
000957 940e 1458 	CALL SUBOPT_0x11
000959 f419      	BRNE _0xAA
                 ; 0000 0165         {
                 ; 0000 0166         kn_klava();
00095a 940e 14cb 	CALL SUBOPT_0x22
                 ; 0000 0167         lcd_disp();
                 ; 0000 0168         };
00095c cffa      	RJMP _0xA8
                 _0xAA:
                 ; 0000 0169     }
00095d 9508      	RET
                 ;
                 ;void barrier(void)
                 ; 0000 016C     {
                 _barrier:
                 ; 0000 016D     bar++;
00095e 9493      	INC  R9
                 ; 0000 016E     if (bar==10) bar=0;
00095f e0ea      	LDI  R30,LOW(10)
000960 15e9      	CP   R30,R9
000961 f409      	BRNE _0xAB
000962 2499      	CLR  R9
                 ; 0000 016F     bar_rad = (float) bar*0.174532925;
                 _0xAB:
000963 2de9      	MOV  R30,R9
000964 940e 1770 	CALL __CBD1
000966 940e 1859 	CALL __CDF1
                +
000968 eca2     +LDI R26 , LOW ( 0x3E32B8C2 )
000969 ebb8     +LDI R27 , HIGH ( 0x3E32B8C2 )
00096a e382     +LDI R24 , BYTE3 ( 0x3E32B8C2 )
00096b e39e     +LDI R25 , BYTE4 ( 0x3E32B8C2 )
                 	__GETD2N 0x3E32B8C2
00096c 940e 18e1 	CALL __MULF12
00096e 93e0 02b0 	STS  _bar_rad,R30
000970 93f0 02b1 	STS  _bar_rad+1,R31
000972 9360 02b2 	STS  _bar_rad+2,R22
000974 9370 02b3 	STS  _bar_rad+3,R23
                 ; 0000 0170     while (kn3==1)
                 _0xAC:
000976 940e 145d 	CALL SUBOPT_0x12
000978 f419      	BRNE _0xAE
                 ; 0000 0171         {
                 ; 0000 0172         kn_klava();
000979 940e 14cb 	CALL SUBOPT_0x22
                 ; 0000 0173         lcd_disp();
                 ; 0000 0174         };
00097b cffa      	RJMP _0xAC
                 _0xAE:
                 ; 0000 0175     }
00097c 9508      	RET
                 ;
                 ;void rock(void)
                 ; 0000 0178     {
                 _rock:
                 ; 0000 0179     if (menu==1) mod_rock++;
00097d 940e 1403 	CALL SUBOPT_0x3
00097f f411      	BRNE _0xAF
000980 e0e1      	LDI  R30,LOW(1)
000981 263e      	EOR  R3,R30
                 ; 0000 017A     rock_ampl_max = vektor_ampl(Y, X, zero_Y, zero_X);
                 _0xAF:
000982 940e 14cf 	CALL SUBOPT_0x23
000984 debf      	RCALL _vektor_ampl
000985 93e0 02a0 	STS  _rock_ampl_max,R30
000987 93f0 02a1 	STS  _rock_ampl_max+1,R31
000989 9360 02a2 	STS  _rock_ampl_max+2,R22
00098b 9370 02a3 	STS  _rock_ampl_max+3,R23
                 ; 0000 017B     rock_faza_max = vektor_faza(Y, X, zero_Y, zero_X);
00098d 940e 14cf 	CALL SUBOPT_0x23
00098f df06      	RCALL _vektor_faza
000990 93e0 02a4 	STS  _rock_faza_max,R30
000992 93f0 02a5 	STS  _rock_faza_max+1,R31
000994 9360 02a6 	STS  _rock_faza_max+2,R22
000996 9370 02a7 	STS  _rock_faza_max+3,R23
                 ; 0000 017C     }
000998 9508      	RET
                 ;
                 ;void ground(void)
                 ; 0000 017F     {
                 _ground:
                 ; 0000 0180     if (menu==1) mod_gnd++;
000999 940e 1403 	CALL SUBOPT_0x3
00099b f411      	BRNE _0xB0
00099c e8e0      	LDI  R30,LOW(128)
00099d 262e      	EOR  R2,R30
                 ; 0000 0181     gnd_ampl_max = vektor_ampl(Y, X, zero_Y, zero_X);
                 _0xB0:
00099e 940e 14cf 	CALL SUBOPT_0x23
0009a0 dea3      	RCALL _vektor_ampl
0009a1 93e0 0298 	STS  _gnd_ampl_max,R30
0009a3 93f0 0299 	STS  _gnd_ampl_max+1,R31
0009a5 9360 029a 	STS  _gnd_ampl_max+2,R22
0009a7 9370 029b 	STS  _gnd_ampl_max+3,R23
                 ; 0000 0182     gnd_faza_max = vektor_faza(Y, X, zero_Y, zero_X);
0009a9 940e 14cf 	CALL SUBOPT_0x23
0009ab deea      	RCALL _vektor_faza
0009ac 93e0 029c 	STS  _gnd_faza_max,R30
0009ae 93f0 029d 	STS  _gnd_faza_max+1,R31
0009b0 9360 029e 	STS  _gnd_faza_max+2,R22
0009b2 9370 029f 	STS  _gnd_faza_max+3,R23
                 ; 0000 0183     }
0009b4 9508      	RET
                 ;
                 ;void zero(void)
                 ; 0000 0186     {
                 _zero:
                 ; 0000 0187     if (menu==1) mod_all_met++;
0009b5 940e 1403 	CALL SUBOPT_0x3
0009b7 f411      	BRNE _0xB1
0009b8 e0e2      	LDI  R30,LOW(2)
0009b9 263e      	EOR  R3,R30
                 ; 0000 0188     zero_X = X;
                 _0xB1:
0009ba 2c68      	MOV  R6,R8
0009bb 2477      	CLR  R7
                 ; 0000 0189     zero_Y = Y;
0009bc 2c4b      	MOV  R4,R11
0009bd 2455      	CLR  R5
                 ; 0000 018A     }
0009be 9508      	RET
                 ;
                 ;void start (void)
                 ; 0000 018D {
                 _start:
                 ; 0000 018E // Declare your local variables here
                 ; 0000 018F 
                 ; 0000 0190 // Input/Output Ports initialization
                 ; 0000 0191 // Port A initialization
                 ; 0000 0192 // Func7=In Func6=In Func5=In Func4=In Func3=In Func2=In Func1=In Func0=In
                 ; 0000 0193 // State7=T State6=T State5=T State4=T State3=T State2=T State1=T State0=T
                 ; 0000 0194 PORTA=0x00;
0009bf e0e0      	LDI  R30,LOW(0)
0009c0 bbeb      	OUT  0x1B,R30
                 ; 0000 0195 DDRA=0x00;
0009c1 bbea      	OUT  0x1A,R30
                 ; 0000 0196 
                 ; 0000 0197 // Port B initialization
                 ; 0000 0198 // Func7=In Func6=In Func5=In Func4=In Func3=In Func2=In Func1=In Func0=In
                 ; 0000 0199 // State7=T State6=T State5=T State4=T State3=T State2=T State1=T State0=T
                 ; 0000 019A PORTB=0x00;
0009c2 bbe8      	OUT  0x18,R30
                 ; 0000 019B DDRB=0x00;
0009c3 bbe7      	OUT  0x17,R30
                 ; 0000 019C 
                 ; 0000 019D // Port C initialization
                 ; 0000 019E // Func7=Out Func6=Out Func5=Out Func4=Out Func3=Out Func2=Out Func1=Out Func0=Out
                 ; 0000 019F // State7=0 State6=0 State5=0 State4=0 State3=0 State2=0 State1=0 State0=0
                 ; 0000 01A0 PORTC=0x00;
0009c4 bbe5      	OUT  0x15,R30
                 ; 0000 01A1 DDRC=0xFF;
0009c5 efef      	LDI  R30,LOW(255)
0009c6 bbe4      	OUT  0x14,R30
                 ; 0000 01A2 
                 ; 0000 01A3 // Port D initialization
                 ; 0000 01A4 // Func7=Out Func6=In Func5=Out Func4=In Func3=In Func2=In Func1=In Func0=Out
                 ; 0000 01A5 // State7=0 State6=T State5=0 State4=T State3=T State2=T State1=T State0=0
                 ; 0000 01A6 PORTD=0x03;
0009c7 e0e3      	LDI  R30,LOW(3)
0009c8 bbe2      	OUT  0x12,R30
                 ; 0000 01A7 DDRD=0xA3;
0009c9 eae3      	LDI  R30,LOW(163)
0009ca bbe1      	OUT  0x11,R30
                 ; 0000 01A8 
                 ; 0000 01A9 // ADC initialization
                 ; 0000 01AA // ADC Clock frequency: 256,000 kHz
                 ; 0000 01AB // ADC Voltage Reference: Int., cap. on AREF
                 ; 0000 01AC // Only the 8 most significant bits of
                 ; 0000 01AD // the AD conversion result are used
                 ; 0000 01AE ADMUX=ADC_VREF_TYPE & 0xff;
0009cb e2e0      	LDI  R30,LOW(32)
0009cc b9e7      	OUT  0x7,R30
                 ; 0000 01AF ADCSRA=0x8E;
0009cd e8ee      	LDI  R30,LOW(142)
0009ce b9e6      	OUT  0x6,R30
                 ; 0000 01B0 
                 ; 0000 01B1 // Timer/Counter 0 initialization
                 ; 0000 01B2 // Clock source: System Clock
                 ; 0000 01B3 // Clock value: Timer 0 Stopped
                 ; 0000 01B4 // Mode: Normal top=FFh
                 ; 0000 01B5 // OC0 output: Disconnected
                 ; 0000 01B6 TCCR0=0x00;
0009cf e0e0      	LDI  R30,LOW(0)
0009d0 bfe3      	OUT  0x33,R30
                 ; 0000 01B7 TCNT0=0x00;
0009d1 bfe2      	OUT  0x32,R30
                 ; 0000 01B8 OCR0=0x00;
0009d2 bfec      	OUT  0x3C,R30
                 ; 0000 01B9 
                 ; 0000 01BA // Timer/Counter 1 initialization
                 ; 0000 01BB // Clock source: System Clock
                 ; 0000 01BC // Clock value: Timer 1 Stopped
                 ; 0000 01BD // Mode: Normal top=FFFFh
                 ; 0000 01BE // OC1A output: Discon.
                 ; 0000 01BF // OC1B output: Discon.
                 ; 0000 01C0 // Noise Canceler: Off
                 ; 0000 01C1 // Input Capture on Falling Edge
                 ; 0000 01C2 // Timer 1 Overflow Interrupt: Off
                 ; 0000 01C3 // Input Capture Interrupt: Off
                 ; 0000 01C4 // Compare A Match Interrupt: Off
                 ; 0000 01C5 // Compare B Match Interrupt: Off
                 ; 0000 01C6 TCCR1A=0x00;
0009d3 bdef      	OUT  0x2F,R30
                 ; 0000 01C7 TCCR1B=0x00;
0009d4 bdee      	OUT  0x2E,R30
                 ; 0000 01C8 TCNT1H=0x00;
0009d5 bded      	OUT  0x2D,R30
                 ; 0000 01C9 TCNT1L=0x00;
0009d6 bdec      	OUT  0x2C,R30
                 ; 0000 01CA ICR1H=0x00;
0009d7 bde7      	OUT  0x27,R30
                 ; 0000 01CB ICR1L=0x00;
0009d8 bde6      	OUT  0x26,R30
                 ; 0000 01CC OCR1AH=0x00;
0009d9 bdeb      	OUT  0x2B,R30
                 ; 0000 01CD OCR1AL=0x00;
0009da bdea      	OUT  0x2A,R30
                 ; 0000 01CE OCR1BH=0x00;
0009db bde9      	OUT  0x29,R30
                 ; 0000 01CF OCR1BL=0x00;
0009dc bde8      	OUT  0x28,R30
                 ; 0000 01D0 
                 ; 0000 01D1 // Timer/Counter 2 initialization
                 ; 0000 01D2 // Clock source: System Clock
                 ; 0000 01D3 // Clock value: Timer 2 Stopped
                 ; 0000 01D4 // Mode: Normal top=FFh
                 ; 0000 01D5 // OC2 output: Disconnected
                 ; 0000 01D6 ASSR=0x00;
0009dd bde2      	OUT  0x22,R30
                 ; 0000 01D7 TCCR2=0x00;
0009de bde5      	OUT  0x25,R30
                 ; 0000 01D8 TCNT2=0x00;
0009df bde4      	OUT  0x24,R30
                 ; 0000 01D9 OCR2=0x00;
0009e0 bde3      	OUT  0x23,R30
                 ; 0000 01DA 
                 ; 0000 01DB // External Interrupt(s) initialization
                 ; 0000 01DC // INT0: Off
                 ; 0000 01DD // INT1: Off
                 ; 0000 01DE // INT2: Off
                 ; 0000 01DF MCUCR=0x00;
0009e1 bfe5      	OUT  0x35,R30
                 ; 0000 01E0 MCUCSR=0x00;
0009e2 bfe4      	OUT  0x34,R30
                 ; 0000 01E1 
                 ; 0000 01E2 // Timer(s)/Counter(s) Interrupt(s) initialization
                 ; 0000 01E3 TIMSK=0x00;
0009e3 bfe9      	OUT  0x39,R30
                 ; 0000 01E4 
                 ; 0000 01E5 // Analog Comparator initialization
                 ; 0000 01E6 // Analog Comparator: Off
                 ; 0000 01E7 // Analog Comparator Input Capture by Timer/Counter 1: Off
                 ; 0000 01E8 ACSR=0x80;
0009e4 e8e0      	LDI  R30,LOW(128)
0009e5 b9e8      	OUT  0x8,R30
                 ; 0000 01E9 SFIOR=0x00;
0009e6 e0e0      	LDI  R30,LOW(0)
0009e7 bfe0      	OUT  0x30,R30
                 ; 0000 01EA 
                 ; 0000 01EB // USART initialization
                 ; 0000 01EC // Communication Parameters: 8 Data, 1 Stop, No Parity
                 ; 0000 01ED // USART Receiver: Off
                 ; 0000 01EE // USART Transmitter: On
                 ; 0000 01EF // USART Mode: Asynchronous
                 ; 0000 01F0 // USART Baud Rate: 115200
                 ; 0000 01F1 UCSRA=0x00;
0009e8 b9eb      	OUT  0xB,R30
                 ; 0000 01F2 UCSRB=0x08;
0009e9 e0e8      	LDI  R30,LOW(8)
0009ea b9ea      	OUT  0xA,R30
                 ; 0000 01F3 UCSRC=0x86;
0009eb e8e6      	LDI  R30,LOW(134)
0009ec bde0      	OUT  0x20,R30
                 ; 0000 01F4 UBRRH=0x00;
0009ed e0e0      	LDI  R30,LOW(0)
0009ee bde0      	OUT  0x20,R30
                 ; 0000 01F5 UBRRL=0x08;
0009ef e0e8      	LDI  R30,LOW(8)
0009f0 b9e9      	OUT  0x9,R30
                 ; 0000 01F6 
                 ; 0000 01F7 // LCD module initialization
                 ; 0000 01F8 lcd_init(16);
0009f1 e1e0      	LDI  R30,LOW(16)
0009f2 93ea      	ST   -Y,R30
0009f3 940e 0fbd 	CALL _lcd_init
                 ; 0000 01F9 
                 ; 0000 01FA lcd_gotoxy (0,0);
0009f5 e0e0      	LDI  R30,LOW(0)
0009f6 940e 141f 	CALL SUBOPT_0x8
                 ; 0000 01FB sprintf (string_LCD_1, "$$$ IB_Exxus $$$");
0009f8 940e 140e 	CALL SUBOPT_0x5
                +
0009fa e7ee     +LDI R30 , LOW ( 2 * _0x0 + 1560 )
0009fb e0f6     +LDI R31 , HIGH ( 2 * _0x0 + 1560 )
                 	__POINTW1FN _0x0,1560
0009fc 940e 147a 	CALL SUBOPT_0x15
                 ; 0000 01FC lcd_puts (string_LCD_1);
0009fe 940e 140e 	CALL SUBOPT_0x5
000a00 940e 1429 	CALL SUBOPT_0xA
                 ; 0000 01FD lcd_gotoxy (0,1);
                 ; 0000 01FE sprintf (string_LCD_2, "v1.6 ^_^ md4u.ru");
                +
000a02 e8ef     +LDI R30 , LOW ( 2 * _0x0 + 1577 )
000a03 e0f6     +LDI R31 , HIGH ( 2 * _0x0 + 1577 )
                 	__POINTW1FN _0x0,1577
000a04 940e 147a 	CALL SUBOPT_0x15
                 ; 0000 01FF lcd_puts (string_LCD_2);
000a06 940e 1449 	CALL SUBOPT_0xE
000a08 940e 0f9d 	CALL _lcd_puts
                 ; 0000 0200 delay_ms (5000);
000a0a e8e8      	LDI  R30,LOW(5000)
000a0b e1f3      	LDI  R31,HIGH(5000)
000a0c 93fa      	ST   -Y,R31
000a0d 93ea      	ST   -Y,R30
000a0e 940e 1719 	CALL _delay_ms
                 ; 0000 0201 
                 ; 0000 0202 // Global enable interrupts
                 ; 0000 0203 #asm("sei")
000a10 9478      	sei
                 ; 0000 0204 }
000a11 9508      	RET
                 ;
                 ;void main(void)
                 ; 0000 0207 {
                 _main:
                 ; 0000 0208 start ();
000a12 dfac      	RCALL _start
                 ; 0000 0209 temp_ampl = 0;
                +
000a13 e0e0     +LDI R30 , LOW ( 0x0 )
000a14 e0f0     +LDI R31 , HIGH ( 0x0 )
000a15 e060     +LDI R22 , BYTE3 ( 0x0 )
000a16 e070     +LDI R23 , BYTE4 ( 0x0 )
                 	__GETD1N 0x0
000a17 940e 14dc 	CALL SUBOPT_0x24
                 ; 0000 020A 
                 ; 0000 020B while (1)
                 _0xB2:
                 ; 0000 020C       {
                 ; 0000 020D       // Place your code here
                 ; 0000 020E       kn_klava();
000a19 d9a1      	RCALL _kn_klava
                 ; 0000 020F 
                 ; 0000 0210       if (rezym == 0) new_X_Y_stat ();
000a1a fc32      	SBRC R3,2
000a1b c002      	RJMP _0xB5
000a1c de18      	RCALL _new_X_Y_stat
                 ; 0000 0211       else new_X_Y_din ();
000a1d c001      	RJMP _0xB6
                 _0xB5:
000a1e de1c      	RCALL _new_X_Y_din
                 ; 0000 0212 
                 ; 0000 0213       if (kn1==1) main_menu();
                 _0xB6:
000a1f e0a0      	LDI  R26,0
000a20 fc20      	SBRC R2,0
000a21 e0a1      	LDI  R26,1
000a22 30a1      	CPI  R26,LOW(0x1)
000a23 f409      	BRNE _0xB7
000a24 df25      	RCALL _main_menu
                 ; 0000 0214       if (kn2==1) rezymm ();
                 _0xB7:
000a25 940e 1458 	CALL SUBOPT_0x11
000a27 f409      	BRNE _0xB8
000a28 df2c      	RCALL _rezymm
                 ; 0000 0215       if (kn3==1) barrier();
                 _0xB8:
000a29 940e 145d 	CALL SUBOPT_0x12
000a2b f409      	BRNE _0xB9
000a2c df31      	RCALL _barrier
                 ; 0000 0216       if (kn4==1) rock();
                 _0xB9:
000a2d e0a0      	LDI  R26,0
000a2e fc23      	SBRC R2,3
000a2f e0a1      	LDI  R26,1
000a30 30a1      	CPI  R26,LOW(0x1)
000a31 f409      	BRNE _0xBA
000a32 df4a      	RCALL _rock
                 ; 0000 0217       if (kn5==1) ground();
                 _0xBA:
000a33 e0a0      	LDI  R26,0
000a34 fc24      	SBRC R2,4
000a35 e0a1      	LDI  R26,1
000a36 30a1      	CPI  R26,LOW(0x1)
000a37 f409      	BRNE _0xBB
000a38 df60      	RCALL _ground
                 ; 0000 0218       if (kn6==1) zero();
                 _0xBB:
000a39 e0a0      	LDI  R26,0
000a3a fc25      	SBRC R2,5
000a3b e0a1      	LDI  R26,1
000a3c 30a1      	CPI  R26,LOW(0x1)
000a3d f409      	BRNE _0xBC
000a3e df76      	RCALL _zero
                 ; 0000 0219 
                 ; 0000 021A 
                 ; 0000 021B       if (rezym == 0)
                 _0xBC:
000a3f fc32      	SBRC R3,2
000a40 c39d      	RJMP _0xBD
                 ; 0000 021C         {
                 ; 0000 021D         now_ampl = vektor_ampl (Y, X, zero_Y, zero_X);
000a41 940e 14cf 	CALL SUBOPT_0x23
000a43 de00      	RCALL _vektor_ampl
000a44 940e 14e5 	CALL SUBOPT_0x25
                 ; 0000 021E         now_faza = vektor_faza (Y, X, zero_Y, zero_X);
000a46 940e 14cf 	CALL SUBOPT_0x23
000a48 de4d      	RCALL _vektor_faza
000a49 940e 14ee 	CALL SUBOPT_0x26
                 ; 0000 021F 
                 ; 0000 0220         if (mod_gnd || mod_rock == 1)
000a4b fc27      	SBRC R2,7
000a4c c004      	RJMP _0xBF
000a4d 940e 1453 	CALL SUBOPT_0x10
000a4f f009      	BREQ _0xBF
000a50 c054      	RJMP _0xBE
                 _0xBF:
                 ; 0000 0221                 {
                 ; 0000 0222                 if ((now_faza <= gnd_faza_max + bar_rad + 0.005 ) && (now_faza >= gnd_faza_max - bar_rad + 0.005 ))
000a51 940e 14f7 	CALL SUBOPT_0x27
000a53 940e 1500 	CALL SUBOPT_0x28
000a55 f019      	BREQ PC+4
000a56 f010      	BRCS PC+3
000a57 940c 0a5e 	JMP  _0xC2
000a59 940e 151b 	CALL SUBOPT_0x29
000a5b 940e 1524 	CALL SUBOPT_0x2A
000a5d f408      	BRSH _0xC3
                 _0xC2:
000a5e c010      	RJMP _0xC1
                 _0xC3:
                 ; 0000 0223                 {
                 ; 0000 0224                 if ((now_ampl * 0.99 <= gnd_ampl ) && (now_ampl * 1.01 >= gnd_ampl))
000a5f 940e 153f 	CALL SUBOPT_0x2B
000a61 940e 1548 	CALL SUBOPT_0x2C
000a63 f019      	BREQ PC+4
000a64 f010      	BRCS PC+3
000a65 940c 0a6a 	JMP  _0xC5
000a67 940e 155b 	CALL SUBOPT_0x2D
000a69 f408      	BRSH _0xC6
                 _0xC5:
000a6a c004      	RJMP _0xC4
                 _0xC6:
                 ; 0000 0225                         {
                 ; 0000 0226                         gnd_ampl = now_ampl;
000a6b 940e 156f 	CALL SUBOPT_0x2E
000a6d 940e 1578 	CALL SUBOPT_0x2F
                 ; 0000 0227                         gnd_faza = now_faza;
                 ; 0000 0228                         };
                 _0xC4:
                 ; 0000 0229                     };
                 _0xC1:
                 ; 0000 022A                 now_ampl = th_cos (now_ampl, now_faza, gnd_ampl, gnd_faza);
000a6f 940e 1591 	CALL SUBOPT_0x30
000a71 940e 159f 	CALL SUBOPT_0x31
000a73 de41      	RCALL _th_cos
000a74 940e 14e5 	CALL SUBOPT_0x25
                 ; 0000 022B                 now_faza = th_sin (temp_ampl, Y, X, gnd_ampl, gnd_faza);
000a76 940e 15a8 	CALL SUBOPT_0x32
000a78 940e 147d 	CALL SUBOPT_0x16
000a7a 940e 15b9 	CALL SUBOPT_0x33
000a7c 940e 15be 	CALL SUBOPT_0x34
000a7e de87      	RCALL _th_sin
000a7f 940e 14ee 	CALL SUBOPT_0x26
                 ; 0000 022C                 if ((now_faza <= rock_faza_max + bar_rad + 0.005 ) && (now_faza >= rock_faza_max - bar_rad + 0.005 ))
000a81 940e 15c7 	CALL SUBOPT_0x35
000a83 f019      	BREQ PC+4
000a84 f010      	BRCS PC+3
000a85 940c 0a8a 	JMP  _0xC8
000a87 940e 15e3 	CALL SUBOPT_0x36
000a89 f408      	BRSH _0xC9
                 _0xC8:
000a8a c00c      	RJMP _0xC7
                 _0xC9:
                 ; 0000 022D                     {
                 ; 0000 022E                     if ((now_ampl * 0.95 <= rock_ampl ) && (now_ampl * 1.05 >= rock_ampl))
000a8b 940e 15ff 	CALL SUBOPT_0x37
000a8d f019      	BREQ PC+4
000a8e f010      	BRCS PC+3
000a8f 940c 0a94 	JMP  _0xCB
000a91 940e 1613 	CALL SUBOPT_0x38
000a93 f408      	BRSH _0xCC
                 _0xCB:
000a94 c002      	RJMP _0xCA
                 _0xCC:
                 ; 0000 022F                         {
                 ; 0000 0230                         rock_ampl = now_ampl;
000a95 940e 1627 	CALL SUBOPT_0x39
                 ; 0000 0231                         rock_faza = now_faza;
                 ; 0000 0232                         };
                 _0xCA:
                 ; 0000 0233                     };
                 _0xC7:
                 ; 0000 0234                 temp_ampl = th_cos (now_ampl, now_faza, rock_ampl, rock_faza);
000a97 940e 1591 	CALL SUBOPT_0x30
000a99 940e 1641 	CALL SUBOPT_0x3A
000a9b 940e 164a 	CALL SUBOPT_0x3B
                 ; 0000 0235                 temp_faza = th_sin (temp_ampl, Y, X, rock_ampl, rock_faza);
000a9d 940e 1462 	CALL SUBOPT_0x13
000a9f 940e 15b9 	CALL SUBOPT_0x33
000aa1 940e 164e 	CALL SUBOPT_0x3C
000aa3 de62      	RCALL _th_sin
000aa4 c064      	RJMP _0x1AC
                 ; 0000 0236                 }
                 ; 0000 0237 
                 ; 0000 0238         else if (mod_gnd == 1)
                 _0xBE:
000aa5 e0a0      	LDI  R26,0
000aa6 fc27      	SBRC R2,7
000aa7 e0a1      	LDI  R26,1
000aa8 30a1      	CPI  R26,LOW(0x1)
000aa9 f561      	BRNE _0xCE
                 ; 0000 0239                 {
                 ; 0000 023A                 if ((now_faza <= gnd_faza_max + bar_rad + 0.005 ) && (now_faza >= gnd_faza_max - bar_rad + 0.005 ))
000aaa 940e 14f7 	CALL SUBOPT_0x27
000aac 940e 1500 	CALL SUBOPT_0x28
000aae f019      	BREQ PC+4
000aaf f010      	BRCS PC+3
000ab0 940c 0ab7 	JMP  _0xD0
000ab2 940e 151b 	CALL SUBOPT_0x29
000ab4 940e 1524 	CALL SUBOPT_0x2A
000ab6 f408      	BRSH _0xD1
                 _0xD0:
000ab7 c010      	RJMP _0xCF
                 _0xD1:
                 ; 0000 023B                     {
                 ; 0000 023C                     if ((now_ampl * 0.99 <= gnd_ampl ) && (now_ampl * 1.01 >= gnd_ampl))
000ab8 940e 153f 	CALL SUBOPT_0x2B
000aba 940e 1548 	CALL SUBOPT_0x2C
000abc f019      	BREQ PC+4
000abd f010      	BRCS PC+3
000abe 940c 0ac3 	JMP  _0xD3
000ac0 940e 155b 	CALL SUBOPT_0x2D
000ac2 f408      	BRSH _0xD4
                 _0xD3:
000ac3 c004      	RJMP _0xD2
                 _0xD4:
                 ; 0000 023D                         {
                 ; 0000 023E                         gnd_ampl = now_ampl;
000ac4 940e 156f 	CALL SUBOPT_0x2E
000ac6 940e 1578 	CALL SUBOPT_0x2F
                 ; 0000 023F                         gnd_faza = now_faza;
                 ; 0000 0240                         };
                 _0xD2:
                 ; 0000 0241                     };
                 _0xCF:
                 ; 0000 0242                 temp_ampl = th_cos (now_ampl, now_faza, gnd_ampl, gnd_faza);
000ac8 940e 1591 	CALL SUBOPT_0x30
000aca 940e 159f 	CALL SUBOPT_0x31
000acc 940e 164a 	CALL SUBOPT_0x3B
                 ; 0000 0243                 temp_faza = th_sin (temp_ampl, Y, X, gnd_ampl, gnd_faza);
000ace 940e 147d 	CALL SUBOPT_0x16
000ad0 940e 15b9 	CALL SUBOPT_0x33
000ad2 940e 15be 	CALL SUBOPT_0x34
000ad4 de31      	RCALL _th_sin
000ad5 c033      	RJMP _0x1AC
                 ; 0000 0244                 }
                 ; 0000 0245 
                 ; 0000 0246         else if (mod_rock == 1)
                 _0xCE:
000ad6 940e 1453 	CALL SUBOPT_0x10
000ad8 f521      	BRNE _0xD6
                 ; 0000 0247                 {
                 ; 0000 0248                 if ((now_faza <= rock_faza_max + bar_rad + 0.005 ) && (now_faza >= rock_faza_max - bar_rad + 0.005 ))
000ad9 940e 15c7 	CALL SUBOPT_0x35
000adb f019      	BREQ PC+4
000adc f010      	BRCS PC+3
000add 940c 0ae2 	JMP  _0xD8
000adf 940e 15e3 	CALL SUBOPT_0x36
000ae1 f408      	BRSH _0xD9
                 _0xD8:
000ae2 c00c      	RJMP _0xD7
                 _0xD9:
                 ; 0000 0249                     {
                 ; 0000 024A                     if ((now_ampl * 0.95 <= rock_ampl ) && (now_ampl * 1.05 >= rock_ampl))
000ae3 940e 15ff 	CALL SUBOPT_0x37
000ae5 f019      	BREQ PC+4
000ae6 f010      	BRCS PC+3
000ae7 940c 0aec 	JMP  _0xDB
000ae9 940e 1613 	CALL SUBOPT_0x38
000aeb f408      	BRSH _0xDC
                 _0xDB:
000aec c002      	RJMP _0xDA
                 _0xDC:
                 ; 0000 024B                         {
                 ; 0000 024C                         rock_ampl = now_ampl;
000aed 940e 1627 	CALL SUBOPT_0x39
                 ; 0000 024D                         rock_faza = now_faza;
                 ; 0000 024E                         };
                 _0xDA:
                 ; 0000 024F                     };
                 _0xD7:
                 ; 0000 0250                 temp_ampl = th_cos (now_ampl, now_faza, rock_ampl, rock_faza);
000aef 940e 1591 	CALL SUBOPT_0x30
000af1 940e 1641 	CALL SUBOPT_0x3A
000af3 940e 164a 	CALL SUBOPT_0x3B
                 ; 0000 0251                 temp_faza = th_sin (temp_ampl, Y, X, rock_ampl, rock_faza);
000af5 940e 1462 	CALL SUBOPT_0x13
000af7 940e 15b9 	CALL SUBOPT_0x33
000af9 940e 164e 	CALL SUBOPT_0x3C
000afb de0a      	RCALL _th_sin
000afc c00c      	RJMP _0x1AC
                 ; 0000 0252                 }
                 ; 0000 0253 
                 ; 0000 0254         else
                 _0xD6:
                 ; 0000 0255                 {
                 ; 0000 0256                 temp_ampl = now_ampl;
000afd 940e 156f 	CALL SUBOPT_0x2E
000aff 940e 14dc 	CALL SUBOPT_0x24
                 ; 0000 0257                 temp_faza = now_faza;
000b01 91e0 02ac 	LDS  R30,_now_faza
000b03 91f0 02ad 	LDS  R31,_now_faza+1
000b05 9160 02ae 	LDS  R22,_now_faza+2
000b07 9170 02af 	LDS  R23,_now_faza+3
                 _0x1AC:
000b09 93e0 02b8 	STS  _temp_faza,R30
000b0b 93f0 02b9 	STS  _temp_faza+1,R31
000b0d 9360 02ba 	STS  _temp_faza+2,R22
000b0f 9370 02bb 	STS  _temp_faza+3,R23
                 ; 0000 0258                 };
                 ; 0000 0259 
                 ; 0000 025A         if      (temp_ampl> 160 )   viz_ampl=32;
000b11 940e 1657 	CALL SUBOPT_0x3D
                +
000b13 e0e0     +LDI R30 , LOW ( 0x43200000 )
000b14 e0f0     +LDI R31 , HIGH ( 0x43200000 )
000b15 e260     +LDI R22 , BYTE3 ( 0x43200000 )
000b16 e473     +LDI R23 , BYTE4 ( 0x43200000 )
                 	__GETD1N 0x43200000
000b17 940e 1974 	CALL __CMPF12
000b19 f009      	BREQ PC+2
000b1a f410      	BRCC PC+3
000b1b 940c 0b20 	JMP  _0xDE
000b1d e2e0      	LDI  R30,LOW(32)
000b1e 2eae      	MOV  R10,R30
                 ; 0000 025B         else if (temp_ampl> 155 )   viz_ampl=31;
000b1f c1d7      	RJMP _0xDF
                 _0xDE:
000b20 940e 1657 	CALL SUBOPT_0x3D
                +
000b22 e0e0     +LDI R30 , LOW ( 0x431B0000 )
000b23 e0f0     +LDI R31 , HIGH ( 0x431B0000 )
000b24 e16b     +LDI R22 , BYTE3 ( 0x431B0000 )
000b25 e473     +LDI R23 , BYTE4 ( 0x431B0000 )
                 	__GETD1N 0x431B0000
000b26 940e 1974 	CALL __CMPF12
000b28 f009      	BREQ PC+2
000b29 f410      	BRCC PC+3
000b2a 940c 0b2f 	JMP  _0xE0
000b2c e1ef      	LDI  R30,LOW(31)
000b2d 2eae      	MOV  R10,R30
                 ; 0000 025C         else if (temp_ampl> 150 )   viz_ampl=30;
000b2e c1c8      	RJMP _0xE1
                 _0xE0:
000b2f 940e 1657 	CALL SUBOPT_0x3D
                +
000b31 e0e0     +LDI R30 , LOW ( 0x43160000 )
000b32 e0f0     +LDI R31 , HIGH ( 0x43160000 )
000b33 e166     +LDI R22 , BYTE3 ( 0x43160000 )
000b34 e473     +LDI R23 , BYTE4 ( 0x43160000 )
                 	__GETD1N 0x43160000
000b35 940e 1974 	CALL __CMPF12
000b37 f009      	BREQ PC+2
000b38 f410      	BRCC PC+3
000b39 940c 0b3e 	JMP  _0xE2
000b3b e1ee      	LDI  R30,LOW(30)
000b3c 2eae      	MOV  R10,R30
                 ; 0000 025D         else if (temp_ampl> 145 )   viz_ampl=29;
000b3d c1b9      	RJMP _0xE3
                 _0xE2:
000b3e 940e 1657 	CALL SUBOPT_0x3D
                +
000b40 e0e0     +LDI R30 , LOW ( 0x43110000 )
000b41 e0f0     +LDI R31 , HIGH ( 0x43110000 )
000b42 e161     +LDI R22 , BYTE3 ( 0x43110000 )
000b43 e473     +LDI R23 , BYTE4 ( 0x43110000 )
                 	__GETD1N 0x43110000
000b44 940e 1974 	CALL __CMPF12
000b46 f009      	BREQ PC+2
000b47 f410      	BRCC PC+3
000b48 940c 0b4d 	JMP  _0xE4
000b4a e1ed      	LDI  R30,LOW(29)
000b4b 2eae      	MOV  R10,R30
                 ; 0000 025E         else if (temp_ampl> 140 )   viz_ampl=28;
000b4c c1aa      	RJMP _0xE5
                 _0xE4:
000b4d 940e 1657 	CALL SUBOPT_0x3D
                +
000b4f e0e0     +LDI R30 , LOW ( 0x430C0000 )
000b50 e0f0     +LDI R31 , HIGH ( 0x430C0000 )
000b51 e06c     +LDI R22 , BYTE3 ( 0x430C0000 )
000b52 e473     +LDI R23 , BYTE4 ( 0x430C0000 )
                 	__GETD1N 0x430C0000
000b53 940e 1974 	CALL __CMPF12
000b55 f009      	BREQ PC+2
000b56 f410      	BRCC PC+3
000b57 940c 0b5c 	JMP  _0xE6
000b59 e1ec      	LDI  R30,LOW(28)
000b5a 2eae      	MOV  R10,R30
                 ; 0000 025F         else if (temp_ampl> 135 )   viz_ampl=27;
000b5b c19b      	RJMP _0xE7
                 _0xE6:
000b5c 940e 1657 	CALL SUBOPT_0x3D
                +
000b5e e0e0     +LDI R30 , LOW ( 0x43070000 )
000b5f e0f0     +LDI R31 , HIGH ( 0x43070000 )
000b60 e067     +LDI R22 , BYTE3 ( 0x43070000 )
000b61 e473     +LDI R23 , BYTE4 ( 0x43070000 )
                 	__GETD1N 0x43070000
000b62 940e 1974 	CALL __CMPF12
000b64 f009      	BREQ PC+2
000b65 f410      	BRCC PC+3
000b66 940c 0b6b 	JMP  _0xE8
000b68 e1eb      	LDI  R30,LOW(27)
000b69 2eae      	MOV  R10,R30
                 ; 0000 0260         else if (temp_ampl> 130 )   viz_ampl=26;
000b6a c18c      	RJMP _0xE9
                 _0xE8:
000b6b 940e 1657 	CALL SUBOPT_0x3D
                +
000b6d e0e0     +LDI R30 , LOW ( 0x43020000 )
000b6e e0f0     +LDI R31 , HIGH ( 0x43020000 )
000b6f e062     +LDI R22 , BYTE3 ( 0x43020000 )
000b70 e473     +LDI R23 , BYTE4 ( 0x43020000 )
                 	__GETD1N 0x43020000
000b71 940e 1974 	CALL __CMPF12
000b73 f009      	BREQ PC+2
000b74 f410      	BRCC PC+3
000b75 940c 0b7a 	JMP  _0xEA
000b77 e1ea      	LDI  R30,LOW(26)
000b78 2eae      	MOV  R10,R30
                 ; 0000 0261         else if (temp_ampl> 125 )   viz_ampl=25;
000b79 c17d      	RJMP _0xEB
                 _0xEA:
000b7a 940e 1657 	CALL SUBOPT_0x3D
                +
000b7c e0e0     +LDI R30 , LOW ( 0x42FA0000 )
000b7d e0f0     +LDI R31 , HIGH ( 0x42FA0000 )
000b7e ef6a     +LDI R22 , BYTE3 ( 0x42FA0000 )
000b7f e472     +LDI R23 , BYTE4 ( 0x42FA0000 )
                 	__GETD1N 0x42FA0000
000b80 940e 1974 	CALL __CMPF12
000b82 f009      	BREQ PC+2
000b83 f410      	BRCC PC+3
000b84 940c 0b89 	JMP  _0xEC
000b86 e1e9      	LDI  R30,LOW(25)
000b87 2eae      	MOV  R10,R30
                 ; 0000 0262         else if (temp_ampl> 120 )   viz_ampl=24;
000b88 c16e      	RJMP _0xED
                 _0xEC:
000b89 940e 1657 	CALL SUBOPT_0x3D
                +
000b8b e0e0     +LDI R30 , LOW ( 0x42F00000 )
000b8c e0f0     +LDI R31 , HIGH ( 0x42F00000 )
000b8d ef60     +LDI R22 , BYTE3 ( 0x42F00000 )
000b8e e472     +LDI R23 , BYTE4 ( 0x42F00000 )
                 	__GETD1N 0x42F00000
000b8f 940e 1974 	CALL __CMPF12
000b91 f009      	BREQ PC+2
000b92 f410      	BRCC PC+3
000b93 940c 0b98 	JMP  _0xEE
000b95 e1e8      	LDI  R30,LOW(24)
000b96 2eae      	MOV  R10,R30
                 ; 0000 0263         else if (temp_ampl> 115 )   viz_ampl=23;
000b97 c15f      	RJMP _0xEF
                 _0xEE:
000b98 940e 1657 	CALL SUBOPT_0x3D
                +
000b9a e0e0     +LDI R30 , LOW ( 0x42E60000 )
000b9b e0f0     +LDI R31 , HIGH ( 0x42E60000 )
000b9c ee66     +LDI R22 , BYTE3 ( 0x42E60000 )
000b9d e472     +LDI R23 , BYTE4 ( 0x42E60000 )
                 	__GETD1N 0x42E60000
000b9e 940e 1974 	CALL __CMPF12
000ba0 f009      	BREQ PC+2
000ba1 f410      	BRCC PC+3
000ba2 940c 0ba7 	JMP  _0xF0
000ba4 e1e7      	LDI  R30,LOW(23)
000ba5 2eae      	MOV  R10,R30
                 ; 0000 0264         else if (temp_ampl> 110 )   viz_ampl=22;
000ba6 c150      	RJMP _0xF1
                 _0xF0:
000ba7 940e 1657 	CALL SUBOPT_0x3D
                +
000ba9 e0e0     +LDI R30 , LOW ( 0x42DC0000 )
000baa e0f0     +LDI R31 , HIGH ( 0x42DC0000 )
000bab ed6c     +LDI R22 , BYTE3 ( 0x42DC0000 )
000bac e472     +LDI R23 , BYTE4 ( 0x42DC0000 )
                 	__GETD1N 0x42DC0000
000bad 940e 1974 	CALL __CMPF12
000baf f009      	BREQ PC+2
000bb0 f410      	BRCC PC+3
000bb1 940c 0bb6 	JMP  _0xF2
000bb3 e1e6      	LDI  R30,LOW(22)
000bb4 2eae      	MOV  R10,R30
                 ; 0000 0265         else if (temp_ampl> 105 )   viz_ampl=21;
000bb5 c141      	RJMP _0xF3
                 _0xF2:
000bb6 940e 1657 	CALL SUBOPT_0x3D
                +
000bb8 e0e0     +LDI R30 , LOW ( 0x42D20000 )
000bb9 e0f0     +LDI R31 , HIGH ( 0x42D20000 )
000bba ed62     +LDI R22 , BYTE3 ( 0x42D20000 )
000bbb e472     +LDI R23 , BYTE4 ( 0x42D20000 )
                 	__GETD1N 0x42D20000
000bbc 940e 1974 	CALL __CMPF12
000bbe f009      	BREQ PC+2
000bbf f410      	BRCC PC+3
000bc0 940c 0bc5 	JMP  _0xF4
000bc2 e1e5      	LDI  R30,LOW(21)
000bc3 2eae      	MOV  R10,R30
                 ; 0000 0266         else if (temp_ampl> 100 )   viz_ampl=20;
000bc4 c132      	RJMP _0xF5
                 _0xF4:
000bc5 940e 1657 	CALL SUBOPT_0x3D
                +
000bc7 e0e0     +LDI R30 , LOW ( 0x42C80000 )
000bc8 e0f0     +LDI R31 , HIGH ( 0x42C80000 )
000bc9 ec68     +LDI R22 , BYTE3 ( 0x42C80000 )
000bca e472     +LDI R23 , BYTE4 ( 0x42C80000 )
                 	__GETD1N 0x42C80000
000bcb 940e 1974 	CALL __CMPF12
000bcd f009      	BREQ PC+2
000bce f410      	BRCC PC+3
000bcf 940c 0bd4 	JMP  _0xF6
000bd1 e1e4      	LDI  R30,LOW(20)
000bd2 2eae      	MOV  R10,R30
                 ; 0000 0267         else if (temp_ampl> 95  )   viz_ampl=19;
000bd3 c123      	RJMP _0xF7
                 _0xF6:
000bd4 940e 1657 	CALL SUBOPT_0x3D
                +
000bd6 e0e0     +LDI R30 , LOW ( 0x42BE0000 )
000bd7 e0f0     +LDI R31 , HIGH ( 0x42BE0000 )
000bd8 eb6e     +LDI R22 , BYTE3 ( 0x42BE0000 )
000bd9 e472     +LDI R23 , BYTE4 ( 0x42BE0000 )
                 	__GETD1N 0x42BE0000
000bda 940e 1974 	CALL __CMPF12
000bdc f009      	BREQ PC+2
000bdd f410      	BRCC PC+3
000bde 940c 0be3 	JMP  _0xF8
000be0 e1e3      	LDI  R30,LOW(19)
000be1 2eae      	MOV  R10,R30
                 ; 0000 0268         else if (temp_ampl> 90  )   viz_ampl=18;
000be2 c114      	RJMP _0xF9
                 _0xF8:
000be3 940e 1657 	CALL SUBOPT_0x3D
                +
000be5 e0e0     +LDI R30 , LOW ( 0x42B40000 )
000be6 e0f0     +LDI R31 , HIGH ( 0x42B40000 )
000be7 eb64     +LDI R22 , BYTE3 ( 0x42B40000 )
000be8 e472     +LDI R23 , BYTE4 ( 0x42B40000 )
                 	__GETD1N 0x42B40000
000be9 940e 1974 	CALL __CMPF12
000beb f009      	BREQ PC+2
000bec f410      	BRCC PC+3
000bed 940c 0bf2 	JMP  _0xFA
000bef e1e2      	LDI  R30,LOW(18)
000bf0 2eae      	MOV  R10,R30
                 ; 0000 0269         else if (temp_ampl> 85  )   viz_ampl=17;
000bf1 c105      	RJMP _0xFB
                 _0xFA:
000bf2 940e 1657 	CALL SUBOPT_0x3D
                +
000bf4 e0e0     +LDI R30 , LOW ( 0x42AA0000 )
000bf5 e0f0     +LDI R31 , HIGH ( 0x42AA0000 )
000bf6 ea6a     +LDI R22 , BYTE3 ( 0x42AA0000 )
000bf7 e472     +LDI R23 , BYTE4 ( 0x42AA0000 )
                 	__GETD1N 0x42AA0000
000bf8 940e 1974 	CALL __CMPF12
000bfa f009      	BREQ PC+2
000bfb f410      	BRCC PC+3
000bfc 940c 0c01 	JMP  _0xFC
000bfe e1e1      	LDI  R30,LOW(17)
000bff 2eae      	MOV  R10,R30
                 ; 0000 026A         else if (temp_ampl> 80  )   viz_ampl=16;
000c00 c0f6      	RJMP _0xFD
                 _0xFC:
000c01 940e 1657 	CALL SUBOPT_0x3D
                +
000c03 e0e0     +LDI R30 , LOW ( 0x42A00000 )
000c04 e0f0     +LDI R31 , HIGH ( 0x42A00000 )
000c05 ea60     +LDI R22 , BYTE3 ( 0x42A00000 )
000c06 e472     +LDI R23 , BYTE4 ( 0x42A00000 )
                 	__GETD1N 0x42A00000
000c07 940e 1974 	CALL __CMPF12
000c09 f009      	BREQ PC+2
000c0a f410      	BRCC PC+3
000c0b 940c 0c10 	JMP  _0xFE
000c0d e1e0      	LDI  R30,LOW(16)
000c0e 2eae      	MOV  R10,R30
                 ; 0000 026B         else if (temp_ampl> 75  )   viz_ampl=15;
000c0f c0e7      	RJMP _0xFF
                 _0xFE:
000c10 940e 1657 	CALL SUBOPT_0x3D
                +
000c12 e0e0     +LDI R30 , LOW ( 0x42960000 )
000c13 e0f0     +LDI R31 , HIGH ( 0x42960000 )
000c14 e966     +LDI R22 , BYTE3 ( 0x42960000 )
000c15 e472     +LDI R23 , BYTE4 ( 0x42960000 )
                 	__GETD1N 0x42960000
000c16 940e 1974 	CALL __CMPF12
000c18 f009      	BREQ PC+2
000c19 f410      	BRCC PC+3
000c1a 940c 0c1f 	JMP  _0x100
000c1c e0ef      	LDI  R30,LOW(15)
000c1d 2eae      	MOV  R10,R30
                 ; 0000 026C         else if (temp_ampl> 70  )   viz_ampl=14;
000c1e c0d8      	RJMP _0x101
                 _0x100:
000c1f 940e 1657 	CALL SUBOPT_0x3D
                +
000c21 e0e0     +LDI R30 , LOW ( 0x428C0000 )
000c22 e0f0     +LDI R31 , HIGH ( 0x428C0000 )
000c23 e86c     +LDI R22 , BYTE3 ( 0x428C0000 )
000c24 e472     +LDI R23 , BYTE4 ( 0x428C0000 )
                 	__GETD1N 0x428C0000
000c25 940e 1974 	CALL __CMPF12
000c27 f009      	BREQ PC+2
000c28 f410      	BRCC PC+3
000c29 940c 0c2e 	JMP  _0x102
000c2b e0ee      	LDI  R30,LOW(14)
000c2c 2eae      	MOV  R10,R30
                 ; 0000 026D         else if (temp_ampl> 65  )   viz_ampl=13;
000c2d c0c9      	RJMP _0x103
                 _0x102:
000c2e 940e 1657 	CALL SUBOPT_0x3D
                +
000c30 e0e0     +LDI R30 , LOW ( 0x42820000 )
000c31 e0f0     +LDI R31 , HIGH ( 0x42820000 )
000c32 e862     +LDI R22 , BYTE3 ( 0x42820000 )
000c33 e472     +LDI R23 , BYTE4 ( 0x42820000 )
                 	__GETD1N 0x42820000
000c34 940e 1974 	CALL __CMPF12
000c36 f009      	BREQ PC+2
000c37 f410      	BRCC PC+3
000c38 940c 0c3d 	JMP  _0x104
000c3a e0ed      	LDI  R30,LOW(13)
000c3b 2eae      	MOV  R10,R30
                 ; 0000 026E         else if (temp_ampl> 60  )   viz_ampl=12;
000c3c c0ba      	RJMP _0x105
                 _0x104:
000c3d 940e 1657 	CALL SUBOPT_0x3D
                +
000c3f e0e0     +LDI R30 , LOW ( 0x42700000 )
000c40 e0f0     +LDI R31 , HIGH ( 0x42700000 )
000c41 e760     +LDI R22 , BYTE3 ( 0x42700000 )
000c42 e472     +LDI R23 , BYTE4 ( 0x42700000 )
                 	__GETD1N 0x42700000
000c43 940e 1974 	CALL __CMPF12
000c45 f009      	BREQ PC+2
000c46 f410      	BRCC PC+3
000c47 940c 0c4c 	JMP  _0x106
000c49 e0ec      	LDI  R30,LOW(12)
000c4a 2eae      	MOV  R10,R30
                 ; 0000 026F         else if (temp_ampl> 55  )   viz_ampl=11;
000c4b c0ab      	RJMP _0x107
                 _0x106:
000c4c 940e 1657 	CALL SUBOPT_0x3D
                +
000c4e e0e0     +LDI R30 , LOW ( 0x425C0000 )
000c4f e0f0     +LDI R31 , HIGH ( 0x425C0000 )
000c50 e56c     +LDI R22 , BYTE3 ( 0x425C0000 )
000c51 e472     +LDI R23 , BYTE4 ( 0x425C0000 )
                 	__GETD1N 0x425C0000
000c52 940e 1974 	CALL __CMPF12
000c54 f009      	BREQ PC+2
000c55 f410      	BRCC PC+3
000c56 940c 0c5b 	JMP  _0x108
000c58 e0eb      	LDI  R30,LOW(11)
000c59 2eae      	MOV  R10,R30
                 ; 0000 0270         else if (temp_ampl> 50  )   viz_ampl=10;
000c5a c09c      	RJMP _0x109
                 _0x108:
000c5b 940e 1657 	CALL SUBOPT_0x3D
                +
000c5d e0e0     +LDI R30 , LOW ( 0x42480000 )
000c5e e0f0     +LDI R31 , HIGH ( 0x42480000 )
000c5f e468     +LDI R22 , BYTE3 ( 0x42480000 )
000c60 e472     +LDI R23 , BYTE4 ( 0x42480000 )
                 	__GETD1N 0x42480000
000c61 940e 1974 	CALL __CMPF12
000c63 f009      	BREQ PC+2
000c64 f410      	BRCC PC+3
000c65 940c 0c6a 	JMP  _0x10A
000c67 e0ea      	LDI  R30,LOW(10)
000c68 2eae      	MOV  R10,R30
                 ; 0000 0271         else if (temp_ampl> 45  )   viz_ampl=9;
000c69 c08d      	RJMP _0x10B
                 _0x10A:
000c6a 940e 1657 	CALL SUBOPT_0x3D
                +
000c6c e0e0     +LDI R30 , LOW ( 0x42340000 )
000c6d e0f0     +LDI R31 , HIGH ( 0x42340000 )
000c6e e364     +LDI R22 , BYTE3 ( 0x42340000 )
000c6f e472     +LDI R23 , BYTE4 ( 0x42340000 )
                 	__GETD1N 0x42340000
000c70 940e 1974 	CALL __CMPF12
000c72 f009      	BREQ PC+2
000c73 f410      	BRCC PC+3
000c74 940c 0c79 	JMP  _0x10C
000c76 e0e9      	LDI  R30,LOW(9)
000c77 2eae      	MOV  R10,R30
                 ; 0000 0272         else if (temp_ampl> 40  )   viz_ampl=8;
000c78 c07e      	RJMP _0x10D
                 _0x10C:
000c79 940e 1657 	CALL SUBOPT_0x3D
                +
000c7b e0e0     +LDI R30 , LOW ( 0x42200000 )
000c7c e0f0     +LDI R31 , HIGH ( 0x42200000 )
000c7d e260     +LDI R22 , BYTE3 ( 0x42200000 )
000c7e e472     +LDI R23 , BYTE4 ( 0x42200000 )
                 	__GETD1N 0x42200000
000c7f 940e 1974 	CALL __CMPF12
000c81 f009      	BREQ PC+2
000c82 f410      	BRCC PC+3
000c83 940c 0c88 	JMP  _0x10E
000c85 e0e8      	LDI  R30,LOW(8)
000c86 2eae      	MOV  R10,R30
                 ; 0000 0273         else if (temp_ampl> 35  )   viz_ampl=7;
000c87 c06f      	RJMP _0x10F
                 _0x10E:
000c88 940e 1657 	CALL SUBOPT_0x3D
                +
000c8a e0e0     +LDI R30 , LOW ( 0x420C0000 )
000c8b e0f0     +LDI R31 , HIGH ( 0x420C0000 )
000c8c e06c     +LDI R22 , BYTE3 ( 0x420C0000 )
000c8d e472     +LDI R23 , BYTE4 ( 0x420C0000 )
                 	__GETD1N 0x420C0000
000c8e 940e 1974 	CALL __CMPF12
000c90 f009      	BREQ PC+2
000c91 f410      	BRCC PC+3
000c92 940c 0c97 	JMP  _0x110
000c94 e0e7      	LDI  R30,LOW(7)
000c95 2eae      	MOV  R10,R30
                 ; 0000 0274         else if (temp_ampl> 30  )   viz_ampl=6;
000c96 c060      	RJMP _0x111
                 _0x110:
000c97 940e 1657 	CALL SUBOPT_0x3D
                +
000c99 e0e0     +LDI R30 , LOW ( 0x41F00000 )
000c9a e0f0     +LDI R31 , HIGH ( 0x41F00000 )
000c9b ef60     +LDI R22 , BYTE3 ( 0x41F00000 )
000c9c e471     +LDI R23 , BYTE4 ( 0x41F00000 )
                 	__GETD1N 0x41F00000
000c9d 940e 1974 	CALL __CMPF12
000c9f f009      	BREQ PC+2
000ca0 f410      	BRCC PC+3
000ca1 940c 0ca6 	JMP  _0x112
000ca3 e0e6      	LDI  R30,LOW(6)
000ca4 2eae      	MOV  R10,R30
                 ; 0000 0275         else if (temp_ampl> 25  )   viz_ampl=5;
000ca5 c051      	RJMP _0x113
                 _0x112:
000ca6 940e 1657 	CALL SUBOPT_0x3D
                +
000ca8 e0e0     +LDI R30 , LOW ( 0x41C80000 )
000ca9 e0f0     +LDI R31 , HIGH ( 0x41C80000 )
000caa ec68     +LDI R22 , BYTE3 ( 0x41C80000 )
000cab e471     +LDI R23 , BYTE4 ( 0x41C80000 )
                 	__GETD1N 0x41C80000
000cac 940e 1974 	CALL __CMPF12
000cae f009      	BREQ PC+2
000caf f410      	BRCC PC+3
000cb0 940c 0cb5 	JMP  _0x114
000cb2 e0e5      	LDI  R30,LOW(5)
000cb3 2eae      	MOV  R10,R30
                 ; 0000 0276         else if (temp_ampl> 20  )   viz_ampl=4;
000cb4 c042      	RJMP _0x115
                 _0x114:
000cb5 940e 1657 	CALL SUBOPT_0x3D
                +
000cb7 e0e0     +LDI R30 , LOW ( 0x41A00000 )
000cb8 e0f0     +LDI R31 , HIGH ( 0x41A00000 )
000cb9 ea60     +LDI R22 , BYTE3 ( 0x41A00000 )
000cba e471     +LDI R23 , BYTE4 ( 0x41A00000 )
                 	__GETD1N 0x41A00000
000cbb 940e 1974 	CALL __CMPF12
000cbd f009      	BREQ PC+2
000cbe f410      	BRCC PC+3
000cbf 940c 0cc4 	JMP  _0x116
000cc1 e0e4      	LDI  R30,LOW(4)
000cc2 2eae      	MOV  R10,R30
                 ; 0000 0277         else if (temp_ampl> 15  )   viz_ampl=3;
000cc3 c033      	RJMP _0x117
                 _0x116:
000cc4 940e 1657 	CALL SUBOPT_0x3D
                +
000cc6 e0e0     +LDI R30 , LOW ( 0x41700000 )
000cc7 e0f0     +LDI R31 , HIGH ( 0x41700000 )
000cc8 e760     +LDI R22 , BYTE3 ( 0x41700000 )
000cc9 e471     +LDI R23 , BYTE4 ( 0x41700000 )
                 	__GETD1N 0x41700000
000cca 940e 1974 	CALL __CMPF12
000ccc f009      	BREQ PC+2
000ccd f410      	BRCC PC+3
000cce 940c 0cd3 	JMP  _0x118
000cd0 e0e3      	LDI  R30,LOW(3)
000cd1 2eae      	MOV  R10,R30
                 ; 0000 0278         else if (temp_ampl> 10  )   viz_ampl=2;
000cd2 c024      	RJMP _0x119
                 _0x118:
000cd3 940e 1657 	CALL SUBOPT_0x3D
                +
000cd5 e0e0     +LDI R30 , LOW ( 0x41200000 )
000cd6 e0f0     +LDI R31 , HIGH ( 0x41200000 )
000cd7 e260     +LDI R22 , BYTE3 ( 0x41200000 )
000cd8 e471     +LDI R23 , BYTE4 ( 0x41200000 )
                 	__GETD1N 0x41200000
000cd9 940e 1974 	CALL __CMPF12
000cdb f009      	BREQ PC+2
000cdc f410      	BRCC PC+3
000cdd 940c 0ce2 	JMP  _0x11A
000cdf e0e2      	LDI  R30,LOW(2)
000ce0 2eae      	MOV  R10,R30
                 ; 0000 0279         else if (temp_ampl> 5   )   viz_ampl=1;
000ce1 c015      	RJMP _0x11B
                 _0x11A:
000ce2 940e 1657 	CALL SUBOPT_0x3D
                +
000ce4 e0e0     +LDI R30 , LOW ( 0x40A00000 )
000ce5 e0f0     +LDI R31 , HIGH ( 0x40A00000 )
000ce6 ea60     +LDI R22 , BYTE3 ( 0x40A00000 )
000ce7 e470     +LDI R23 , BYTE4 ( 0x40A00000 )
                 	__GETD1N 0x40A00000
000ce8 940e 1974 	CALL __CMPF12
000cea f009      	BREQ PC+2
000ceb f410      	BRCC PC+3
000cec 940c 0cf1 	JMP  _0x11C
000cee e0e1      	LDI  R30,LOW(1)
000cef 2eae      	MOV  R10,R30
                 ; 0000 027A         else if (temp_ampl> 0   )   viz_ampl=0;
000cf0 c006      	RJMP _0x11D
                 _0x11C:
000cf1 940e 1657 	CALL SUBOPT_0x3D
000cf3 940e 1998 	CALL __CPD02
000cf5 f40c      	BRGE _0x11E
000cf6 24aa      	CLR  R10
                 ; 0000 027B 
                 ; 0000 027C         if (temp_faza> 3.14) viz_faza=0;
                 _0x11E:
                 _0x11D:
                 _0x11B:
                 _0x119:
                 _0x117:
                 _0x115:
                 _0x113:
                 _0x111:
                 _0x10F:
                 _0x10D:
                 _0x10B:
                 _0x109:
                 _0x107:
                 _0x105:
                 _0x103:
                 _0x101:
                 _0xFF:
                 _0xFD:
                 _0xFB:
                 _0xF9:
                 _0xF7:
                 _0xF5:
                 _0xF3:
                 _0xF1:
                 _0xEF:
                 _0xED:
                 _0xEB:
                 _0xE9:
                 _0xE7:
                 _0xE5:
                 _0xE3:
                 _0xE1:
                 _0xDF:
000cf7 940e 1660 	CALL SUBOPT_0x3E
                +
000cf9 ece3     +LDI R30 , LOW ( 0x4048F5C3 )
000cfa eff5     +LDI R31 , HIGH ( 0x4048F5C3 )
000cfb e468     +LDI R22 , BYTE3 ( 0x4048F5C3 )
000cfc e470     +LDI R23 , BYTE4 ( 0x4048F5C3 )
                 	__GETD1N 0x4048F5C3
000cfd 940e 1974 	CALL __CMPF12
000cff f009      	BREQ PC+2
000d00 f410      	BRCC PC+3
000d01 940c 0d05 	JMP  _0x11F
000d03 24dd      	CLR  R13
                 ; 0000 027D         else if (temp_faza> 2.944) viz_faza=8;
000d04 c0d9      	RJMP _0x120
                 _0x11F:
000d05 940e 1660 	CALL SUBOPT_0x3E
                +
000d07 e7ef     +LDI R30 , LOW ( 0x403C6A7F )
000d08 e6fa     +LDI R31 , HIGH ( 0x403C6A7F )
000d09 e36c     +LDI R22 , BYTE3 ( 0x403C6A7F )
000d0a e470     +LDI R23 , BYTE4 ( 0x403C6A7F )
                 	__GETD1N 0x403C6A7F
000d0b 940e 1974 	CALL __CMPF12
000d0d f009      	BREQ PC+2
000d0e f410      	BRCC PC+3
000d0f 940c 0d13 	JMP  _0x121
000d11 e0e8      	LDI  R30,LOW(8)
000d12 c0ca      	RJMP _0x1AD
                 ; 0000 027E         else if (temp_faza> 2.748) viz_faza=7;
                 _0x121:
000d13 940e 1660 	CALL SUBOPT_0x3E
                +
000d15 e3eb     +LDI R30 , LOW ( 0x402FDF3B )
000d16 edff     +LDI R31 , HIGH ( 0x402FDF3B )
000d17 e26f     +LDI R22 , BYTE3 ( 0x402FDF3B )
000d18 e470     +LDI R23 , BYTE4 ( 0x402FDF3B )
                 	__GETD1N 0x402FDF3B
000d19 940e 1974 	CALL __CMPF12
000d1b f009      	BREQ PC+2
000d1c f410      	BRCC PC+3
000d1d 940c 0d21 	JMP  _0x123
000d1f e0e7      	LDI  R30,LOW(7)
000d20 c0bc      	RJMP _0x1AD
                 ; 0000 027F         else if (temp_faza> 2.552) viz_faza=6;
                 _0x123:
000d21 940e 1660 	CALL SUBOPT_0x3E
                +
000d23 efe8     +LDI R30 , LOW ( 0x402353F8 )
000d24 e5f3     +LDI R31 , HIGH ( 0x402353F8 )
000d25 e263     +LDI R22 , BYTE3 ( 0x402353F8 )
000d26 e470     +LDI R23 , BYTE4 ( 0x402353F8 )
                 	__GETD1N 0x402353F8
000d27 940e 1974 	CALL __CMPF12
000d29 f009      	BREQ PC+2
000d2a f410      	BRCC PC+3
000d2b 940c 0d2f 	JMP  _0x125
000d2d e0e6      	LDI  R30,LOW(6)
000d2e c0ae      	RJMP _0x1AD
                 ; 0000 0280         else if (temp_faza> 2.356) viz_faza=5;
                 _0x125:
000d2f 940e 1660 	CALL SUBOPT_0x3E
                +
000d31 ebe4     +LDI R30 , LOW ( 0x4016C8B4 )
000d32 ecf8     +LDI R31 , HIGH ( 0x4016C8B4 )
000d33 e166     +LDI R22 , BYTE3 ( 0x4016C8B4 )
000d34 e470     +LDI R23 , BYTE4 ( 0x4016C8B4 )
                 	__GETD1N 0x4016C8B4
000d35 940e 1974 	CALL __CMPF12
000d37 f009      	BREQ PC+2
000d38 f410      	BRCC PC+3
000d39 940c 0d3d 	JMP  _0x127
000d3b e0e5      	LDI  R30,LOW(5)
000d3c c0a0      	RJMP _0x1AD
                 ; 0000 0281         else if (temp_faza> 2.160) viz_faza=4;
                 _0x127:
000d3d 940e 1660 	CALL SUBOPT_0x3E
                +
000d3f e7e1     +LDI R30 , LOW ( 0x400A3D71 )
000d40 e3fd     +LDI R31 , HIGH ( 0x400A3D71 )
000d41 e06a     +LDI R22 , BYTE3 ( 0x400A3D71 )
000d42 e470     +LDI R23 , BYTE4 ( 0x400A3D71 )
                 	__GETD1N 0x400A3D71
000d43 940e 1974 	CALL __CMPF12
000d45 f009      	BREQ PC+2
000d46 f410      	BRCC PC+3
000d47 940c 0d4b 	JMP  _0x129
000d49 e0e4      	LDI  R30,LOW(4)
000d4a c092      	RJMP _0x1AD
                 ; 0000 0282         else if (temp_faza> 1.964) viz_faza=3;
                 _0x129:
000d4b 940e 1660 	CALL SUBOPT_0x3E
                +
000d4d e5ea     +LDI R30 , LOW ( 0x3FFB645A )
000d4e e6f4     +LDI R31 , HIGH ( 0x3FFB645A )
000d4f ef6b     +LDI R22 , BYTE3 ( 0x3FFB645A )
000d50 e37f     +LDI R23 , BYTE4 ( 0x3FFB645A )
                 	__GETD1N 0x3FFB645A
000d51 940e 1974 	CALL __CMPF12
000d53 f009      	BREQ PC+2
000d54 f410      	BRCC PC+3
000d55 940c 0d59 	JMP  _0x12B
000d57 e0e3      	LDI  R30,LOW(3)
000d58 c084      	RJMP _0x1AD
                 ; 0000 0283         else if (temp_faza> 1.768) viz_faza=2;
                 _0x12B:
000d59 940e 1660 	CALL SUBOPT_0x3E
                +
000d5b ede3     +LDI R30 , LOW ( 0x3FE24DD3 )
000d5c e4fd     +LDI R31 , HIGH ( 0x3FE24DD3 )
000d5d ee62     +LDI R22 , BYTE3 ( 0x3FE24DD3 )
000d5e e37f     +LDI R23 , BYTE4 ( 0x3FE24DD3 )
                 	__GETD1N 0x3FE24DD3
000d5f 940e 1974 	CALL __CMPF12
000d61 f009      	BREQ PC+2
000d62 f410      	BRCC PC+3
000d63 940c 0d67 	JMP  _0x12D
000d65 e0e2      	LDI  R30,LOW(2)
000d66 c076      	RJMP _0x1AD
                 ; 0000 0284         else if (temp_faza> 1.572) viz_faza=1;
                 _0x12D:
000d67 940e 1660 	CALL SUBOPT_0x3E
                +
000d69 e4ec     +LDI R30 , LOW ( 0x3FC9374C )
000d6a e3f7     +LDI R31 , HIGH ( 0x3FC9374C )
000d6b ec69     +LDI R22 , BYTE3 ( 0x3FC9374C )
000d6c e37f     +LDI R23 , BYTE4 ( 0x3FC9374C )
                 	__GETD1N 0x3FC9374C
000d6d 940e 1974 	CALL __CMPF12
000d6f f009      	BREQ PC+2
000d70 f410      	BRCC PC+3
000d71 940c 0d75 	JMP  _0x12F
000d73 e0e1      	LDI  R30,LOW(1)
000d74 c068      	RJMP _0x1AD
                 ; 0000 0285 
                 ; 0000 0286         else if (temp_faza> 1.376) viz_faza=9;
                 _0x12F:
000d75 940e 1660 	CALL SUBOPT_0x3E
                +
000d77 ece5     +LDI R30 , LOW ( 0x3FB020C5 )
000d78 e2f0     +LDI R31 , HIGH ( 0x3FB020C5 )
000d79 eb60     +LDI R22 , BYTE3 ( 0x3FB020C5 )
000d7a e37f     +LDI R23 , BYTE4 ( 0x3FB020C5 )
                 	__GETD1N 0x3FB020C5
000d7b 940e 1974 	CALL __CMPF12
000d7d f009      	BREQ PC+2
000d7e f410      	BRCC PC+3
000d7f 940c 0d83 	JMP  _0x131
000d81 e0e9      	LDI  R30,LOW(9)
000d82 c05a      	RJMP _0x1AD
                 ; 0000 0287         else if (temp_faza> 1.180) viz_faza=10;
                 _0x131:
000d83 940e 1660 	CALL SUBOPT_0x3E
                +
000d85 e3ed     +LDI R30 , LOW ( 0x3F970A3D )
000d86 e0fa     +LDI R31 , HIGH ( 0x3F970A3D )
000d87 e967     +LDI R22 , BYTE3 ( 0x3F970A3D )
000d88 e37f     +LDI R23 , BYTE4 ( 0x3F970A3D )
                 	__GETD1N 0x3F970A3D
000d89 940e 1974 	CALL __CMPF12
000d8b f009      	BREQ PC+2
000d8c f410      	BRCC PC+3
000d8d 940c 0d91 	JMP  _0x133
000d8f e0ea      	LDI  R30,LOW(10)
000d90 c04c      	RJMP _0x1AD
                 ; 0000 0288         else if (temp_faza> 0.984) viz_faza=11;
                 _0x133:
000d91 940e 1660 	CALL SUBOPT_0x3E
                +
000d93 e6ed     +LDI R30 , LOW ( 0x3F7BE76D )
000d94 eef7     +LDI R31 , HIGH ( 0x3F7BE76D )
000d95 e76b     +LDI R22 , BYTE3 ( 0x3F7BE76D )
000d96 e37f     +LDI R23 , BYTE4 ( 0x3F7BE76D )
                 	__GETD1N 0x3F7BE76D
000d97 940e 1974 	CALL __CMPF12
000d99 f009      	BREQ PC+2
000d9a f410      	BRCC PC+3
000d9b 940c 0d9f 	JMP  _0x135
000d9d e0eb      	LDI  R30,LOW(11)
000d9e c03e      	RJMP _0x1AD
                 ; 0000 0289         else if (temp_faza> 0.788) viz_faza=12;
                 _0x135:
000d9f 940e 1660 	CALL SUBOPT_0x3E
                +
000da1 e5ee     +LDI R30 , LOW ( 0x3F49BA5E )
000da2 ebfa     +LDI R31 , HIGH ( 0x3F49BA5E )
000da3 e469     +LDI R22 , BYTE3 ( 0x3F49BA5E )
000da4 e37f     +LDI R23 , BYTE4 ( 0x3F49BA5E )
                 	__GETD1N 0x3F49BA5E
000da5 940e 1974 	CALL __CMPF12
000da7 f009      	BREQ PC+2
000da8 f410      	BRCC PC+3
000da9 940c 0dad 	JMP  _0x137
000dab e0ec      	LDI  R30,LOW(12)
000dac c030      	RJMP _0x1AD
                 ; 0000 028A         else if (temp_faza> 0.592) viz_faza=13;
                 _0x137:
000dad 940e 1660 	CALL SUBOPT_0x3E
                +
000daf e5e0     +LDI R30 , LOW ( 0x3F178D50 )
000db0 e8fd     +LDI R31 , HIGH ( 0x3F178D50 )
000db1 e167     +LDI R22 , BYTE3 ( 0x3F178D50 )
000db2 e37f     +LDI R23 , BYTE4 ( 0x3F178D50 )
                 	__GETD1N 0x3F178D50
000db3 940e 1974 	CALL __CMPF12
000db5 f009      	BREQ PC+2
000db6 f410      	BRCC PC+3
000db7 940c 0dbb 	JMP  _0x139
000db9 e0ed      	LDI  R30,LOW(13)
000dba c022      	RJMP _0x1AD
                 ; 0000 028B         else if (temp_faza> 0.396) viz_faza=14;
                 _0x139:
000dbb 940e 1660 	CALL SUBOPT_0x3E
                +
000dbd e8e3     +LDI R30 , LOW ( 0x3ECAC083 )
000dbe ecf0     +LDI R31 , HIGH ( 0x3ECAC083 )
000dbf ec6a     +LDI R22 , BYTE3 ( 0x3ECAC083 )
000dc0 e37e     +LDI R23 , BYTE4 ( 0x3ECAC083 )
                 	__GETD1N 0x3ECAC083
000dc1 940e 1974 	CALL __CMPF12
000dc3 f009      	BREQ PC+2
000dc4 f410      	BRCC PC+3
000dc5 940c 0dc9 	JMP  _0x13B
000dc7 e0ee      	LDI  R30,LOW(14)
000dc8 c014      	RJMP _0x1AD
                 ; 0000 028C         else if (temp_faza> 0.200) viz_faza=15;
                 _0x13B:
000dc9 940e 1660 	CALL SUBOPT_0x3E
                +
000dcb eced     +LDI R30 , LOW ( 0x3E4CCCCD )
000dcc ecfc     +LDI R31 , HIGH ( 0x3E4CCCCD )
000dcd e46c     +LDI R22 , BYTE3 ( 0x3E4CCCCD )
000dce e37e     +LDI R23 , BYTE4 ( 0x3E4CCCCD )
                 	__GETD1N 0x3E4CCCCD
000dcf 940e 1974 	CALL __CMPF12
000dd1 f009      	BREQ PC+2
000dd2 f410      	BRCC PC+3
000dd3 940c 0dd7 	JMP  _0x13D
000dd5 e0ef      	LDI  R30,LOW(15)
000dd6 c006      	RJMP _0x1AD
                 ; 0000 028D         else if (temp_faza> 0.000) viz_faza=16;
                 _0x13D:
000dd7 940e 1660 	CALL SUBOPT_0x3E
000dd9 940e 1998 	CALL __CPD02
000ddb f414      	BRGE _0x13F
000ddc e1e0      	LDI  R30,LOW(16)
                 _0x1AD:
000ddd 2ede      	MOV  R13,R30
                 ; 0000 028E         };
                 _0x13F:
                 _0x120:
                 _0xBD:
                 ; 0000 028F 
                 ; 0000 0290       if (rezym == 1)
000dde e0a0      	LDI  R26,0
000ddf fc32      	SBRC R3,2
000de0 e0a1      	LDI  R26,1
000de1 30a1      	CPI  R26,LOW(0x1)
000de2 f011      	BREQ PC+3
000de3 940c 0ef9 	JMP _0x140
                 ; 0000 0291         {
                 ; 0000 0292         if      (Y > 160 )     viz_ampl=32;
000de5 eae0      	LDI  R30,LOW(160)
000de6 15eb      	CP   R30,R11
000de7 f418      	BRSH _0x141
000de8 e2e0      	LDI  R30,LOW(32)
000de9 2eae      	MOV  R10,R30
                 ; 0000 0293         else if (Y > 155 )     viz_ampl=31;
000dea c0be      	RJMP _0x142
                 _0x141:
000deb e9eb      	LDI  R30,LOW(155)
000dec 15eb      	CP   R30,R11
000ded f418      	BRSH _0x143
000dee e1ef      	LDI  R30,LOW(31)
000def 2eae      	MOV  R10,R30
                 ; 0000 0294         else if (Y > 150 )     viz_ampl=30;
000df0 c0b8      	RJMP _0x144
                 _0x143:
000df1 e9e6      	LDI  R30,LOW(150)
000df2 15eb      	CP   R30,R11
000df3 f418      	BRSH _0x145
000df4 e1ee      	LDI  R30,LOW(30)
000df5 2eae      	MOV  R10,R30
                 ; 0000 0295         else if (Y > 145 )     viz_ampl=29;
000df6 c0b2      	RJMP _0x146
                 _0x145:
000df7 e9e1      	LDI  R30,LOW(145)
000df8 15eb      	CP   R30,R11
000df9 f418      	BRSH _0x147
000dfa e1ed      	LDI  R30,LOW(29)
000dfb 2eae      	MOV  R10,R30
                 ; 0000 0296         else if (Y > 140 )     viz_ampl=28;
000dfc c0ac      	RJMP _0x148
                 _0x147:
000dfd e8ec      	LDI  R30,LOW(140)
000dfe 15eb      	CP   R30,R11
000dff f418      	BRSH _0x149
000e00 e1ec      	LDI  R30,LOW(28)
000e01 2eae      	MOV  R10,R30
                 ; 0000 0297         else if (Y > 135 )     viz_ampl=27;
000e02 c0a6      	RJMP _0x14A
                 _0x149:
000e03 e8e7      	LDI  R30,LOW(135)
000e04 15eb      	CP   R30,R11
000e05 f418      	BRSH _0x14B
000e06 e1eb      	LDI  R30,LOW(27)
000e07 2eae      	MOV  R10,R30
                 ; 0000 0298         else if (Y > 130 )     viz_ampl=26;
000e08 c0a0      	RJMP _0x14C
                 _0x14B:
000e09 e8e2      	LDI  R30,LOW(130)
000e0a 15eb      	CP   R30,R11
000e0b f418      	BRSH _0x14D
000e0c e1ea      	LDI  R30,LOW(26)
000e0d 2eae      	MOV  R10,R30
                 ; 0000 0299         else if (Y > 125 )     viz_ampl=25;
000e0e c09a      	RJMP _0x14E
                 _0x14D:
000e0f e7ed      	LDI  R30,LOW(125)
000e10 15eb      	CP   R30,R11
000e11 f418      	BRSH _0x14F
000e12 e1e9      	LDI  R30,LOW(25)
000e13 2eae      	MOV  R10,R30
                 ; 0000 029A         else if (Y > 120 )     viz_ampl=24;
000e14 c094      	RJMP _0x150
                 _0x14F:
000e15 e7e8      	LDI  R30,LOW(120)
000e16 15eb      	CP   R30,R11
000e17 f418      	BRSH _0x151
000e18 e1e8      	LDI  R30,LOW(24)
000e19 2eae      	MOV  R10,R30
                 ; 0000 029B         else if (Y > 115 )     viz_ampl=23;
000e1a c08e      	RJMP _0x152
                 _0x151:
000e1b e7e3      	LDI  R30,LOW(115)
000e1c 15eb      	CP   R30,R11
000e1d f418      	BRSH _0x153
000e1e e1e7      	LDI  R30,LOW(23)
000e1f 2eae      	MOV  R10,R30
                 ; 0000 029C         else if (Y > 110 )     viz_ampl=22;
000e20 c088      	RJMP _0x154
                 _0x153:
000e21 e6ee      	LDI  R30,LOW(110)
000e22 15eb      	CP   R30,R11
000e23 f418      	BRSH _0x155
000e24 e1e6      	LDI  R30,LOW(22)
000e25 2eae      	MOV  R10,R30
                 ; 0000 029D         else if (Y > 105 )     viz_ampl=21;
000e26 c082      	RJMP _0x156
                 _0x155:
000e27 e6e9      	LDI  R30,LOW(105)
000e28 15eb      	CP   R30,R11
000e29 f418      	BRSH _0x157
000e2a e1e5      	LDI  R30,LOW(21)
000e2b 2eae      	MOV  R10,R30
                 ; 0000 029E         else if (Y > 100 )     viz_ampl=20;
000e2c c07c      	RJMP _0x158
                 _0x157:
000e2d e6e4      	LDI  R30,LOW(100)
000e2e 15eb      	CP   R30,R11
000e2f f418      	BRSH _0x159
000e30 e1e4      	LDI  R30,LOW(20)
000e31 2eae      	MOV  R10,R30
                 ; 0000 029F         else if (Y > 95  )     viz_ampl=19;
000e32 c076      	RJMP _0x15A
                 _0x159:
000e33 e5ef      	LDI  R30,LOW(95)
000e34 15eb      	CP   R30,R11
000e35 f418      	BRSH _0x15B
000e36 e1e3      	LDI  R30,LOW(19)
000e37 2eae      	MOV  R10,R30
                 ; 0000 02A0         else if (Y > 90  )     viz_ampl=18; //___
000e38 c070      	RJMP _0x15C
                 _0x15B:
000e39 e5ea      	LDI  R30,LOW(90)
000e3a 15eb      	CP   R30,R11
000e3b f418      	BRSH _0x15D
000e3c e1e2      	LDI  R30,LOW(18)
000e3d 2eae      	MOV  R10,R30
                 ; 0000 02A1         else if (Y > 85  )     viz_ampl=17;
000e3e c06a      	RJMP _0x15E
                 _0x15D:
000e3f e5e5      	LDI  R30,LOW(85)
000e40 15eb      	CP   R30,R11
000e41 f418      	BRSH _0x15F
000e42 e1e1      	LDI  R30,LOW(17)
000e43 2eae      	MOV  R10,R30
                 ; 0000 02A2         else if (Y > 80  )     viz_ampl=16; //___
000e44 c064      	RJMP _0x160
                 _0x15F:
000e45 e5e0      	LDI  R30,LOW(80)
000e46 15eb      	CP   R30,R11
000e47 f418      	BRSH _0x161
000e48 e1e0      	LDI  R30,LOW(16)
000e49 2eae      	MOV  R10,R30
                 ; 0000 02A3         else if (Y > 75  )     viz_ampl=15;
000e4a c05e      	RJMP _0x162
                 _0x161:
000e4b e4eb      	LDI  R30,LOW(75)
000e4c 15eb      	CP   R30,R11
000e4d f418      	BRSH _0x163
000e4e e0ef      	LDI  R30,LOW(15)
000e4f 2eae      	MOV  R10,R30
                 ; 0000 02A4         else if (Y > 70  )     viz_ampl=14;
000e50 c058      	RJMP _0x164
                 _0x163:
000e51 e4e6      	LDI  R30,LOW(70)
000e52 15eb      	CP   R30,R11
000e53 f418      	BRSH _0x165
000e54 e0ee      	LDI  R30,LOW(14)
000e55 2eae      	MOV  R10,R30
                 ; 0000 02A5         else if (Y > 65  )     viz_ampl=13;
000e56 c052      	RJMP _0x166
                 _0x165:
000e57 e4e1      	LDI  R30,LOW(65)
000e58 15eb      	CP   R30,R11
000e59 f418      	BRSH _0x167
000e5a e0ed      	LDI  R30,LOW(13)
000e5b 2eae      	MOV  R10,R30
                 ; 0000 02A6         else if (Y > 60  )     viz_ampl=12;
000e5c c04c      	RJMP _0x168
                 _0x167:
000e5d e3ec      	LDI  R30,LOW(60)
000e5e 15eb      	CP   R30,R11
000e5f f418      	BRSH _0x169
000e60 e0ec      	LDI  R30,LOW(12)
000e61 2eae      	MOV  R10,R30
                 ; 0000 02A7         else if (Y > 55  )     viz_ampl=11;
000e62 c046      	RJMP _0x16A
                 _0x169:
000e63 e3e7      	LDI  R30,LOW(55)
000e64 15eb      	CP   R30,R11
000e65 f418      	BRSH _0x16B
000e66 e0eb      	LDI  R30,LOW(11)
000e67 2eae      	MOV  R10,R30
                 ; 0000 02A8         else if (Y > 50  )     viz_ampl=10;
000e68 c040      	RJMP _0x16C
                 _0x16B:
000e69 e3e2      	LDI  R30,LOW(50)
000e6a 15eb      	CP   R30,R11
000e6b f418      	BRSH _0x16D
000e6c e0ea      	LDI  R30,LOW(10)
000e6d 2eae      	MOV  R10,R30
                 ; 0000 02A9         else if (Y > 45  )     viz_ampl=9;
000e6e c03a      	RJMP _0x16E
                 _0x16D:
000e6f e2ed      	LDI  R30,LOW(45)
000e70 15eb      	CP   R30,R11
000e71 f418      	BRSH _0x16F
000e72 e0e9      	LDI  R30,LOW(9)
000e73 2eae      	MOV  R10,R30
                 ; 0000 02AA         else if (Y > 40  )     viz_ampl=8;
000e74 c034      	RJMP _0x170
                 _0x16F:
000e75 e2e8      	LDI  R30,LOW(40)
000e76 15eb      	CP   R30,R11
000e77 f418      	BRSH _0x171
000e78 e0e8      	LDI  R30,LOW(8)
000e79 2eae      	MOV  R10,R30
                 ; 0000 02AB         else if (Y > 35  )     viz_ampl=7;
000e7a c02e      	RJMP _0x172
                 _0x171:
000e7b e2e3      	LDI  R30,LOW(35)
000e7c 15eb      	CP   R30,R11
000e7d f418      	BRSH _0x173
000e7e e0e7      	LDI  R30,LOW(7)
000e7f 2eae      	MOV  R10,R30
                 ; 0000 02AC         else if (Y > 30  )     viz_ampl=6;
000e80 c028      	RJMP _0x174
                 _0x173:
000e81 e1ee      	LDI  R30,LOW(30)
000e82 15eb      	CP   R30,R11
000e83 f418      	BRSH _0x175
000e84 e0e6      	LDI  R30,LOW(6)
000e85 2eae      	MOV  R10,R30
                 ; 0000 02AD         else if (Y > 25  )     viz_ampl=5;
000e86 c022      	RJMP _0x176
                 _0x175:
000e87 e1e9      	LDI  R30,LOW(25)
000e88 15eb      	CP   R30,R11
000e89 f418      	BRSH _0x177
000e8a e0e5      	LDI  R30,LOW(5)
000e8b 2eae      	MOV  R10,R30
                 ; 0000 02AE         else if (Y > 20  )     viz_ampl=4;
000e8c c01c      	RJMP _0x178
                 _0x177:
000e8d e1e4      	LDI  R30,LOW(20)
000e8e 15eb      	CP   R30,R11
000e8f f418      	BRSH _0x179
000e90 e0e4      	LDI  R30,LOW(4)
000e91 2eae      	MOV  R10,R30
                 ; 0000 02AF         else if (Y > 15  )     viz_ampl=3;
000e92 c016      	RJMP _0x17A
                 _0x179:
000e93 e0ef      	LDI  R30,LOW(15)
000e94 15eb      	CP   R30,R11
000e95 f418      	BRSH _0x17B
000e96 e0e3      	LDI  R30,LOW(3)
000e97 2eae      	MOV  R10,R30
                 ; 0000 02B0         else if (Y > 10  )     viz_ampl=2;
000e98 c010      	RJMP _0x17C
                 _0x17B:
000e99 e0ea      	LDI  R30,LOW(10)
000e9a 15eb      	CP   R30,R11
000e9b f418      	BRSH _0x17D
000e9c e0e2      	LDI  R30,LOW(2)
000e9d 2eae      	MOV  R10,R30
                 ; 0000 02B1         else if (Y > 5   )     viz_ampl=1;
000e9e c00a      	RJMP _0x17E
                 _0x17D:
000e9f e0e5      	LDI  R30,LOW(5)
000ea0 15eb      	CP   R30,R11
000ea1 f418      	BRSH _0x17F
000ea2 e0e1      	LDI  R30,LOW(1)
000ea3 2eae      	MOV  R10,R30
                 ; 0000 02B2         else if (Y > 0   )     viz_ampl=0;
000ea4 c004      	RJMP _0x180
                 _0x17F:
000ea5 e0e0      	LDI  R30,LOW(0)
000ea6 15eb      	CP   R30,R11
000ea7 f408      	BRSH _0x181
000ea8 24aa      	CLR  R10
                 ; 0000 02B3 
                 ; 0000 02B4         if      (X > 150 )     viz_faza=8;
                 _0x181:
                 _0x180:
                 _0x17E:
                 _0x17C:
                 _0x17A:
                 _0x178:
                 _0x176:
                 _0x174:
                 _0x172:
                 _0x170:
                 _0x16E:
                 _0x16C:
                 _0x16A:
                 _0x168:
                 _0x166:
                 _0x164:
                 _0x162:
                 _0x160:
                 _0x15E:
                 _0x15C:
                 _0x15A:
                 _0x158:
                 _0x156:
                 _0x154:
                 _0x152:
                 _0x150:
                 _0x14E:
                 _0x14C:
                 _0x14A:
                 _0x148:
                 _0x146:
                 _0x144:
                 _0x142:
000ea9 e9e6      	LDI  R30,LOW(150)
000eaa 15e8      	CP   R30,R8
000eab f410      	BRSH _0x182
000eac e0e8      	LDI  R30,LOW(8)
000ead c04a      	RJMP _0x1AE
                 ; 0000 02B5         else if (X > 140 )     viz_faza=7;
                 _0x182:
000eae e8ec      	LDI  R30,LOW(140)
000eaf 15e8      	CP   R30,R8
000eb0 f410      	BRSH _0x184
000eb1 e0e7      	LDI  R30,LOW(7)
000eb2 c045      	RJMP _0x1AE
                 ; 0000 02B6         else if (X > 130 )     viz_faza=6;
                 _0x184:
000eb3 e8e2      	LDI  R30,LOW(130)
000eb4 15e8      	CP   R30,R8
000eb5 f410      	BRSH _0x186
000eb6 e0e6      	LDI  R30,LOW(6)
000eb7 c040      	RJMP _0x1AE
                 ; 0000 02B7         else if (X > 120 )     viz_faza=5;
                 _0x186:
000eb8 e7e8      	LDI  R30,LOW(120)
000eb9 15e8      	CP   R30,R8
000eba f410      	BRSH _0x188
000ebb e0e5      	LDI  R30,LOW(5)
000ebc c03b      	RJMP _0x1AE
                 ; 0000 02B8         else if (X > 110 )     viz_faza=4;
                 _0x188:
000ebd e6ee      	LDI  R30,LOW(110)
000ebe 15e8      	CP   R30,R8
000ebf f410      	BRSH _0x18A
000ec0 e0e4      	LDI  R30,LOW(4)
000ec1 c036      	RJMP _0x1AE
                 ; 0000 02B9         else if (X > 100 )     viz_faza=3;
                 _0x18A:
000ec2 e6e4      	LDI  R30,LOW(100)
000ec3 15e8      	CP   R30,R8
000ec4 f410      	BRSH _0x18C
000ec5 e0e3      	LDI  R30,LOW(3)
000ec6 c031      	RJMP _0x1AE
                 ; 0000 02BA         else if (X > 90  )     viz_faza=2;
                 _0x18C:
000ec7 e5ea      	LDI  R30,LOW(90)
000ec8 15e8      	CP   R30,R8
000ec9 f410      	BRSH _0x18E
000eca e0e2      	LDI  R30,LOW(2)
000ecb c02c      	RJMP _0x1AE
                 ; 0000 02BB         else if (X > 80  )     viz_faza=1;
                 _0x18E:
000ecc e5e0      	LDI  R30,LOW(80)
000ecd 15e8      	CP   R30,R8
000ece f410      	BRSH _0x190
000ecf e0e1      	LDI  R30,LOW(1)
000ed0 c027      	RJMP _0x1AE
                 ; 0000 02BC         else if (X > 70  )     viz_faza=9;
                 _0x190:
000ed1 e4e6      	LDI  R30,LOW(70)
000ed2 15e8      	CP   R30,R8
000ed3 f410      	BRSH _0x192
000ed4 e0e9      	LDI  R30,LOW(9)
000ed5 c022      	RJMP _0x1AE
                 ; 0000 02BD         else if (X > 60  )     viz_faza=10;
                 _0x192:
000ed6 e3ec      	LDI  R30,LOW(60)
000ed7 15e8      	CP   R30,R8
000ed8 f410      	BRSH _0x194
000ed9 e0ea      	LDI  R30,LOW(10)
000eda c01d      	RJMP _0x1AE
                 ; 0000 02BE         else if (X > 50  )     viz_faza=11;
                 _0x194:
000edb e3e2      	LDI  R30,LOW(50)
000edc 15e8      	CP   R30,R8
000edd f410      	BRSH _0x196
000ede e0eb      	LDI  R30,LOW(11)
000edf c018      	RJMP _0x1AE
                 ; 0000 02BF         else if (X > 40  )     viz_faza=12;
                 _0x196:
000ee0 e2e8      	LDI  R30,LOW(40)
000ee1 15e8      	CP   R30,R8
000ee2 f410      	BRSH _0x198
000ee3 e0ec      	LDI  R30,LOW(12)
000ee4 c013      	RJMP _0x1AE
                 ; 0000 02C0         else if (X > 30  )     viz_faza=13;
                 _0x198:
000ee5 e1ee      	LDI  R30,LOW(30)
000ee6 15e8      	CP   R30,R8
000ee7 f410      	BRSH _0x19A
000ee8 e0ed      	LDI  R30,LOW(13)
000ee9 c00e      	RJMP _0x1AE
                 ; 0000 02C1         else if (X > 20  )     viz_faza=14;
                 _0x19A:
000eea e1e4      	LDI  R30,LOW(20)
000eeb 15e8      	CP   R30,R8
000eec f410      	BRSH _0x19C
000eed e0ee      	LDI  R30,LOW(14)
000eee c009      	RJMP _0x1AE
                 ; 0000 02C2         else if (X > 10  )     viz_faza=15;
                 _0x19C:
000eef e0ea      	LDI  R30,LOW(10)
000ef0 15e8      	CP   R30,R8
000ef1 f410      	BRSH _0x19E
000ef2 e0ef      	LDI  R30,LOW(15)
000ef3 c004      	RJMP _0x1AE
                 ; 0000 02C3         else if (X > 0   )     viz_faza=16;
                 _0x19E:
000ef4 e0e0      	LDI  R30,LOW(0)
000ef5 15e8      	CP   R30,R8
000ef6 f410      	BRSH _0x1A0
000ef7 e1e0      	LDI  R30,LOW(16)
                 _0x1AE:
000ef8 2ede      	MOV  R13,R30
                 ; 0000 02C4         };
                 _0x1A0:
                 _0x140:
                 ; 0000 02C5 
                 ; 0000 02C6       batt_zarqd();
000ef9 940e 039f 	CALL _batt_zarqd
                 ; 0000 02C7       lcd_disp();
000efb 940e 041b 	CALL _lcd_disp
                 ; 0000 02C8       zvuk();
000efd d935      	RCALL _zvuk
                 ; 0000 02C9 
                 ; 0000 02CA       delay_ms (200);
000efe ece8      	LDI  R30,LOW(200)
000eff e0f0      	LDI  R31,HIGH(200)
000f00 93fa      	ST   -Y,R31
000f01 93ea      	ST   -Y,R30
000f02 940e 1719 	CALL _delay_ms
                 ; 0000 02CB       light=0;
000f04 9896      	CBI  0x12,6
                 ; 0000 02CC       };
000f05 cb13      	RJMP _0xB2
                 ; 0000 02CD }
                 _0x1A3:
000f06 cfff      	RJMP _0x1A3
                     .equ __lcd_direction=__lcd_port-1
                     .equ __lcd_pin=__lcd_port-2
                     .equ __lcd_rs=0
                     .equ __lcd_rd=1
                     .equ __lcd_enable=2
                     .equ __lcd_busy_flag=7
                 
                 	.DSEG
                 
                 	.CSEG
                 __lcd_delay_G100:
000f07 e0ff          ldi   r31,15
                 __lcd_delay0:
000f08 95fa          dec   r31
000f09 f7f1          brne  __lcd_delay0
000f0a 9508      	RET
                 __lcd_ready:
000f0b b3a4          in    r26,__lcd_direction
000f0c 70af          andi  r26,0xf                 ;set as input
000f0d bba4          out   __lcd_direction,r26
000f0e 9aa9          sbi   __lcd_port,__lcd_rd     ;RD=1
000f0f 98a8          cbi   __lcd_port,__lcd_rs     ;RS=0
                 __lcd_busy:
000f10 dff6      	RCALL __lcd_delay_G100
000f11 9aaa          sbi   __lcd_port,__lcd_enable ;EN=1
000f12 dff4      	RCALL __lcd_delay_G100
000f13 b3a3          in    r26,__lcd_pin
000f14 98aa          cbi   __lcd_port,__lcd_enable ;EN=0
000f15 dff1      	RCALL __lcd_delay_G100
000f16 9aaa          sbi   __lcd_port,__lcd_enable ;EN=1
000f17 dfef      	RCALL __lcd_delay_G100
000f18 98aa          cbi   __lcd_port,__lcd_enable ;EN=0
000f19 fda7          sbrc  r26,__lcd_busy_flag
000f1a cff5          rjmp  __lcd_busy
000f1b 9508      	RET
                 __lcd_write_nibble_G100:
000f1c 7fa0          andi  r26,0xf0
000f1d 2bab          or    r26,r27
000f1e bba5          out   __lcd_port,r26          ;write
000f1f 9aaa          sbi   __lcd_port,__lcd_enable ;EN=1
000f20 940e 0f07 	CALL __lcd_delay_G100
000f22 98aa          cbi   __lcd_port,__lcd_enable ;EN=0
000f23 940e 0f07 	CALL __lcd_delay_G100
000f25 9508      	RET
                 __lcd_write_data:
000f26 98a9          cbi  __lcd_port,__lcd_rd 	  ;RD=0
000f27 b3a4          in    r26,__lcd_direction
000f28 6fa7          ori   r26,0xf0 | (1<<__lcd_rs) | (1<<__lcd_rd) | (1<<__lcd_enable) ;set as output
000f29 bba4          out   __lcd_direction,r26
000f2a b3b5          in    r27,__lcd_port
000f2b 70bf          andi  r27,0xf
000f2c 81a8          ld    r26,y
000f2d dfee      	RCALL __lcd_write_nibble_G100
000f2e 81a8          ld    r26,y
000f2f 95a2          swap  r26
000f30 dfeb      	RCALL __lcd_write_nibble_G100
000f31 9aa9          sbi   __lcd_port,__lcd_rd     ;RD=1
000f32 940c 0ffa 	JMP  _0x20C0005
                 __lcd_read_nibble_G100:
000f34 9aaa          sbi   __lcd_port,__lcd_enable ;EN=1
000f35 940e 0f07 	CALL __lcd_delay_G100
000f37 b3e3          in    r30,__lcd_pin           ;read
000f38 98aa          cbi   __lcd_port,__lcd_enable ;EN=0
000f39 940e 0f07 	CALL __lcd_delay_G100
000f3b 7fe0          andi  r30,0xf0
000f3c 9508      	RET
                 _lcd_read_byte0_G100:
000f3d 940e 0f07 	CALL __lcd_delay_G100
000f3f dff4      	RCALL __lcd_read_nibble_G100
000f40 2fae          mov   r26,r30
000f41 dff2      	RCALL __lcd_read_nibble_G100
000f42 98a9          cbi   __lcd_port,__lcd_rd     ;RD=0
000f43 95e2          swap  r30
000f44 2bea          or    r30,r26
000f45 9508      	RET
                 _lcd_gotoxy:
000f46 940e 0f0b 	CALL __lcd_ready
000f48 940e 13f5 	CALL SUBOPT_0x0
000f4a 54e0      	SUBI R30,LOW(-__base_y_G100)
000f4b 4ffd      	SBCI R31,HIGH(-__base_y_G100)
000f4c 81e0      	LD   R30,Z
000f4d e0f0      	LDI  R31,0
000f4e 01df      	MOVW R26,R30
000f4f 81e9      	LDD  R30,Y+1
000f50 e0f0      	LDI  R31,0
000f51 0fea      	ADD  R30,R26
000f52 1ffb      	ADC  R31,R27
000f53 93ea      	ST   -Y,R30
000f54 940e 0f26 	CALL __lcd_write_data
000f56 81e9      	LDD  R30,Y+1
000f57 93e0 02c4 	STS  __lcd_x,R30
000f59 81e8      	LD   R30,Y
000f5a 93e0 02c5 	STS  __lcd_y,R30
000f5c 9622      	ADIW R28,2
000f5d 9508      	RET
                 _lcd_clear:
000f5e 940e 0f0b 	CALL __lcd_ready
000f60 e0e2      	LDI  R30,LOW(2)
000f61 93ea      	ST   -Y,R30
000f62 940e 0f26 	CALL __lcd_write_data
000f64 940e 0f0b 	CALL __lcd_ready
000f66 e0ec      	LDI  R30,LOW(12)
000f67 93ea      	ST   -Y,R30
000f68 940e 0f26 	CALL __lcd_write_data
000f6a 940e 0f0b 	CALL __lcd_ready
000f6c e0e1      	LDI  R30,LOW(1)
000f6d 93ea      	ST   -Y,R30
000f6e 940e 0f26 	CALL __lcd_write_data
000f70 e0e0      	LDI  R30,LOW(0)
000f71 93e0 02c5 	STS  __lcd_y,R30
000f73 93e0 02c4 	STS  __lcd_x,R30
000f75 9508      	RET
                 _lcd_putchar:
000f76 93ef          push r30
000f77 93ff          push r31
000f78 81a8          ld   r26,y
000f79 9468          set
000f7a 30aa          cpi  r26,10
000f7b f061          breq __lcd_putchar1
000f7c 94e8          clt
000f7d 91e0 02c4 	LDS  R30,__lcd_x
000f7f 5fef      	SUBI R30,-LOW(1)
000f80 93e0 02c4 	STS  __lcd_x,R30
000f82 91e0 02c6 	LDS  R30,__lcd_maxx
000f84 91a0 02c4 	LDS  R26,__lcd_x
000f86 17ea      	CP   R30,R26
000f87 f460      	BRSH _0x2000004
                 	__lcd_putchar1:
000f88 91e0 02c5 	LDS  R30,__lcd_y
000f8a 5fef      	SUBI R30,-LOW(1)
000f8b 93e0 02c5 	STS  __lcd_y,R30
000f8d e0e0      	LDI  R30,LOW(0)
000f8e 93ea      	ST   -Y,R30
000f8f 91e0 02c5 	LDS  R30,__lcd_y
000f91 93ea      	ST   -Y,R30
000f92 dfb3      	RCALL _lcd_gotoxy
000f93 f02e      	brts __lcd_putchar0
                 _0x2000004:
000f94 df76          rcall __lcd_ready
000f95 9aa8          sbi  __lcd_port,__lcd_rs ;RS=1
000f96 81a8          ld   r26,y
000f97 93aa          st   -y,r26
000f98 df8d          rcall __lcd_write_data
                 __lcd_putchar0:
000f99 91ff          pop  r31
000f9a 91ef          pop  r30
000f9b 940c 0ffa 	JMP  _0x20C0005
                 _lcd_puts:
000f9d 931a      	ST   -Y,R17
                 _0x2000005:
000f9e 81a9      	LDD  R26,Y+1
000f9f 81ba      	LDD  R27,Y+1+1
000fa0 91ed      	LD   R30,X+
000fa1 83a9      	STD  Y+1,R26
000fa2 83ba      	STD  Y+1+1,R27
000fa3 2f1e      	MOV  R17,R30
000fa4 30e0      	CPI  R30,0
000fa5 f019      	BREQ _0x2000007
000fa6 931a      	ST   -Y,R17
000fa7 dfce      	RCALL _lcd_putchar
000fa8 cff5      	RJMP _0x2000005
                 _0x2000007:
000fa9 8118      	LDD  R17,Y+0
000faa 9623      	ADIW R28,3
000fab 9508      	RET
                 __long_delay_G100:
000fac 27aa          clr   r26
000fad 27bb          clr   r27
                 __long_delay0:
000fae 9711          sbiw  r26,1         ;2 cycles
000faf f7f1          brne  __long_delay0 ;2 cycles
000fb0 9508      	RET
                 __lcd_init_write_G100:
000fb1 98a9          cbi  __lcd_port,__lcd_rd 	  ;RD=0
000fb2 b3a4          in    r26,__lcd_direction
000fb3 6fa7          ori   r26,0xf7                ;set as output
000fb4 bba4          out   __lcd_direction,r26
000fb5 b3b5          in    r27,__lcd_port
000fb6 70bf          andi  r27,0xf
000fb7 81a8          ld    r26,y
000fb8 940e 0f1c 	CALL __lcd_write_nibble_G100
000fba 9aa9          sbi   __lcd_port,__lcd_rd     ;RD=1
000fbb 940c 0ffa 	JMP  _0x20C0005
                 _lcd_init:
000fbd 98aa          cbi   __lcd_port,__lcd_enable ;EN=0
000fbe 98a8          cbi   __lcd_port,__lcd_rs     ;RS=0
000fbf 81e8      	LD   R30,Y
000fc0 93e0 02c6 	STS  __lcd_maxx,R30
000fc2 940e 13f5 	CALL SUBOPT_0x0
000fc4 58e0      	SUBI R30,LOW(-128)
000fc5 4fff      	SBCI R31,HIGH(-128)
                +
000fc6 93e0 02c2+STS __base_y_G100 + 2 , R30
                 	__PUTB1MN __base_y_G100,2
000fc8 940e 13f5 	CALL SUBOPT_0x0
000fca 54e0      	SUBI R30,LOW(-192)
000fcb 4fff      	SBCI R31,HIGH(-192)
                +
000fcc 93e0 02c3+STS __base_y_G100 + 3 , R30
                 	__PUTB1MN __base_y_G100,3
000fce 940e 1669 	CALL SUBOPT_0x3F
000fd0 940e 1669 	CALL SUBOPT_0x3F
000fd2 940e 1669 	CALL SUBOPT_0x3F
000fd4 dfd7      	RCALL __long_delay_G100
000fd5 e2e0      	LDI  R30,LOW(32)
000fd6 93ea      	ST   -Y,R30
000fd7 dfd9      	RCALL __lcd_init_write_G100
000fd8 dfd3      	RCALL __long_delay_G100
000fd9 e2e8      	LDI  R30,LOW(40)
000fda 940e 166f 	CALL SUBOPT_0x40
000fdc e0e4      	LDI  R30,LOW(4)
000fdd 940e 166f 	CALL SUBOPT_0x40
000fdf e8e5      	LDI  R30,LOW(133)
000fe0 940e 166f 	CALL SUBOPT_0x40
000fe2 b3a4          in    r26,__lcd_direction
000fe3 70af          andi  r26,0xf                 ;set as input
000fe4 bba4          out   __lcd_direction,r26
000fe5 9aa9          sbi   __lcd_port,__lcd_rd     ;RD=1
000fe6 940e 0f3d 	CALL _lcd_read_byte0_G100
000fe8 30e5      	CPI  R30,LOW(0x5)
000fe9 f011      	BREQ _0x200000B
000fea e0e0      	LDI  R30,LOW(0)
000feb c00e      	RJMP _0x20C0004
                 _0x200000B:
000fec 940e 0f0b 	CALL __lcd_ready
000fee e0e6      	LDI  R30,LOW(6)
000fef 93ea      	ST   -Y,R30
000ff0 940e 0f26 	CALL __lcd_write_data
000ff2 940e 0f5e 	CALL _lcd_clear
000ff4 e0e1      	LDI  R30,LOW(1)
000ff5 c004      	RJMP _0x20C0004
                 	#ifndef __SLEEP_DEFINED__
                 	#endif
                 
                 	.CSEG
                 _putchar:
000ff6 9b5d           sbis usr,udre
000ff7 cffe           rjmp _putchar
000ff8 81e8           ld   r30,y
000ff9 b9ec           out  udr,r30
                 _0x20C0005:
                 _0x20C0004:
000ffa 9621      	ADIW R28,1
000ffb 9508      	RET
                 __put_G101:
000ffc 931a      	ST   -Y,R17
000ffd 930a      	ST   -Y,R16
000ffe 81ac      	LDD  R26,Y+4
000fff 81bd      	LDD  R27,Y+4+1
001000 940e 17ce 	CALL __GETW1P
001002 9730      	SBIW R30,0
001003 f0d9      	BREQ _0x2020010
001004 81aa      	LDD  R26,Y+2
001005 81bb      	LDD  R27,Y+2+1
001006 940e 17ce 	CALL __GETW1P
001008 018f      	MOVW R16,R30
001009 9730      	SBIW R30,0
00100a f049      	BREQ _0x2020012
                +
00100b 3002     +CPI R16 , LOW ( 2 )
00100c e0e0     +LDI R30 , HIGH ( 2 )
00100d 071e     +CPC R17 , R30
                 	__CPWRN 16,17,2
00100e f078      	BRLO _0x2020013
00100f 01f8      	MOVW R30,R16
001010 9731      	SBIW R30,1
001011 018f      	MOVW R16,R30
001012 93ed      	ST   X+,R30
001013 93fc      	ST   X,R31
                 _0x2020012:
001014 81ac      	LDD  R26,Y+4
001015 81bd      	LDD  R27,Y+4+1
001016 91ed      	LD   R30,X+
001017 91fd      	LD   R31,X+
001018 9631      	ADIW R30,1
001019 93fe      	ST   -X,R31
00101a 93ee      	ST   -X,R30
00101b 9731      	SBIW R30,1
00101c 81ae      	LDD  R26,Y+6
00101d 83a0      	STD  Z+0,R26
                 _0x2020013:
00101e c003      	RJMP _0x2020014
                 _0x2020010:
00101f 81ee      	LDD  R30,Y+6
001020 93ea      	ST   -Y,R30
001021 dfd4      	RCALL _putchar
                 _0x2020014:
001022 8119      	LDD  R17,Y+1
001023 8108      	LDD  R16,Y+0
001024 9627      	ADIW R28,7
001025 9508      	RET
                 __print_G101:
001026 9726      	SBIW R28,6
001027 940e 199e 	CALL __SAVELOCR6
001029 e010      	LDI  R17,0
                 _0x2020015:
00102a 89ea      	LDD  R30,Y+18
00102b 89fb      	LDD  R31,Y+18+1
00102c 9631      	ADIW R30,1
00102d 8bea      	STD  Y+18,R30
00102e 8bfb      	STD  Y+18+1,R31
00102f 9731      	SBIW R30,1
001030 91e4      	LPM  R30,Z
001031 2f2e      	MOV  R18,R30
001032 30e0      	CPI  R30,0
001033 f411      	BRNE PC+3
001034 940c 11d7 	JMP _0x2020017
001036 2fe1      	MOV  R30,R17
001037 e0f0      	LDI  R31,0
001038 9730      	SBIW R30,0
001039 f439      	BRNE _0x202001B
00103a 3225      	CPI  R18,37
00103b f411      	BRNE _0x202001C
00103c e011      	LDI  R17,LOW(1)
00103d c002      	RJMP _0x202001D
                 _0x202001C:
00103e 940e 1674 	CALL SUBOPT_0x41
                 _0x202001D:
001040 c195      	RJMP _0x202001A
                 _0x202001B:
001041 30e1      	CPI  R30,LOW(0x1)
001042 e0a0      	LDI  R26,HIGH(0x1)
001043 07fa      	CPC  R31,R26
001044 f4a9      	BRNE _0x202001E
001045 3225      	CPI  R18,37
001046 f419      	BRNE _0x202001F
001047 940e 1674 	CALL SUBOPT_0x41
001049 c18b      	RJMP _0x20200BC
                 _0x202001F:
00104a e012      	LDI  R17,LOW(2)
00104b e040      	LDI  R20,LOW(0)
00104c e000      	LDI  R16,LOW(0)
00104d 322d      	CPI  R18,45
00104e f411      	BRNE _0x2020020
00104f e001      	LDI  R16,LOW(1)
001050 c185      	RJMP _0x202001A
                 _0x2020020:
001051 322b      	CPI  R18,43
001052 f411      	BRNE _0x2020021
001053 e24b      	LDI  R20,LOW(43)
001054 c181      	RJMP _0x202001A
                 _0x2020021:
001055 3220      	CPI  R18,32
001056 f411      	BRNE _0x2020022
001057 e240      	LDI  R20,LOW(32)
001058 c17d      	RJMP _0x202001A
                 _0x2020022:
001059 c004      	RJMP _0x2020023
                 _0x202001E:
00105a 30e2      	CPI  R30,LOW(0x2)
00105b e0a0      	LDI  R26,HIGH(0x2)
00105c 07fa      	CPC  R31,R26
00105d f461      	BRNE _0x2020024
                 _0x2020023:
00105e e050      	LDI  R21,LOW(0)
00105f e013      	LDI  R17,LOW(3)
001060 3320      	CPI  R18,48
001061 f439      	BRNE _0x2020025
001062 940e 167f 	CALL SUBOPT_0x42
001064 e8e0      	LDI  R30,LOW(128)
001065 e0f0      	LDI  R31,HIGH(128)
001066 2bea      	OR   R30,R26
001067 2f0e      	MOV  R16,R30
001068 c16d      	RJMP _0x202001A
                 _0x2020025:
001069 c006      	RJMP _0x2020026
                 _0x2020024:
00106a 30e3      	CPI  R30,LOW(0x3)
00106b e0a0      	LDI  R26,HIGH(0x3)
00106c 07fa      	CPC  R31,R26
00106d f011      	BREQ PC+3
00106e 940c 11d6 	JMP _0x202001A
                 _0x2020026:
001070 3320      	CPI  R18,48
001071 f010      	BRLO _0x2020029
001072 332a      	CPI  R18,58
001073 f008      	BRLO _0x202002A
                 _0x2020029:
001074 c015      	RJMP _0x2020028
                 _0x202002A:
001075 2fa5      	MOV  R26,R21
001076 e0b0      	LDI  R27,0
001077 e0ea      	LDI  R30,LOW(10)
001078 e0f0      	LDI  R31,HIGH(10)
001079 02ea      	MULS R30,R26
00107a 01f0      	MOVW R30,R0
00107b 2f5e      	MOV  R21,R30
00107c 2f65      	MOV  R22,R21
00107d 2777      	CLR  R23
00107e 2fa2      	MOV  R26,R18
00107f e0b0      	LDI  R27,0
001080 e3e0      	LDI  R30,LOW(48)
001081 e0f0      	LDI  R31,HIGH(48)
001082 940e 17e6 	CALL __SWAPW12
001084 1bea      	SUB  R30,R26
001085 0bfb      	SBC  R31,R27
001086 01db      	MOVW R26,R22
001087 0fea      	ADD  R30,R26
001088 2f5e      	MOV  R21,R30
001089 c14c      	RJMP _0x202001A
                 _0x2020028:
00108a 940e 1682 	CALL SUBOPT_0x43
00108c 36e3      	CPI  R30,LOW(0x63)
00108d e0a0      	LDI  R26,HIGH(0x63)
00108e 07fa      	CPC  R31,R26
00108f f449      	BRNE _0x202002E
001090 940e 1685 	CALL SUBOPT_0x44
001092 89e8      	LDD  R30,Y+16
001093 89f9      	LDD  R31,Y+16+1
001094 81a4      	LDD  R26,Z+4
001095 93aa      	ST   -Y,R26
001096 940e 168b 	CALL SUBOPT_0x45
001098 c13c      	RJMP _0x202002F
                 _0x202002E:
001099 37e3      	CPI  R30,LOW(0x73)
00109a e0a0      	LDI  R26,HIGH(0x73)
00109b 07fa      	CPC  R31,R26
00109c f441      	BRNE _0x2020031
00109d 940e 1685 	CALL SUBOPT_0x44
00109f 940e 1695 	CALL SUBOPT_0x46
0010a1 940e 13e0 	CALL _strlen
0010a3 2f1e      	MOV  R17,R30
0010a4 c011      	RJMP _0x2020032
                 _0x2020031:
0010a5 37e0      	CPI  R30,LOW(0x70)
0010a6 e0a0      	LDI  R26,HIGH(0x70)
0010a7 07fa      	CPC  R31,R26
0010a8 f4d9      	BRNE _0x2020034
0010a9 940e 1685 	CALL SUBOPT_0x44
0010ab 940e 1695 	CALL SUBOPT_0x46
0010ad 940e 13ea 	CALL _strlenf
0010af 2f1e      	MOV  R17,R30
0010b0 940e 167f 	CALL SUBOPT_0x42
0010b2 e0e8      	LDI  R30,LOW(8)
0010b3 e0f0      	LDI  R31,HIGH(8)
0010b4 2bea      	OR   R30,R26
0010b5 2f0e      	MOV  R16,R30
                 _0x2020032:
0010b6 940e 167f 	CALL SUBOPT_0x42
0010b8 e0e2      	LDI  R30,LOW(2)
0010b9 e0f0      	LDI  R31,HIGH(2)
0010ba 2bea      	OR   R30,R26
0010bb 2f0e      	MOV  R16,R30
0010bc 940e 167f 	CALL SUBOPT_0x42
0010be e7ef      	LDI  R30,LOW(65407)
0010bf efff      	LDI  R31,HIGH(65407)
0010c0 23ea      	AND  R30,R26
0010c1 2f0e      	MOV  R16,R30
0010c2 e030      	LDI  R19,LOW(0)
0010c3 c04f      	RJMP _0x2020035
                 _0x2020034:
0010c4 36e4      	CPI  R30,LOW(0x64)
0010c5 e0a0      	LDI  R26,HIGH(0x64)
0010c6 07fa      	CPC  R31,R26
0010c7 f021      	BREQ _0x2020038
0010c8 36e9      	CPI  R30,LOW(0x69)
0010c9 e0a0      	LDI  R26,HIGH(0x69)
0010ca 07fa      	CPC  R31,R26
0010cb f439      	BRNE _0x2020039
                 _0x2020038:
0010cc 940e 167f 	CALL SUBOPT_0x42
0010ce e0e4      	LDI  R30,LOW(4)
0010cf e0f0      	LDI  R31,HIGH(4)
0010d0 2bea      	OR   R30,R26
0010d1 2f0e      	MOV  R16,R30
0010d2 c004      	RJMP _0x202003A
                 _0x2020039:
0010d3 37e5      	CPI  R30,LOW(0x75)
0010d4 e0a0      	LDI  R26,HIGH(0x75)
0010d5 07fa      	CPC  R31,R26
0010d6 f431      	BRNE _0x202003B
                 _0x202003A:
0010d7 e5e4      	LDI  R30,LOW(_tbl10_G101*2)
0010d8 e0f0      	LDI  R31,HIGH(_tbl10_G101*2)
0010d9 83ee      	STD  Y+6,R30
0010da 83ff      	STD  Y+6+1,R31
0010db e015      	LDI  R17,LOW(5)
0010dc c016      	RJMP _0x202003C
                 _0x202003B:
0010dd 35e8      	CPI  R30,LOW(0x58)
0010de e0a0      	LDI  R26,HIGH(0x58)
0010df 07fa      	CPC  R31,R26
0010e0 f439      	BRNE _0x202003E
0010e1 940e 167f 	CALL SUBOPT_0x42
0010e3 e0e8      	LDI  R30,LOW(8)
0010e4 e0f0      	LDI  R31,HIGH(8)
0010e5 2bea      	OR   R30,R26
0010e6 2f0e      	MOV  R16,R30
0010e7 c006      	RJMP _0x202003F
                 _0x202003E:
0010e8 37e8      	CPI  R30,LOW(0x78)
0010e9 e0a0      	LDI  R26,HIGH(0x78)
0010ea 07fa      	CPC  R31,R26
0010eb f011      	BREQ PC+3
0010ec 940c 11d5 	JMP _0x2020070
                 _0x202003F:
0010ee e5ee      	LDI  R30,LOW(_tbl16_G101*2)
0010ef e0f0      	LDI  R31,HIGH(_tbl16_G101*2)
0010f0 83ee      	STD  Y+6,R30
0010f1 83ff      	STD  Y+6+1,R31
0010f2 e014      	LDI  R17,LOW(4)
                 _0x202003C:
0010f3 940e 167f 	CALL SUBOPT_0x42
0010f5 940e 169f 	CALL SUBOPT_0x47
0010f7 f0b9      	BREQ _0x2020041
0010f8 940e 1685 	CALL SUBOPT_0x44
0010fa 940e 16a5 	CALL SUBOPT_0x48
0010fc 85ab      	LDD  R26,Y+11
0010fd 23aa      	TST  R26
0010fe f43a      	BRPL _0x2020042
0010ff 85ea      	LDD  R30,Y+10
001100 85fb      	LDD  R31,Y+10+1
001101 940e 1764 	CALL __ANEGW1
001103 87ea      	STD  Y+10,R30
001104 87fb      	STD  Y+10+1,R31
001105 e24d      	LDI  R20,LOW(45)
                 _0x2020042:
001106 3040      	CPI  R20,0
001107 f011      	BREQ _0x2020043
001108 5f1f      	SUBI R17,-LOW(1)
001109 c004      	RJMP _0x2020044
                 _0x2020043:
00110a 940e 167f 	CALL SUBOPT_0x42
00110c 940e 16ad 	CALL SUBOPT_0x49
                 _0x2020044:
00110e c004      	RJMP _0x2020045
                 _0x2020041:
00110f 940e 1685 	CALL SUBOPT_0x44
001111 940e 16a5 	CALL SUBOPT_0x48
                 _0x2020045:
                 _0x2020035:
001113 940e 16b2 	CALL SUBOPT_0x4A
001115 f4e9      	BRNE _0x2020046
                 _0x2020047:
001116 1715      	CP   R17,R21
001117 f4d8      	BRSH _0x2020049
001118 940e 167f 	CALL SUBOPT_0x42
00111a e8e0      	LDI  R30,LOW(128)
00111b e0f0      	LDI  R31,HIGH(128)
00111c 23ea      	AND  R30,R26
00111d 23fb      	AND  R31,R27
00111e 9730      	SBIW R30,0
00111f f071      	BREQ _0x202004A
001120 940e 167f 	CALL SUBOPT_0x42
001122 940e 169f 	CALL SUBOPT_0x47
001124 f039      	BREQ _0x202004B
001125 940e 167f 	CALL SUBOPT_0x42
001127 940e 16ad 	CALL SUBOPT_0x49
001129 2f24      	MOV  R18,R20
00112a 5011      	SUBI R17,LOW(1)
00112b c001      	RJMP _0x202004C
                 _0x202004B:
00112c e320      	LDI  R18,LOW(48)
                 _0x202004C:
00112d c001      	RJMP _0x202004D
                 _0x202004A:
00112e e220      	LDI  R18,LOW(32)
                 _0x202004D:
00112f 940e 1674 	CALL SUBOPT_0x41
001131 5051      	SUBI R21,LOW(1)
001132 cfe3      	RJMP _0x2020047
                 _0x2020049:
                 _0x2020046:
001133 2f31      	MOV  R19,R17
001134 940e 167f 	CALL SUBOPT_0x42
001136 e0e2      	LDI  R30,LOW(2)
001137 e0f0      	LDI  R31,HIGH(2)
001138 23ea      	AND  R30,R26
001139 23fb      	AND  R31,R27
00113a 9730      	SBIW R30,0
00113b f101      	BREQ _0x202004E
                 _0x202004F:
00113c 3030      	CPI  R19,0
00113d f0e9      	BREQ _0x2020051
00113e 940e 167f 	CALL SUBOPT_0x42
001140 e0e8      	LDI  R30,LOW(8)
001141 e0f0      	LDI  R31,HIGH(8)
001142 23ea      	AND  R30,R26
001143 23fb      	AND  R31,R27
001144 9730      	SBIW R30,0
001145 f041      	BREQ _0x2020052
001146 81ee      	LDD  R30,Y+6
001147 81ff      	LDD  R31,Y+6+1
001148 9631      	ADIW R30,1
001149 83ee      	STD  Y+6,R30
00114a 83ff      	STD  Y+6+1,R31
00114b 9731      	SBIW R30,1
00114c 91e4      	LPM  R30,Z
00114d c005      	RJMP _0x20200BD
                 _0x2020052:
00114e 81ae      	LDD  R26,Y+6
00114f 81bf      	LDD  R27,Y+6+1
001150 91ed      	LD   R30,X+
001151 83ae      	STD  Y+6,R26
001152 83bf      	STD  Y+6+1,R27
                 _0x20200BD:
001153 93ea      	ST   -Y,R30
001154 940e 168b 	CALL SUBOPT_0x45
001156 3050      	CPI  R21,0
001157 f009      	BREQ _0x2020054
001158 5051      	SUBI R21,LOW(1)
                 _0x2020054:
001159 5031      	SUBI R19,LOW(1)
00115a cfe1      	RJMP _0x202004F
                 _0x2020051:
00115b c06e      	RJMP _0x2020055
                 _0x202004E:
                 _0x2020057:
00115c e320      	LDI  R18,LOW(48)
00115d 81ee      	LDD  R30,Y+6
00115e 81ff      	LDD  R31,Y+6+1
00115f 940e 17d2 	CALL __GETW1PF
001161 87e8      	STD  Y+8,R30
001162 87f9      	STD  Y+8+1,R31
001163 81ee      	LDD  R30,Y+6
001164 81ff      	LDD  R31,Y+6+1
001165 9632      	ADIW R30,2
001166 83ee      	STD  Y+6,R30
001167 83ff      	STD  Y+6+1,R31
                 _0x2020059:
001168 85e8      	LDD  R30,Y+8
001169 85f9      	LDD  R31,Y+8+1
00116a 85aa      	LDD  R26,Y+10
00116b 85bb      	LDD  R27,Y+10+1
00116c 17ae      	CP   R26,R30
00116d 07bf      	CPC  R27,R31
00116e f050      	BRLO _0x202005B
00116f 5f2f      	SUBI R18,-LOW(1)
001170 85a8      	LDD  R26,Y+8
001171 85b9      	LDD  R27,Y+8+1
001172 85ea      	LDD  R30,Y+10
001173 85fb      	LDD  R31,Y+10+1
001174 1bea      	SUB  R30,R26
001175 0bfb      	SBC  R31,R27
001176 87ea      	STD  Y+10,R30
001177 87fb      	STD  Y+10+1,R31
001178 cfef      	RJMP _0x2020059
                 _0x202005B:
001179 332a      	CPI  R18,58
00117a f080      	BRLO _0x202005C
00117b 940e 167f 	CALL SUBOPT_0x42
00117d e0e8      	LDI  R30,LOW(8)
00117e e0f0      	LDI  R31,HIGH(8)
00117f 23ea      	AND  R30,R26
001180 23fb      	AND  R31,R27
001181 9730      	SBIW R30,0
001182 f021      	BREQ _0x202005D
001183 940e 1682 	CALL SUBOPT_0x43
001185 9637      	ADIW R30,7
001186 c003      	RJMP _0x20200BE
                 _0x202005D:
001187 940e 1682 	CALL SUBOPT_0x43
001189 96b7      	ADIW R30,39
                 _0x20200BE:
00118a 2f2e      	MOV  R18,R30
                 _0x202005C:
00118b 940e 167f 	CALL SUBOPT_0x42
00118d e1e0      	LDI  R30,LOW(16)
00118e e0f0      	LDI  R31,HIGH(16)
00118f 23ea      	AND  R30,R26
001190 23fb      	AND  R31,R27
001191 9730      	SBIW R30,0
001192 f561      	BRNE _0x2020060
001193 3321      	CPI  R18,49
001194 f420      	BRSH _0x2020062
001195 85a8      	LDD  R26,Y+8
001196 85b9      	LDD  R27,Y+8+1
001197 9711      	SBIW R26,1
001198 f409      	BRNE _0x2020061
                 _0x2020062:
001199 c010      	RJMP _0x20200BF
                 _0x2020061:
00119a 1753      	CP   R21,R19
00119b f018      	BRLO _0x2020066
00119c 940e 16b2 	CALL SUBOPT_0x4A
00119e f009      	BREQ _0x2020067
                 _0x2020066:
00119f c024      	RJMP _0x2020065
                 _0x2020067:
0011a0 e220      	LDI  R18,LOW(32)
0011a1 940e 167f 	CALL SUBOPT_0x42
0011a3 e8e0      	LDI  R30,LOW(128)
0011a4 e0f0      	LDI  R31,HIGH(128)
0011a5 23ea      	AND  R30,R26
0011a6 23fb      	AND  R31,R27
0011a7 9730      	SBIW R30,0
0011a8 f0b1      	BREQ _0x2020068
0011a9 e320      	LDI  R18,LOW(48)
                 _0x20200BF:
0011aa 2fa0      	MOV  R26,R16
0011ab e0b0      	LDI  R27,0
0011ac e1e0      	LDI  R30,LOW(16)
0011ad e0f0      	LDI  R31,HIGH(16)
0011ae 2bea      	OR   R30,R26
0011af 2f0e      	MOV  R16,R30
0011b0 940e 167f 	CALL SUBOPT_0x42
0011b2 940e 169f 	CALL SUBOPT_0x47
0011b4 f051      	BREQ _0x2020069
0011b5 940e 167f 	CALL SUBOPT_0x42
0011b7 940e 16ad 	CALL SUBOPT_0x49
0011b9 934a      	ST   -Y,R20
0011ba 940e 168b 	CALL SUBOPT_0x45
0011bc 3050      	CPI  R21,0
0011bd f009      	BREQ _0x202006A
0011be 5051      	SUBI R21,LOW(1)
                 _0x202006A:
                 _0x2020069:
                 _0x2020068:
                 _0x2020060:
0011bf 940e 1674 	CALL SUBOPT_0x41
0011c1 3050      	CPI  R21,0
0011c2 f009      	BREQ _0x202006B
0011c3 5051      	SUBI R21,LOW(1)
                 _0x202006B:
                 _0x2020065:
0011c4 5031      	SUBI R19,LOW(1)
0011c5 85a8      	LDD  R26,Y+8
0011c6 85b9      	LDD  R27,Y+8+1
0011c7 9712      	SBIW R26,2
0011c8 f008      	BRLO _0x2020058
0011c9 cf92      	RJMP _0x2020057
                 _0x2020058:
                 _0x2020055:
0011ca 940e 16b2 	CALL SUBOPT_0x4A
0011cc f041      	BREQ _0x202006C
                 _0x202006D:
0011cd 3050      	CPI  R21,0
0011ce f031      	BREQ _0x202006F
0011cf 5051      	SUBI R21,LOW(1)
0011d0 e2e0      	LDI  R30,LOW(32)
0011d1 93ea      	ST   -Y,R30
0011d2 940e 168b 	CALL SUBOPT_0x45
0011d4 cff8      	RJMP _0x202006D
                 _0x202006F:
                 _0x202006C:
                 _0x2020070:
                 _0x202002F:
                 _0x20200BC:
0011d5 e010      	LDI  R17,LOW(0)
                 _0x202001A:
0011d6 ce53      	RJMP _0x2020015
                 _0x2020017:
0011d7 940e 19a5 	CALL __LOADLOCR6
0011d9 9664      	ADIW R28,20
0011da 9508      	RET
                 _sprintf:
0011db 92ff      	PUSH R15
0011dc 2ef8      	MOV  R15,R24
0011dd 9722      	SBIW R28,2
0011de 931a      	ST   -Y,R17
0011df 930a      	ST   -Y,R16
0011e0 01de      	MOVW R26,R28
0011e1 940e 175b 	CALL __ADDW2R15
0011e3 018d      	MOVW R16,R26
0011e4 01de      	MOVW R26,R28
0011e5 9616      	ADIW R26,6
0011e6 940e 175b 	CALL __ADDW2R15
0011e8 940e 17ce 	CALL __GETW1P
0011ea 83ea      	STD  Y+2,R30
0011eb 83fb      	STD  Y+2+1,R31
0011ec 01de      	MOVW R26,R28
0011ed 9614      	ADIW R26,4
0011ee 940e 175b 	CALL __ADDW2R15
0011f0 940e 17ce 	CALL __GETW1P
0011f2 93fa      	ST   -Y,R31
0011f3 93ea      	ST   -Y,R30
0011f4 931a      	ST   -Y,R17
0011f5 930a      	ST   -Y,R16
0011f6 01fe      	MOVW R30,R28
0011f7 9636      	ADIW R30,6
0011f8 93fa      	ST   -Y,R31
0011f9 93ea      	ST   -Y,R30
0011fa e0e0      	LDI  R30,LOW(0)
0011fb e0f0      	LDI  R31,HIGH(0)
0011fc 93fa      	ST   -Y,R31
0011fd 93ea      	ST   -Y,R30
0011fe de27      	RCALL __print_G101
0011ff 81aa      	LDD  R26,Y+2
001200 81bb      	LDD  R27,Y+2+1
001201 e0e0      	LDI  R30,LOW(0)
001202 93ec      	ST   X,R30
001203 8119      	LDD  R17,Y+1
001204 8108      	LDD  R16,Y+0
001205 9624      	ADIW R28,4
001206 90ff      	POP  R15
001207 9508      	RET
                 
                 	.CSEG
                 _ftrunc:
001208 817b         ldd  r23,y+3
001209 816a         ldd  r22,y+2
00120a 81f9         ldd  r31,y+1
00120b 81e8         ld   r30,y
00120c fb77         bst  r23,7
00120d 0f77         lsl  r23
00120e fd67         sbrc r22,7
00120f 6071         sbr  r23,1
001210 2f97         mov  r25,r23
001211 579e         subi r25,0x7e
001212 f081         breq __ftrunc0
001213 f078         brcs __ftrunc0
001214 3198         cpi  r25,24
001215 f490         brsh __ftrunc1
001216 27aa         clr  r26
001217 27bb         clr  r27
001218 2788         clr  r24
                 __ftrunc2:
001219 9408         sec
00121a 9587         ror  r24
00121b 95b7         ror  r27
00121c 95a7         ror  r26
00121d 959a         dec  r25
00121e f7d1         brne __ftrunc2
00121f 23ea         and  r30,r26
001220 23fb         and  r31,r27
001221 2368         and  r22,r24
001222 c005         rjmp __ftrunc1
                 __ftrunc0:
001223 94e8         clt
001224 2777         clr  r23
001225 27ee         clr  r30
001226 27ff         clr  r31
001227 2766         clr  r22
                 __ftrunc1:
001228 776f         cbr  r22,0x80
001229 9576         lsr  r23
00122a f408         brcc __ftrunc3
00122b 6860         sbr  r22,0x80
                 __ftrunc3:
00122c f977         bld  r23,7
00122d 91a9         ld   r26,y+
00122e 91b9         ld   r27,y+
00122f 9189         ld   r24,y+
001230 9199         ld   r25,y+
001231 17ea         cp   r30,r26
001232 07fb         cpc  r31,r27
001233 0768         cpc  r22,r24
001234 0779         cpc  r23,r25
001235 fb97         bst  r25,7
001236 9508         ret
                 _floor:
001237 940e 14bd 	CALL SUBOPT_0x1F
001239 940e 1208 	CALL _ftrunc
00123b 940e 14ac 	CALL SUBOPT_0x1C
00123d f419          brne __floor1
                 __floor0:
00123e 940e 14b1 	CALL SUBOPT_0x1D
001240 c0ec      	RJMP _0x20C0003
                 __floor1:
001241 f7e6          brtc __floor0
001242 940e 16b6 	CALL SUBOPT_0x4B
001244 940e 16bb 	CALL SUBOPT_0x4C
001246 c0e6      	RJMP _0x20C0003
                 _sin:
001247 940e 16c0 	CALL SUBOPT_0x4D
                +
001249 e8e3     +LDI R30 , LOW ( 0x3E22F983 )
00124a eff9     +LDI R31 , HIGH ( 0x3E22F983 )
00124b e262     +LDI R22 , BYTE3 ( 0x3E22F983 )
00124c e37e     +LDI R23 , BYTE4 ( 0x3E22F983 )
                 	__GETD1N 0x3E22F983
00124d 940e 18e1 	CALL __MULF12
00124f 940e 16c8 	CALL SUBOPT_0x4E
001251 940e 16cd 	CALL SUBOPT_0x4F
001253 940e 17d6 	CALL __PUTPARD1
001255 dfe1      	RCALL _floor
001256 940e 16d2 	CALL SUBOPT_0x50
001258 940e 14c1 	CALL SUBOPT_0x20
00125a 940e 16c8 	CALL SUBOPT_0x4E
00125c 940e 16d7 	CALL SUBOPT_0x51
00125e 940e 1974 	CALL __CMPF12
001260 f009      	BREQ PC+2
001261 f410      	BRCC PC+3
001262 940c 126b 	JMP  _0x2040017
001264 940e 16d7 	CALL SUBOPT_0x51
001266 940e 14c1 	CALL SUBOPT_0x20
001268 940e 16c8 	CALL SUBOPT_0x4E
00126a e011      	LDI  R17,LOW(1)
                 _0x2040017:
00126b 940e 16d2 	CALL SUBOPT_0x50
                +
00126d e0e0     +LDI R30 , LOW ( 0x3E800000 )
00126e e0f0     +LDI R31 , HIGH ( 0x3E800000 )
00126f e860     +LDI R22 , BYTE3 ( 0x3E800000 )
001270 e37e     +LDI R23 , BYTE4 ( 0x3E800000 )
                 	__GETD1N 0x3E800000
001271 940e 1974 	CALL __CMPF12
001273 f009      	BREQ PC+2
001274 f410      	BRCC PC+3
001275 940c 127d 	JMP  _0x2040018
001277 940e 16d7 	CALL SUBOPT_0x51
001279 940e 188c 	CALL __SUBF12
00127b 940e 16c8 	CALL SUBOPT_0x4E
                 _0x2040018:
00127d 3010      	CPI  R17,0
00127e f011      	BREQ _0x2040019
00127f 940e 16dd 	CALL SUBOPT_0x52
                 _0x2040019:
001281 940e 16e1 	CALL SUBOPT_0x53
                +
001283 83e9     +STD Y + 1 , R30
001284 83fa     +STD Y + 1 + 1 , R31
001285 836b     +STD Y + 1 + 2 , R22
001286 837c     +STD Y + 1 + 3 , R23
                 	__PUTD1S 1
001287 940e 16e6 	CALL SUBOPT_0x54
                +
001289 eba1     +LDI R26 , LOW ( 0x4226C4B1 )
00128a ecb4     +LDI R27 , HIGH ( 0x4226C4B1 )
00128b e286     +LDI R24 , BYTE3 ( 0x4226C4B1 )
00128c e492     +LDI R25 , BYTE4 ( 0x4226C4B1 )
                 	__GETD2N 0x4226C4B1
00128d 940e 18e1 	CALL __MULF12
00128f 01df      	MOVW R26,R30
001290 01cb      	MOVW R24,R22
                +
001291 e1ed     +LDI R30 , LOW ( 0x422DE51D )
001292 eef5     +LDI R31 , HIGH ( 0x422DE51D )
001293 e26d     +LDI R22 , BYTE3 ( 0x422DE51D )
001294 e472     +LDI R23 , BYTE4 ( 0x422DE51D )
                 	__GETD1N 0x422DE51D
001295 940e 14c1 	CALL SUBOPT_0x20
001297 940e 16eb 	CALL SUBOPT_0x55
                +
001299 e4ac     +LDI R26 , LOW ( 0x4104534C )
00129a e5b3     +LDI R27 , HIGH ( 0x4104534C )
00129b e084     +LDI R24 , BYTE3 ( 0x4104534C )
00129c e491     +LDI R25 , BYTE4 ( 0x4104534C )
                 	__GETD2N 0x4104534C
00129d 940e 1893 	CALL __ADDF12
00129f 940e 16d2 	CALL SUBOPT_0x50
0012a1 940e 18e1 	CALL __MULF12
0012a3 937f      	PUSH R23
0012a4 936f      	PUSH R22
0012a5 93ff      	PUSH R31
0012a6 93ef      	PUSH R30
0012a7 940e 16e6 	CALL SUBOPT_0x54
                +
0012a9 e1a1     +LDI R26 , LOW ( 0x3FDEED11 )
0012aa eebd     +LDI R27 , HIGH ( 0x3FDEED11 )
0012ab ed8e     +LDI R24 , BYTE3 ( 0x3FDEED11 )
0012ac e39f     +LDI R25 , BYTE4 ( 0x3FDEED11 )
                 	__GETD2N 0x3FDEED11
0012ad 940e 1893 	CALL __ADDF12
0012af 940e 16eb 	CALL SUBOPT_0x55
                +
0012b1 e5ae     +LDI R26 , LOW ( 0x3FA87B5E )
0012b2 e7bb     +LDI R27 , HIGH ( 0x3FA87B5E )
0012b3 ea88     +LDI R24 , BYTE3 ( 0x3FA87B5E )
0012b4 e39f     +LDI R25 , BYTE4 ( 0x3FA87B5E )
                 	__GETD2N 0x3FA87B5E
0012b5 940e 1893 	CALL __ADDF12
0012b7 91af      	POP  R26
0012b8 91bf      	POP  R27
0012b9 918f      	POP  R24
0012ba 919f      	POP  R25
0012bb 940e 192f 	CALL __DIVF21
0012bd c0cc      	RJMP _0x20C0002
                 _cos:
0012be 940e 16b6 	CALL SUBOPT_0x4B
                +
0012c0 edeb     +LDI R30 , LOW ( 0x3FC90FDB )
0012c1 e0ff     +LDI R31 , HIGH ( 0x3FC90FDB )
0012c2 ec69     +LDI R22 , BYTE3 ( 0x3FC90FDB )
0012c3 e37f     +LDI R23 , BYTE4 ( 0x3FC90FDB )
                 	__GETD1N 0x3FC90FDB
0012c4 940e 188c 	CALL __SUBF12
0012c6 940e 17d6 	CALL __PUTPARD1
0012c8 df7e      	RCALL _sin
0012c9 c063      	RJMP _0x20C0003
                 _xatan:
0012ca 9724      	SBIW R28,4
0012cb 940e 16f2 	CALL SUBOPT_0x56
0012cd 940e 16f7 	CALL SUBOPT_0x57
0012cf 940e 14ac 	CALL SUBOPT_0x1C
0012d1 940e 14b1 	CALL SUBOPT_0x1D
                +
0012d3 e6a5     +LDI R26 , LOW ( 0x40CBD065 )
0012d4 edb0     +LDI R27 , HIGH ( 0x40CBD065 )
0012d5 ec8b     +LDI R24 , BYTE3 ( 0x40CBD065 )
0012d6 e490     +LDI R25 , BYTE4 ( 0x40CBD065 )
                 	__GETD2N 0x40CBD065
0012d7 940e 16fe 	CALL SUBOPT_0x58
0012d9 940e 16f7 	CALL SUBOPT_0x57
0012db 937f      	PUSH R23
0012dc 936f      	PUSH R22
0012dd 93ff      	PUSH R31
0012de 93ef      	PUSH R30
0012df 940e 14b1 	CALL SUBOPT_0x1D
                +
0012e1 e0a0     +LDI R26 , LOW ( 0x41296D00 )
0012e2 e6bd     +LDI R27 , HIGH ( 0x41296D00 )
0012e3 e289     +LDI R24 , BYTE3 ( 0x41296D00 )
0012e4 e491     +LDI R25 , BYTE4 ( 0x41296D00 )
                 	__GETD2N 0x41296D00
0012e5 940e 1893 	CALL __ADDF12
0012e7 940e 16b6 	CALL SUBOPT_0x4B
0012e9 940e 16fe 	CALL SUBOPT_0x58
0012eb 91af      	POP  R26
0012ec 91bf      	POP  R27
0012ed 918f      	POP  R24
0012ee 919f      	POP  R25
0012ef 940e 192f 	CALL __DIVF21
0012f1 9628      	ADIW R28,8
0012f2 9508      	RET
                 _yatan:
0012f3 940e 16b6 	CALL SUBOPT_0x4B
                +
0012f5 eced     +LDI R30 , LOW ( 0x3ED413CD )
0012f6 e1f3     +LDI R31 , HIGH ( 0x3ED413CD )
0012f7 ed64     +LDI R22 , BYTE3 ( 0x3ED413CD )
0012f8 e37e     +LDI R23 , BYTE4 ( 0x3ED413CD )
                 	__GETD1N 0x3ED413CD
0012f9 940e 1974 	CALL __CMPF12
0012fb f420      	BRSH _0x2040020
0012fc 940e 14bd 	CALL SUBOPT_0x1F
0012fe dfcb      	RCALL _xatan
0012ff c02d      	RJMP _0x20C0003
                 _0x2040020:
001300 940e 16b6 	CALL SUBOPT_0x4B
                +
001302 e7ea     +LDI R30 , LOW ( 0x401A827A )
001303 e8f2     +LDI R31 , HIGH ( 0x401A827A )
001304 e16a     +LDI R22 , BYTE3 ( 0x401A827A )
001305 e470     +LDI R23 , BYTE4 ( 0x401A827A )
                 	__GETD1N 0x401A827A
001306 940e 1974 	CALL __CMPF12
001308 f009      	BREQ PC+2
001309 f410      	BRCC PC+3
00130a 940c 1314 	JMP  _0x2040021
00130c 940e 1707 	CALL SUBOPT_0x59
00130e 940e 14c6 	CALL SUBOPT_0x21
001310 dfb9      	RCALL _xatan
001311 940e 170d 	CALL SUBOPT_0x5A
001313 c019      	RJMP _0x20C0003
                 _0x2040021:
001314 940e 16b6 	CALL SUBOPT_0x4B
001316 940e 16bb 	CALL SUBOPT_0x4C
001318 937f      	PUSH R23
001319 936f      	PUSH R22
00131a 93ff      	PUSH R31
00131b 93ef      	PUSH R30
00131c 940e 1707 	CALL SUBOPT_0x59
00131e 940e 1893 	CALL __ADDF12
001320 91af      	POP  R26
001321 91bf      	POP  R27
001322 918f      	POP  R24
001323 919f      	POP  R25
001324 940e 14c6 	CALL SUBOPT_0x21
001326 dfa3      	RCALL _xatan
                +
001327 edab     +LDI R26 , LOW ( 0x3F490FDB )
001328 e0bf     +LDI R27 , HIGH ( 0x3F490FDB )
001329 e489     +LDI R24 , BYTE3 ( 0x3F490FDB )
00132a e39f     +LDI R25 , BYTE4 ( 0x3F490FDB )
                 	__GETD2N 0x3F490FDB
00132b 940e 1893 	CALL __ADDF12
                 _0x20C0003:
00132d 9624      	ADIW R28,4
00132e 9508      	RET
                 _asin:
00132f 940e 16c0 	CALL SUBOPT_0x4D
                +
001331 e0e0     +LDI R30 , LOW ( 0xBF800000 )
001332 e0f0     +LDI R31 , HIGH ( 0xBF800000 )
001333 e860     +LDI R22 , BYTE3 ( 0xBF800000 )
001334 eb7f     +LDI R23 , BYTE4 ( 0xBF800000 )
                 	__GETD1N 0xBF800000
001335 940e 1974 	CALL __CMPF12
001337 f068      	BRLO _0x2040023
001338 940e 16d2 	CALL SUBOPT_0x50
                +
00133a e0e0     +LDI R30 , LOW ( 0x3F800000 )
00133b e0f0     +LDI R31 , HIGH ( 0x3F800000 )
00133c e860     +LDI R22 , BYTE3 ( 0x3F800000 )
00133d e37f     +LDI R23 , BYTE4 ( 0x3F800000 )
                 	__GETD1N 0x3F800000
00133e 940e 1974 	CALL __CMPF12
001340 f019      	BREQ PC+4
001341 f010      	BRCS PC+3
001342 940c 1345 	JMP  _0x2040023
001344 c005      	RJMP _0x2040022
                 _0x2040023:
                +
001345 efef     +LDI R30 , LOW ( 0x7F7FFFFF )
001346 efff     +LDI R31 , HIGH ( 0x7F7FFFFF )
001347 e76f     +LDI R22 , BYTE3 ( 0x7F7FFFFF )
001348 e77f     +LDI R23 , BYTE4 ( 0x7F7FFFFF )
                 	__GETD1N 0x7F7FFFFF
001349 c040      	RJMP _0x20C0002
                 _0x2040022:
00134a 85a8      	LDD  R26,Y+8
00134b 23aa      	TST  R26
00134c f41a      	BRPL _0x2040025
00134d 940e 16dd 	CALL SUBOPT_0x52
00134f e011      	LDI  R17,LOW(1)
                 _0x2040025:
001350 940e 16e1 	CALL SUBOPT_0x53
                +
001352 e0a0     +LDI R26 , LOW ( 0x3F800000 )
001353 e0b0     +LDI R27 , HIGH ( 0x3F800000 )
001354 e880     +LDI R24 , BYTE3 ( 0x3F800000 )
001355 e39f     +LDI R25 , BYTE4 ( 0x3F800000 )
                 	__GETD2N 0x3F800000
001356 940e 14c1 	CALL SUBOPT_0x20
001358 940e 14a8 	CALL SUBOPT_0x1B
                +
00135a 83e9     +STD Y + 1 , R30
00135b 83fa     +STD Y + 1 + 1 , R31
00135c 836b     +STD Y + 1 + 2 , R22
00135d 837c     +STD Y + 1 + 3 , R23
                 	__PUTD1S 1
00135e 940e 16d2 	CALL SUBOPT_0x50
                +
001360 efe3     +LDI R30 , LOW ( 0x3F3504F3 )
001361 e0f4     +LDI R31 , HIGH ( 0x3F3504F3 )
001362 e365     +LDI R22 , BYTE3 ( 0x3F3504F3 )
001363 e37f     +LDI R23 , BYTE4 ( 0x3F3504F3 )
                 	__GETD1N 0x3F3504F3
001364 940e 1974 	CALL __CMPF12
001366 f009      	BREQ PC+2
001367 f410      	BRCC PC+3
001368 940c 1376 	JMP  _0x2040026
00136a 940e 16cd 	CALL SUBOPT_0x4F
                +
00136c 81a9     +LDD R26 , Y + 1
00136d 81ba     +LDD R27 , Y + 1 + 1
00136e 818b     +LDD R24 , Y + 1 + 2
00136f 819c     +LDD R25 , Y + 1 + 3
                 	__GETD2S 1
001370 940e 14c6 	CALL SUBOPT_0x21
001372 df80      	RCALL _yatan
001373 940e 170d 	CALL SUBOPT_0x5A
001375 c007      	RJMP _0x2040035
                 _0x2040026:
001376 940e 16e6 	CALL SUBOPT_0x54
001378 940e 16d2 	CALL SUBOPT_0x50
00137a 940e 14c6 	CALL SUBOPT_0x21
00137c df76      	RCALL _yatan
                 _0x2040035:
                +
00137d 83e9     +STD Y + 1 , R30
00137e 83fa     +STD Y + 1 + 1 , R31
00137f 836b     +STD Y + 1 + 2 , R22
001380 837c     +STD Y + 1 + 3 , R23
                 	__PUTD1S 1
001381 3010      	CPI  R17,0
001382 f029      	BREQ _0x2040028
001383 940e 16e6 	CALL SUBOPT_0x54
001385 940e 17ed 	CALL __ANEGF1
001387 c002      	RJMP _0x20C0002
                 _0x2040028:
001388 940e 16e6 	CALL SUBOPT_0x54
                 _0x20C0002:
00138a 8118      	LDD  R17,Y+0
00138b 9629      	ADIW R28,9
00138c 9508      	RET
                 _atan2:
00138d 9724      	SBIW R28,4
00138e 940e 16f2 	CALL SUBOPT_0x56
001390 940e 1994 	CALL __CPD10
001392 f4d9      	BRNE _0x204002D
                +
001393 85e8     +LDD R30 , Y + 8
001394 85f9     +LDD R31 , Y + 8 + 1
001395 856a     +LDD R22 , Y + 8 + 2
001396 857b     +LDD R23 , Y + 8 + 3
                 	__GETD1S 8
001397 940e 1994 	CALL __CPD10
001399 f429      	BRNE _0x204002E
                +
00139a efef     +LDI R30 , LOW ( 0x7F7FFFFF )
00139b efff     +LDI R31 , HIGH ( 0x7F7FFFFF )
00139c e76f     +LDI R22 , BYTE3 ( 0x7F7FFFFF )
00139d e77f     +LDI R23 , BYTE4 ( 0x7F7FFFFF )
                 	__GETD1N 0x7F7FFFFF
00139e c03f      	RJMP _0x20C0001
                 _0x204002E:
00139f 940e 149e 	CALL SUBOPT_0x19
0013a1 940e 1998 	CALL __CPD02
0013a3 f42c      	BRGE _0x204002F
                +
0013a4 edeb     +LDI R30 , LOW ( 0x3FC90FDB )
0013a5 e0ff     +LDI R31 , HIGH ( 0x3FC90FDB )
0013a6 ec69     +LDI R22 , BYTE3 ( 0x3FC90FDB )
0013a7 e37f     +LDI R23 , BYTE4 ( 0x3FC90FDB )
                 	__GETD1N 0x3FC90FDB
0013a8 c035      	RJMP _0x20C0001
                 _0x204002F:
                +
0013a9 edeb     +LDI R30 , LOW ( 0xBFC90FDB )
0013aa e0ff     +LDI R31 , HIGH ( 0xBFC90FDB )
0013ab ec69     +LDI R22 , BYTE3 ( 0xBFC90FDB )
0013ac eb7f     +LDI R23 , BYTE4 ( 0xBFC90FDB )
                 	__GETD1N 0xBFC90FDB
0013ad c030      	RJMP _0x20C0001
                 _0x204002D:
0013ae 940e 16f2 	CALL SUBOPT_0x56
0013b0 940e 149e 	CALL SUBOPT_0x19
0013b2 940e 192f 	CALL __DIVF21
0013b4 940e 14ac 	CALL SUBOPT_0x1C
                +
0013b6 81ac     +LDD R26 , Y + 4
0013b7 81bd     +LDD R27 , Y + 4 + 1
0013b8 818e     +LDD R24 , Y + 4 + 2
0013b9 819f     +LDD R25 , Y + 4 + 3
                 	__GETD2S 4
0013ba 940e 1998 	CALL __CPD02
0013bc f464      	BRGE _0x2040030
0013bd 85ab      	LDD  R26,Y+11
0013be 23aa      	TST  R26
0013bf f022      	BRMI _0x2040031
0013c0 940e 14bd 	CALL SUBOPT_0x1F
0013c2 df30      	RCALL _yatan
0013c3 c01a      	RJMP _0x20C0001
                 _0x2040031:
0013c4 940e 1712 	CALL SUBOPT_0x5B
0013c6 940e 17ed 	CALL __ANEGF1
0013c8 c015      	RJMP _0x20C0001
                 _0x2040030:
0013c9 85ab      	LDD  R26,Y+11
0013ca 23aa      	TST  R26
0013cb f04a      	BRMI _0x2040032
0013cc 940e 1712 	CALL SUBOPT_0x5B
                +
0013ce edab     +LDI R26 , LOW ( 0x40490FDB )
0013cf e0bf     +LDI R27 , HIGH ( 0x40490FDB )
0013d0 e489     +LDI R24 , BYTE3 ( 0x40490FDB )
0013d1 e490     +LDI R25 , BYTE4 ( 0x40490FDB )
                 	__GETD2N 0x40490FDB
0013d2 940e 14c1 	CALL SUBOPT_0x20
0013d4 c009      	RJMP _0x20C0001
                 _0x2040032:
0013d5 940e 14bd 	CALL SUBOPT_0x1F
0013d7 df1b      	RCALL _yatan
                +
0013d8 edab     +LDI R26 , LOW ( 0xC0490FDB )
0013d9 e0bf     +LDI R27 , HIGH ( 0xC0490FDB )
0013da e489     +LDI R24 , BYTE3 ( 0xC0490FDB )
0013db ec90     +LDI R25 , BYTE4 ( 0xC0490FDB )
                 	__GETD2N 0xC0490FDB
0013dc 940e 1893 	CALL __ADDF12
                 _0x20C0001:
0013de 962c      	ADIW R28,12
0013df 9508      	RET
                 
                 	.CSEG
                 
                 	.CSEG
                 _strlen:
0013e0 91a9          ld   r26,y+
0013e1 91b9          ld   r27,y+
0013e2 27ee          clr  r30
0013e3 27ff          clr  r31
                 strlen0:
0013e4 916d          ld   r22,x+
0013e5 2366          tst  r22
0013e6 f011          breq strlen1
0013e7 9631          adiw r30,1
0013e8 cffb          rjmp strlen0
                 strlen1:
0013e9 9508          ret
                 _strlenf:
0013ea 27aa          clr  r26
0013eb 27bb          clr  r27
0013ec 91e9          ld   r30,y+
0013ed 91f9          ld   r31,y+
                 strlenf0:
0013ee 9005          lpm  r0,z+
0013ef 2000          tst  r0
0013f0 f011          breq strlenf1
0013f1 9611          adiw r26,1
0013f2 cffb          rjmp strlenf0
                 strlenf1:
0013f3 01fd          movw r30,r26
0013f4 9508          ret
                 
                 	.CSEG
                 
                 	.DSEG
                 
                 	.CSEG
                 
                 	.DSEG
                 _string_LCD_1:
000260           	.BYTE 0x14
                 _string_LCD_2:
000274           	.BYTE 0x14
                 _gnd_ampl:
000288           	.BYTE 0x4
                 _gnd_faza:
00028c           	.BYTE 0x4
                 _rock_ampl:
000290           	.BYTE 0x4
                 _rock_faza:
000294           	.BYTE 0x4
                 _gnd_ampl_max:
000298           	.BYTE 0x4
                 _gnd_faza_max:
00029c           	.BYTE 0x4
                 _rock_ampl_max:
0002a0           	.BYTE 0x4
                 _rock_faza_max:
0002a4           	.BYTE 0x4
                 _now_ampl:
0002a8           	.BYTE 0x4
                 _now_faza:
0002ac           	.BYTE 0x4
                 _bar_rad:
0002b0           	.BYTE 0x4
                 _temp_ampl:
0002b4           	.BYTE 0x4
                 _temp_faza:
0002b8           	.BYTE 0x4
                 _batt_celoe:
0002bc           	.BYTE 0x2
                 _batt_drob:
0002be           	.BYTE 0x2
                 __base_y_G100:
0002c0           	.BYTE 0x4
                 __lcd_x:
0002c4           	.BYTE 0x1
                 __lcd_y:
0002c5           	.BYTE 0x1
                 __lcd_maxx:
0002c6           	.BYTE 0x1
                 _p_S1040024:
0002c7           	.BYTE 0x2
                 __seed_G105:
0002c9           	.BYTE 0x4
                 
                 	.CSEG
                 ;OPTIMIZER ADDED SUBROUTINE, CALLED 4 TIMES, CODE SIZE REDUCTION:3 WORDS
                 SUBOPT_0x0:
0013f5 81e8      	LD   R30,Y
0013f6 e0f0      	LDI  R31,0
0013f7 9508      	RET
                 
                 ;OPTIMIZER ADDED SUBROUTINE, CALLED 3 TIMES, CODE SIZE REDUCTION:5 WORDS
                 SUBOPT_0x1:
0013f8 e0e1      	LDI  R30,LOW(1)
0013f9 e0f0      	LDI  R31,HIGH(1)
0013fa 93fa      	ST   -Y,R31
0013fb 93ea      	ST   -Y,R30
0013fc 940c 1719 	JMP  _delay_ms
                 
                 ;OPTIMIZER ADDED SUBROUTINE, CALLED 4 TIMES, CODE SIZE REDUCTION:3 WORDS
                 SUBOPT_0x2:
0013fe e0a0      	LDI  R26,0
0013ff 9984      	SBIC 0x10,4
001400 e0a1      	LDI  R26,1
001401 30a0      	CPI  R26,LOW(0x0)
001402 9508      	RET
                 
                 ;OPTIMIZER ADDED SUBROUTINE, CALLED 4 TIMES, CODE SIZE REDUCTION:3 WORDS
                 SUBOPT_0x3:
001403 e0a0      	LDI  R26,0
001404 fc26      	SBRC R2,6
001405 e0a1      	LDI  R26,1
001406 30a1      	CPI  R26,LOW(0x1)
001407 9508      	RET
                 
                 ;OPTIMIZER ADDED SUBROUTINE, CALLED 5 TIMES, CODE SIZE REDUCTION:17 WORDS
                 SUBOPT_0x4:
001408 9a96      	SBI  0x12,6
001409 e0e0      	LDI  R30,LOW(0)
00140a 93ea      	ST   -Y,R30
00140b 93ea      	ST   -Y,R30
00140c 940c 0f46 	JMP  _lcd_gotoxy
                 
                 ;OPTIMIZER ADDED SUBROUTINE, CALLED 82 TIMES, CODE SIZE REDUCTION:159 WORDS
                 SUBOPT_0x5:
00140e e6e0      	LDI  R30,LOW(_string_LCD_1)
00140f e0f2      	LDI  R31,HIGH(_string_LCD_1)
001410 93fa      	ST   -Y,R31
001411 93ea      	ST   -Y,R30
001412 9508      	RET
                 
                 ;OPTIMIZER ADDED SUBROUTINE, CALLED 4 TIMES, CODE SIZE REDUCTION:3 WORDS
                 SUBOPT_0x6:
001413 2766      	CLR  R22
001414 2777      	CLR  R23
001415 940e 17d6 	CALL __PUTPARD1
001417 9508      	RET
                 
                 ;OPTIMIZER ADDED SUBROUTINE, CALLED 3 TIMES, CODE SIZE REDUCTION:5 WORDS
                 SUBOPT_0x7:
001418 2de9      	MOV  R30,R9
001419 27ff      	CLR  R31
00141a 2766      	CLR  R22
00141b 2777      	CLR  R23
00141c 940e 17d6 	CALL __PUTPARD1
00141e 9508      	RET
                 
                 ;OPTIMIZER ADDED SUBROUTINE, CALLED 3 TIMES, CODE SIZE REDUCTION:3 WORDS
                 SUBOPT_0x8:
00141f 93ea      	ST   -Y,R30
001420 e0e0      	LDI  R30,LOW(0)
001421 93ea      	ST   -Y,R30
001422 940c 0f46 	JMP  _lcd_gotoxy
                 
                 ;OPTIMIZER ADDED SUBROUTINE, CALLED 92 TIMES, CODE SIZE REDUCTION:179 WORDS
                 SUBOPT_0x9:
001424 e080      	LDI  R24,0
001425 940e 11db 	CALL _sprintf
001427 9624      	ADIW R28,4
001428 9508      	RET
                 
                 ;OPTIMIZER ADDED SUBROUTINE, CALLED 5 TIMES, CODE SIZE REDUCTION:37 WORDS
                 SUBOPT_0xA:
001429 940e 0f9d 	CALL _lcd_puts
00142b e0e0      	LDI  R30,LOW(0)
00142c 93ea      	ST   -Y,R30
00142d e0e1      	LDI  R30,LOW(1)
00142e 93ea      	ST   -Y,R30
00142f 940e 0f46 	CALL _lcd_gotoxy
001431 e7e4      	LDI  R30,LOW(_string_LCD_2)
001432 e0f2      	LDI  R31,HIGH(_string_LCD_2)
001433 93fa      	ST   -Y,R31
001434 93ea      	ST   -Y,R30
001435 9508      	RET
                 
                 ;OPTIMIZER ADDED SUBROUTINE, CALLED 2 TIMES, CODE SIZE REDUCTION:1 WORDS
                 SUBOPT_0xB:
001436 2de8      	MOV  R30,R8
001437 27ff      	CLR  R31
001438 2766      	CLR  R22
001439 2777      	CLR  R23
00143a 940e 17d6 	CALL __PUTPARD1
00143c 9508      	RET
                 
                 ;OPTIMIZER ADDED SUBROUTINE, CALLED 2 TIMES, CODE SIZE REDUCTION:1 WORDS
                 SUBOPT_0xC:
00143d 2deb      	MOV  R30,R11
00143e 27ff      	CLR  R31
00143f 2766      	CLR  R22
001440 2777      	CLR  R23
001441 940e 17d6 	CALL __PUTPARD1
001443 9508      	RET
                 
                 ;OPTIMIZER ADDED SUBROUTINE, CALLED 3 TIMES, CODE SIZE REDUCTION:1 WORDS
                 SUBOPT_0xD:
001444 e088      	LDI  R24,8
001445 940e 11db 	CALL _sprintf
001447 962c      	ADIW R28,12
001448 9508      	RET
                 
                 ;OPTIMIZER ADDED SUBROUTINE, CALLED 28 TIMES, CODE SIZE REDUCTION:51 WORDS
                 SUBOPT_0xE:
001449 e7e4      	LDI  R30,LOW(_string_LCD_2)
00144a e0f2      	LDI  R31,HIGH(_string_LCD_2)
00144b 93fa      	ST   -Y,R31
00144c 93ea      	ST   -Y,R30
00144d 9508      	RET
                 
                 ;OPTIMIZER ADDED SUBROUTINE, CALLED 5 TIMES, CODE SIZE REDUCTION:9 WORDS
                 SUBOPT_0xF:
00144e 93ea      	ST   -Y,R30
00144f e0e1      	LDI  R30,LOW(1)
001450 93ea      	ST   -Y,R30
001451 940c 0f46 	JMP  _lcd_gotoxy
                 
                 ;OPTIMIZER ADDED SUBROUTINE, CALLED 3 TIMES, CODE SIZE REDUCTION:1 WORDS
                 SUBOPT_0x10:
001453 e0a0      	LDI  R26,0
001454 fc30      	SBRC R3,0
001455 e0a1      	LDI  R26,1
001456 30a1      	CPI  R26,LOW(0x1)
001457 9508      	RET
                 
                 ;OPTIMIZER ADDED SUBROUTINE, CALLED 3 TIMES, CODE SIZE REDUCTION:1 WORDS
                 SUBOPT_0x11:
001458 e0a0      	LDI  R26,0
001459 fc21      	SBRC R2,1
00145a e0a1      	LDI  R26,1
00145b 30a1      	CPI  R26,LOW(0x1)
00145c 9508      	RET
                 
                 ;OPTIMIZER ADDED SUBROUTINE, CALLED 3 TIMES, CODE SIZE REDUCTION:1 WORDS
                 SUBOPT_0x12:
00145d e0a0      	LDI  R26,0
00145e fc22      	SBRC R2,2
00145f e0a1      	LDI  R26,1
001460 30a1      	CPI  R26,LOW(0x1)
001461 9508      	RET
                 
                 ;OPTIMIZER ADDED SUBROUTINE, CALLED 3 TIMES, CODE SIZE REDUCTION:13 WORDS
                 SUBOPT_0x13:
001462 93fa      	ST   -Y,R31
001463 93ea      	ST   -Y,R30
001464 91e0 0290 	LDS  R30,_rock_ampl
001466 91f0 0291 	LDS  R31,_rock_ampl+1
001468 9160 0292 	LDS  R22,_rock_ampl+2
00146a 9170 0293 	LDS  R23,_rock_ampl+3
00146c 9508      	RET
                 
                 ;OPTIMIZER ADDED SUBROUTINE, CALLED 3 TIMES, CODE SIZE REDUCTION:17 WORDS
                 SUBOPT_0x14:
00146d 940e 17d6 	CALL __PUTPARD1
00146f 91e0 0294 	LDS  R30,_rock_faza
001471 91f0 0295 	LDS  R31,_rock_faza+1
001473 9160 0296 	LDS  R22,_rock_faza+2
001475 9170 0297 	LDS  R23,_rock_faza+3
001477 940e 17d6 	CALL __PUTPARD1
001479 9508      	RET
                 
                 ;OPTIMIZER ADDED SUBROUTINE, CALLED 87 TIMES, CODE SIZE REDUCTION:169 WORDS
                 SUBOPT_0x15:
00147a 93fa      	ST   -Y,R31
00147b 93ea      	ST   -Y,R30
00147c cfa7      	RJMP SUBOPT_0x9
                 
                 ;OPTIMIZER ADDED SUBROUTINE, CALLED 3 TIMES, CODE SIZE REDUCTION:13 WORDS
                 SUBOPT_0x16:
00147d 93fa      	ST   -Y,R31
00147e 93ea      	ST   -Y,R30
00147f 91e0 0288 	LDS  R30,_gnd_ampl
001481 91f0 0289 	LDS  R31,_gnd_ampl+1
001483 9160 028a 	LDS  R22,_gnd_ampl+2
001485 9170 028b 	LDS  R23,_gnd_ampl+3
001487 9508      	RET
                 
                 ;OPTIMIZER ADDED SUBROUTINE, CALLED 3 TIMES, CODE SIZE REDUCTION:17 WORDS
                 SUBOPT_0x17:
001488 940e 17d6 	CALL __PUTPARD1
00148a 91e0 028c 	LDS  R30,_gnd_faza
00148c 91f0 028d 	LDS  R31,_gnd_faza+1
00148e 9160 028e 	LDS  R22,_gnd_faza+2
001490 9170 028f 	LDS  R23,_gnd_faza+3
001492 940e 17d6 	CALL __PUTPARD1
001494 9508      	RET
                 
                 ;OPTIMIZER ADDED SUBROUTINE, CALLED 2 TIMES, CODE SIZE REDUCTION:3 WORDS
                 SUBOPT_0x18:
                +
001495 85ec     +LDD R30 , Y + 12
001496 85fd     +LDD R31 , Y + 12 + 1
001497 856e     +LDD R22 , Y + 12 + 2
001498 857f     +LDD R23 , Y + 12 + 3
                 	__GETD1S 12
                +
001499 85ac     +LDD R26 , Y + 12
00149a 85bd     +LDD R27 , Y + 12 + 1
00149b 858e     +LDD R24 , Y + 12 + 2
00149c 859f     +LDD R25 , Y + 12 + 3
                 	__GETD2S 12
00149d 9508      	RET
                 
                 ;OPTIMIZER ADDED SUBROUTINE, CALLED 4 TIMES, CODE SIZE REDUCTION:3 WORDS
                 SUBOPT_0x19:
                +
00149e 85a8     +LDD R26 , Y + 8
00149f 85b9     +LDD R27 , Y + 8 + 1
0014a0 858a     +LDD R24 , Y + 8 + 2
0014a1 859b     +LDD R25 , Y + 8 + 3
                 	__GETD2S 8
0014a2 9508      	RET
                 
                 ;OPTIMIZER ADDED SUBROUTINE, CALLED 3 TIMES, CODE SIZE REDUCTION:9 WORDS
                 SUBOPT_0x1A:
                +
0014a3 83ec     +STD Y + 4 , R30
0014a4 83fd     +STD Y + 4 + 1 , R31
0014a5 836e     +STD Y + 4 + 2 , R22
0014a6 837f     +STD Y + 4 + 3 , R23
                 	__PUTD1S 4
0014a7 9508      	RET
                 
                 ;OPTIMIZER ADDED SUBROUTINE, CALLED 3 TIMES, CODE SIZE REDUCTION:1 WORDS
                 SUBOPT_0x1B:
0014a8 940e 17d6 	CALL __PUTPARD1
0014aa 940c 1725 	JMP  _sqrt
                 
                 ;OPTIMIZER ADDED SUBROUTINE, CALLED 5 TIMES, CODE SIZE REDUCTION:5 WORDS
                 SUBOPT_0x1C:
                +
0014ac 83e8     +STD Y + 0 , R30
0014ad 83f9     +STD Y + 0 + 1 , R31
0014ae 836a     +STD Y + 0 + 2 , R22
0014af 837b     +STD Y + 0 + 3 , R23
                 	__PUTD1S 0
0014b0 9508      	RET
                 
                 ;OPTIMIZER ADDED SUBROUTINE, CALLED 13 TIMES, CODE SIZE REDUCTION:21 WORDS
                 SUBOPT_0x1D:
                +
0014b1 81e8     +LDD R30 , Y + 0
0014b2 81f9     +LDD R31 , Y + 0 + 1
0014b3 816a     +LDD R22 , Y + 0 + 2
0014b4 817b     +LDD R23 , Y + 0 + 3
                 	__GETD1S 0
0014b5 9508      	RET
                 
                 ;OPTIMIZER ADDED SUBROUTINE, CALLED 2 TIMES, CODE SIZE REDUCTION:1 WORDS
                 SUBOPT_0x1E:
0014b6 940e 1776 	CALL __CWD1
0014b8 940e 1859 	CALL __CDF1
0014ba 940e 17d6 	CALL __PUTPARD1
0014bc 9508      	RET
                 
                 ;OPTIMIZER ADDED SUBROUTINE, CALLED 5 TIMES, CODE SIZE REDUCTION:5 WORDS
                 SUBOPT_0x1F:
0014bd dff3      	RCALL SUBOPT_0x1D
0014be 940e 17d6 	CALL __PUTPARD1
0014c0 9508      	RET
                 
                 ;OPTIMIZER ADDED SUBROUTINE, CALLED 10 TIMES, CODE SIZE REDUCTION:15 WORDS
                 SUBOPT_0x20:
0014c1 940e 17e0 	CALL __SWAPD12
0014c3 940e 188c 	CALL __SUBF12
0014c5 9508      	RET
                 
                 ;OPTIMIZER ADDED SUBROUTINE, CALLED 5 TIMES, CODE SIZE REDUCTION:5 WORDS
                 SUBOPT_0x21:
0014c6 940e 192f 	CALL __DIVF21
0014c8 940e 17d6 	CALL __PUTPARD1
0014ca 9508      	RET
                 
                 ;OPTIMIZER ADDED SUBROUTINE, CALLED 3 TIMES, CODE SIZE REDUCTION:1 WORDS
                 SUBOPT_0x22:
0014cb 940e 03bb 	CALL _kn_klava
0014cd 940c 041b 	JMP  _lcd_disp
                 
                 ;OPTIMIZER ADDED SUBROUTINE, CALLED 6 TIMES, CODE SIZE REDUCTION:67 WORDS
                 SUBOPT_0x23:
0014cf 2deb      	MOV  R30,R11
0014d0 e0f0      	LDI  R31,0
0014d1 93fa      	ST   -Y,R31
0014d2 93ea      	ST   -Y,R30
0014d3 2de8      	MOV  R30,R8
0014d4 e0f0      	LDI  R31,0
0014d5 93fa      	ST   -Y,R31
0014d6 93ea      	ST   -Y,R30
0014d7 925a      	ST   -Y,R5
0014d8 924a      	ST   -Y,R4
0014d9 927a      	ST   -Y,R7
0014da 926a      	ST   -Y,R6
0014db 9508      	RET
                 
                 ;OPTIMIZER ADDED SUBROUTINE, CALLED 5 TIMES, CODE SIZE REDUCTION:21 WORDS
                 SUBOPT_0x24:
0014dc 93e0 02b4 	STS  _temp_ampl,R30
0014de 93f0 02b5 	STS  _temp_ampl+1,R31
0014e0 9360 02b6 	STS  _temp_ampl+2,R22
0014e2 9370 02b7 	STS  _temp_ampl+3,R23
0014e4 9508      	RET
                 
                 ;OPTIMIZER ADDED SUBROUTINE, CALLED 2 TIMES, CODE SIZE REDUCTION:3 WORDS
                 SUBOPT_0x25:
0014e5 93e0 02a8 	STS  _now_ampl,R30
0014e7 93f0 02a9 	STS  _now_ampl+1,R31
0014e9 9360 02aa 	STS  _now_ampl+2,R22
0014eb 9370 02ab 	STS  _now_ampl+3,R23
0014ed 9508      	RET
                 
                 ;OPTIMIZER ADDED SUBROUTINE, CALLED 2 TIMES, CODE SIZE REDUCTION:3 WORDS
                 SUBOPT_0x26:
0014ee 93e0 02ac 	STS  _now_faza,R30
0014f0 93f0 02ad 	STS  _now_faza+1,R31
0014f2 9360 02ae 	STS  _now_faza+2,R22
0014f4 9370 02af 	STS  _now_faza+3,R23
0014f6 9508      	RET
                 
                 ;OPTIMIZER ADDED SUBROUTINE, CALLED 4 TIMES, CODE SIZE REDUCTION:15 WORDS
                 SUBOPT_0x27:
0014f7 91e0 02b0 	LDS  R30,_bar_rad
0014f9 91f0 02b1 	LDS  R31,_bar_rad+1
0014fb 9160 02b2 	LDS  R22,_bar_rad+2
0014fd 9170 02b3 	LDS  R23,_bar_rad+3
0014ff 9508      	RET
                 
                 ;OPTIMIZER ADDED SUBROUTINE, CALLED 2 TIMES, CODE SIZE REDUCTION:21 WORDS
                 SUBOPT_0x28:
001500 91a0 029c 	LDS  R26,_gnd_faza_max
001502 91b0 029d 	LDS  R27,_gnd_faza_max+1
001504 9180 029e 	LDS  R24,_gnd_faza_max+2
001506 9190 029f 	LDS  R25,_gnd_faza_max+3
001508 940e 1893 	CALL __ADDF12
                +
00150a e0aa     +LDI R26 , LOW ( 0x3BA3D70A )
00150b edb7     +LDI R27 , HIGH ( 0x3BA3D70A )
00150c ea83     +LDI R24 , BYTE3 ( 0x3BA3D70A )
00150d e39b     +LDI R25 , BYTE4 ( 0x3BA3D70A )
                 	__GETD2N 0x3BA3D70A
00150e 940e 1893 	CALL __ADDF12
001510 91a0 02ac 	LDS  R26,_now_faza
001512 91b0 02ad 	LDS  R27,_now_faza+1
001514 9180 02ae 	LDS  R24,_now_faza+2
001516 9190 02af 	LDS  R25,_now_faza+3
001518 940e 1974 	CALL __CMPF12
00151a 9508      	RET
                 
                 ;OPTIMIZER ADDED SUBROUTINE, CALLED 4 TIMES, CODE SIZE REDUCTION:15 WORDS
                 SUBOPT_0x29:
00151b 91a0 02b0 	LDS  R26,_bar_rad
00151d 91b0 02b1 	LDS  R27,_bar_rad+1
00151f 9180 02b2 	LDS  R24,_bar_rad+2
001521 9190 02b3 	LDS  R25,_bar_rad+3
001523 9508      	RET
                 
                 ;OPTIMIZER ADDED SUBROUTINE, CALLED 2 TIMES, CODE SIZE REDUCTION:21 WORDS
                 SUBOPT_0x2A:
001524 91e0 029c 	LDS  R30,_gnd_faza_max
001526 91f0 029d 	LDS  R31,_gnd_faza_max+1
001528 9160 029e 	LDS  R22,_gnd_faza_max+2
00152a 9170 029f 	LDS  R23,_gnd_faza_max+3
00152c 940e 188c 	CALL __SUBF12
                +
00152e e0aa     +LDI R26 , LOW ( 0x3BA3D70A )
00152f edb7     +LDI R27 , HIGH ( 0x3BA3D70A )
001530 ea83     +LDI R24 , BYTE3 ( 0x3BA3D70A )
001531 e39b     +LDI R25 , BYTE4 ( 0x3BA3D70A )
                 	__GETD2N 0x3BA3D70A
001532 940e 1893 	CALL __ADDF12
001534 91a0 02ac 	LDS  R26,_now_faza
001536 91b0 02ad 	LDS  R27,_now_faza+1
001538 9180 02ae 	LDS  R24,_now_faza+2
00153a 9190 02af 	LDS  R25,_now_faza+3
00153c 940e 1974 	CALL __CMPF12
00153e 9508      	RET
                 
                 ;OPTIMIZER ADDED SUBROUTINE, CALLED 8 TIMES, CODE SIZE REDUCTION:39 WORDS
                 SUBOPT_0x2B:
00153f 91a0 02a8 	LDS  R26,_now_ampl
001541 91b0 02a9 	LDS  R27,_now_ampl+1
001543 9180 02aa 	LDS  R24,_now_ampl+2
001545 9190 02ab 	LDS  R25,_now_ampl+3
001547 9508      	RET
                 
                 ;OPTIMIZER ADDED SUBROUTINE, CALLED 2 TIMES, CODE SIZE REDUCTION:13 WORDS
                 SUBOPT_0x2C:
                +
001548 eae4     +LDI R30 , LOW ( 0x3F7D70A4 )
001549 e7f0     +LDI R31 , HIGH ( 0x3F7D70A4 )
00154a e76d     +LDI R22 , BYTE3 ( 0x3F7D70A4 )
00154b e37f     +LDI R23 , BYTE4 ( 0x3F7D70A4 )
                 	__GETD1N 0x3F7D70A4
00154c 940e 18e1 	CALL __MULF12
00154e 01df      	MOVW R26,R30
00154f 01cb      	MOVW R24,R22
001550 91e0 0288 	LDS  R30,_gnd_ampl
001552 91f0 0289 	LDS  R31,_gnd_ampl+1
001554 9160 028a 	LDS  R22,_gnd_ampl+2
001556 9170 028b 	LDS  R23,_gnd_ampl+3
001558 940e 1974 	CALL __CMPF12
00155a 9508      	RET
                 
                 ;OPTIMIZER ADDED SUBROUTINE, CALLED 2 TIMES, CODE SIZE REDUCTION:15 WORDS
                 SUBOPT_0x2D:
00155b dfe3      	RCALL SUBOPT_0x2B
                +
00155c eaee     +LDI R30 , LOW ( 0x3F8147AE )
00155d e4f7     +LDI R31 , HIGH ( 0x3F8147AE )
00155e e861     +LDI R22 , BYTE3 ( 0x3F8147AE )
00155f e37f     +LDI R23 , BYTE4 ( 0x3F8147AE )
                 	__GETD1N 0x3F8147AE
001560 940e 18e1 	CALL __MULF12
001562 01df      	MOVW R26,R30
001563 01cb      	MOVW R24,R22
001564 91e0 0288 	LDS  R30,_gnd_ampl
001566 91f0 0289 	LDS  R31,_gnd_ampl+1
001568 9160 028a 	LDS  R22,_gnd_ampl+2
00156a 9170 028b 	LDS  R23,_gnd_ampl+3
00156c 940e 1974 	CALL __CMPF12
00156e 9508      	RET
                 
                 ;OPTIMIZER ADDED SUBROUTINE, CALLED 9 TIMES, CODE SIZE REDUCTION:45 WORDS
                 SUBOPT_0x2E:
00156f 91e0 02a8 	LDS  R30,_now_ampl
001571 91f0 02a9 	LDS  R31,_now_ampl+1
001573 9160 02aa 	LDS  R22,_now_ampl+2
001575 9170 02ab 	LDS  R23,_now_ampl+3
001577 9508      	RET
                 
                 ;OPTIMIZER ADDED SUBROUTINE, CALLED 2 TIMES, CODE SIZE REDUCTION:19 WORDS
                 SUBOPT_0x2F:
001578 93e0 0288 	STS  _gnd_ampl,R30
00157a 93f0 0289 	STS  _gnd_ampl+1,R31
00157c 9360 028a 	STS  _gnd_ampl+2,R22
00157e 9370 028b 	STS  _gnd_ampl+3,R23
001580 91e0 02ac 	LDS  R30,_now_faza
001582 91f0 02ad 	LDS  R31,_now_faza+1
001584 9160 02ae 	LDS  R22,_now_faza+2
001586 9170 02af 	LDS  R23,_now_faza+3
001588 93e0 028c 	STS  _gnd_faza,R30
00158a 93f0 028d 	STS  _gnd_faza+1,R31
00158c 9360 028e 	STS  _gnd_faza+2,R22
00158e 9370 028f 	STS  _gnd_faza+3,R23
001590 9508      	RET
                 
                 ;OPTIMIZER ADDED SUBROUTINE, CALLED 4 TIMES, CODE SIZE REDUCTION:33 WORDS
                 SUBOPT_0x30:
001591 dfdd      	RCALL SUBOPT_0x2E
001592 940e 17d6 	CALL __PUTPARD1
001594 91e0 02ac 	LDS  R30,_now_faza
001596 91f0 02ad 	LDS  R31,_now_faza+1
001598 9160 02ae 	LDS  R22,_now_faza+2
00159a 9170 02af 	LDS  R23,_now_faza+3
00159c 940e 17d6 	CALL __PUTPARD1
00159e 9508      	RET
                 
                 ;OPTIMIZER ADDED SUBROUTINE, CALLED 2 TIMES, CODE SIZE REDUCTION:5 WORDS
                 SUBOPT_0x31:
00159f 91e0 0288 	LDS  R30,_gnd_ampl
0015a1 91f0 0289 	LDS  R31,_gnd_ampl+1
0015a3 9160 028a 	LDS  R22,_gnd_ampl+2
0015a5 9170 028b 	LDS  R23,_gnd_ampl+3
0015a7 cee0      	RJMP SUBOPT_0x17
                 
                 ;OPTIMIZER ADDED SUBROUTINE, CALLED 4 TIMES, CODE SIZE REDUCTION:51 WORDS
                 SUBOPT_0x32:
0015a8 91e0 02b4 	LDS  R30,_temp_ampl
0015aa 91f0 02b5 	LDS  R31,_temp_ampl+1
0015ac 9160 02b6 	LDS  R22,_temp_ampl+2
0015ae 9170 02b7 	LDS  R23,_temp_ampl+3
0015b0 940e 17d6 	CALL __PUTPARD1
0015b2 2deb      	MOV  R30,R11
0015b3 e0f0      	LDI  R31,0
0015b4 93fa      	ST   -Y,R31
0015b5 93ea      	ST   -Y,R30
0015b6 2de8      	MOV  R30,R8
0015b7 e0f0      	LDI  R31,0
0015b8 9508      	RET
                 
                 ;OPTIMIZER ADDED SUBROUTINE, CALLED 8 TIMES, CODE SIZE REDUCTION:11 WORDS
                 SUBOPT_0x33:
0015b9 940e 1822 	CALL __CFD1
0015bb 93fa      	ST   -Y,R31
0015bc 93ea      	ST   -Y,R30
0015bd 9508      	RET
                 
                 ;OPTIMIZER ADDED SUBROUTINE, CALLED 2 TIMES, CODE SIZE REDUCTION:5 WORDS
                 SUBOPT_0x34:
0015be 91e0 028c 	LDS  R30,_gnd_faza
0015c0 91f0 028d 	LDS  R31,_gnd_faza+1
0015c2 9160 028e 	LDS  R22,_gnd_faza+2
0015c4 9170 028f 	LDS  R23,_gnd_faza+3
0015c6 cff2      	RJMP SUBOPT_0x33
                 
                 ;OPTIMIZER ADDED SUBROUTINE, CALLED 2 TIMES, CODE SIZE REDUCTION:23 WORDS
                 SUBOPT_0x35:
0015c7 df2f      	RCALL SUBOPT_0x27
0015c8 91a0 02a4 	LDS  R26,_rock_faza_max
0015ca 91b0 02a5 	LDS  R27,_rock_faza_max+1
0015cc 9180 02a6 	LDS  R24,_rock_faza_max+2
0015ce 9190 02a7 	LDS  R25,_rock_faza_max+3
0015d0 940e 1893 	CALL __ADDF12
                +
0015d2 e0aa     +LDI R26 , LOW ( 0x3BA3D70A )
0015d3 edb7     +LDI R27 , HIGH ( 0x3BA3D70A )
0015d4 ea83     +LDI R24 , BYTE3 ( 0x3BA3D70A )
0015d5 e39b     +LDI R25 , BYTE4 ( 0x3BA3D70A )
                 	__GETD2N 0x3BA3D70A
0015d6 940e 1893 	CALL __ADDF12
0015d8 91a0 02ac 	LDS  R26,_now_faza
0015da 91b0 02ad 	LDS  R27,_now_faza+1
0015dc 9180 02ae 	LDS  R24,_now_faza+2
0015de 9190 02af 	LDS  R25,_now_faza+3
0015e0 940e 1974 	CALL __CMPF12
0015e2 9508      	RET
                 
                 ;OPTIMIZER ADDED SUBROUTINE, CALLED 2 TIMES, CODE SIZE REDUCTION:23 WORDS
                 SUBOPT_0x36:
0015e3 df37      	RCALL SUBOPT_0x29
0015e4 91e0 02a4 	LDS  R30,_rock_faza_max
0015e6 91f0 02a5 	LDS  R31,_rock_faza_max+1
0015e8 9160 02a6 	LDS  R22,_rock_faza_max+2
0015ea 9170 02a7 	LDS  R23,_rock_faza_max+3
0015ec 940e 188c 	CALL __SUBF12
                +
0015ee e0aa     +LDI R26 , LOW ( 0x3BA3D70A )
0015ef edb7     +LDI R27 , HIGH ( 0x3BA3D70A )
0015f0 ea83     +LDI R24 , BYTE3 ( 0x3BA3D70A )
0015f1 e39b     +LDI R25 , BYTE4 ( 0x3BA3D70A )
                 	__GETD2N 0x3BA3D70A
0015f2 940e 1893 	CALL __ADDF12
0015f4 91a0 02ac 	LDS  R26,_now_faza
0015f6 91b0 02ad 	LDS  R27,_now_faza+1
0015f8 9180 02ae 	LDS  R24,_now_faza+2
0015fa 9190 02af 	LDS  R25,_now_faza+3
0015fc 940e 1974 	CALL __CMPF12
0015fe 9508      	RET
                 
                 ;OPTIMIZER ADDED SUBROUTINE, CALLED 2 TIMES, CODE SIZE REDUCTION:15 WORDS
                 SUBOPT_0x37:
0015ff df3f      	RCALL SUBOPT_0x2B
                +
001600 e3e3     +LDI R30 , LOW ( 0x3F733333 )
001601 e3f3     +LDI R31 , HIGH ( 0x3F733333 )
001602 e763     +LDI R22 , BYTE3 ( 0x3F733333 )
001603 e37f     +LDI R23 , BYTE4 ( 0x3F733333 )
                 	__GETD1N 0x3F733333
001604 940e 18e1 	CALL __MULF12
001606 01df      	MOVW R26,R30
001607 01cb      	MOVW R24,R22
001608 91e0 0290 	LDS  R30,_rock_ampl
00160a 91f0 0291 	LDS  R31,_rock_ampl+1
00160c 9160 0292 	LDS  R22,_rock_ampl+2
00160e 9170 0293 	LDS  R23,_rock_ampl+3
001610 940e 1974 	CALL __CMPF12
001612 9508      	RET
                 
                 ;OPTIMIZER ADDED SUBROUTINE, CALLED 2 TIMES, CODE SIZE REDUCTION:15 WORDS
                 SUBOPT_0x38:
001613 df2b      	RCALL SUBOPT_0x2B
                +
001614 e6e6     +LDI R30 , LOW ( 0x3F866666 )
001615 e6f6     +LDI R31 , HIGH ( 0x3F866666 )
001616 e866     +LDI R22 , BYTE3 ( 0x3F866666 )
001617 e37f     +LDI R23 , BYTE4 ( 0x3F866666 )
                 	__GETD1N 0x3F866666
001618 940e 18e1 	CALL __MULF12
00161a 01df      	MOVW R26,R30
00161b 01cb      	MOVW R24,R22
00161c 91e0 0290 	LDS  R30,_rock_ampl
00161e 91f0 0291 	LDS  R31,_rock_ampl+1
001620 9160 0292 	LDS  R22,_rock_ampl+2
001622 9170 0293 	LDS  R23,_rock_ampl+3
001624 940e 1974 	CALL __CMPF12
001626 9508      	RET
                 
                 ;OPTIMIZER ADDED SUBROUTINE, CALLED 2 TIMES, CODE SIZE REDUCTION:21 WORDS
                 SUBOPT_0x39:
001627 df47      	RCALL SUBOPT_0x2E
001628 93e0 0290 	STS  _rock_ampl,R30
00162a 93f0 0291 	STS  _rock_ampl+1,R31
00162c 9360 0292 	STS  _rock_ampl+2,R22
00162e 9370 0293 	STS  _rock_ampl+3,R23
001630 91e0 02ac 	LDS  R30,_now_faza
001632 91f0 02ad 	LDS  R31,_now_faza+1
001634 9160 02ae 	LDS  R22,_now_faza+2
001636 9170 02af 	LDS  R23,_now_faza+3
001638 93e0 0294 	STS  _rock_faza,R30
00163a 93f0 0295 	STS  _rock_faza+1,R31
00163c 9360 0296 	STS  _rock_faza+2,R22
00163e 9370 0297 	STS  _rock_faza+3,R23
001640 9508      	RET
                 
                 ;OPTIMIZER ADDED SUBROUTINE, CALLED 2 TIMES, CODE SIZE REDUCTION:5 WORDS
                 SUBOPT_0x3A:
001641 91e0 0290 	LDS  R30,_rock_ampl
001643 91f0 0291 	LDS  R31,_rock_ampl+1
001645 9160 0292 	LDS  R22,_rock_ampl+2
001647 9170 0293 	LDS  R23,_rock_ampl+3
001649 ce23      	RJMP SUBOPT_0x14
                 
                 ;OPTIMIZER ADDED SUBROUTINE, CALLED 3 TIMES, CODE SIZE REDUCTION:5 WORDS
                 SUBOPT_0x3B:
00164a 940e 08b5 	CALL _th_cos
00164c de8f      	RCALL SUBOPT_0x24
00164d cf5a      	RJMP SUBOPT_0x32
                 
                 ;OPTIMIZER ADDED SUBROUTINE, CALLED 2 TIMES, CODE SIZE REDUCTION:5 WORDS
                 SUBOPT_0x3C:
00164e 91e0 0294 	LDS  R30,_rock_faza
001650 91f0 0295 	LDS  R31,_rock_faza+1
001652 9160 0296 	LDS  R22,_rock_faza+2
001654 9170 0297 	LDS  R23,_rock_faza+3
001656 cf62      	RJMP SUBOPT_0x33
                 
                 ;OPTIMIZER ADDED SUBROUTINE, CALLED 33 TIMES, CODE SIZE REDUCTION:189 WORDS
                 SUBOPT_0x3D:
001657 91a0 02b4 	LDS  R26,_temp_ampl
001659 91b0 02b5 	LDS  R27,_temp_ampl+1
00165b 9180 02b6 	LDS  R24,_temp_ampl+2
00165d 9190 02b7 	LDS  R25,_temp_ampl+3
00165f 9508      	RET
                 
                 ;OPTIMIZER ADDED SUBROUTINE, CALLED 17 TIMES, CODE SIZE REDUCTION:93 WORDS
                 SUBOPT_0x3E:
001660 91a0 02b8 	LDS  R26,_temp_faza
001662 91b0 02b9 	LDS  R27,_temp_faza+1
001664 9180 02ba 	LDS  R24,_temp_faza+2
001666 9190 02bb 	LDS  R25,_temp_faza+3
001668 9508      	RET
                 
                 ;OPTIMIZER ADDED SUBROUTINE, CALLED 3 TIMES, CODE SIZE REDUCTION:5 WORDS
                 SUBOPT_0x3F:
001669 940e 0fac 	CALL __long_delay_G100
00166b e3e0      	LDI  R30,LOW(48)
00166c 93ea      	ST   -Y,R30
00166d 940c 0fb1 	JMP  __lcd_init_write_G100
                 
                 ;OPTIMIZER ADDED SUBROUTINE, CALLED 3 TIMES, CODE SIZE REDUCTION:3 WORDS
                 SUBOPT_0x40:
00166f 93ea      	ST   -Y,R30
001670 940e 0f26 	CALL __lcd_write_data
001672 940c 0fac 	JMP  __long_delay_G100
                 
                 ;OPTIMIZER ADDED SUBROUTINE, CALLED 4 TIMES, CODE SIZE REDUCTION:24 WORDS
                 SUBOPT_0x41:
001674 932a      	ST   -Y,R18
001675 85ef      	LDD  R30,Y+15
001676 89f8      	LDD  R31,Y+15+1
001677 93fa      	ST   -Y,R31
001678 93ea      	ST   -Y,R30
001679 01fe      	MOVW R30,R28
00167a 963f      	ADIW R30,15
00167b 93fa      	ST   -Y,R31
00167c 93ea      	ST   -Y,R30
00167d 940c 0ffc 	JMP  __put_G101
                 
                 ;OPTIMIZER ADDED SUBROUTINE, CALLED 18 TIMES, CODE SIZE REDUCTION:31 WORDS
                 SUBOPT_0x42:
00167f 2fa0      	MOV  R26,R16
001680 e0b0      	LDI  R27,0
001681 9508      	RET
                 
                 ;OPTIMIZER ADDED SUBROUTINE, CALLED 3 TIMES, CODE SIZE REDUCTION:1 WORDS
                 SUBOPT_0x43:
001682 2fe2      	MOV  R30,R18
001683 e0f0      	LDI  R31,0
001684 9508      	RET
                 
                 ;OPTIMIZER ADDED SUBROUTINE, CALLED 5 TIMES, CODE SIZE REDUCTION:9 WORDS
                 SUBOPT_0x44:
001685 89e8      	LDD  R30,Y+16
001686 89f9      	LDD  R31,Y+16+1
001687 9734      	SBIW R30,4
001688 8be8      	STD  Y+16,R30
001689 8bf9      	STD  Y+16+1,R31
00168a 9508      	RET
                 
                 ;OPTIMIZER ADDED SUBROUTINE, CALLED 4 TIMES, CODE SIZE REDUCTION:21 WORDS
                 SUBOPT_0x45:
00168b 85ef      	LDD  R30,Y+15
00168c 89f8      	LDD  R31,Y+15+1
00168d 93fa      	ST   -Y,R31
00168e 93ea      	ST   -Y,R30
00168f 01fe      	MOVW R30,R28
001690 963f      	ADIW R30,15
001691 93fa      	ST   -Y,R31
001692 93ea      	ST   -Y,R30
001693 940c 0ffc 	JMP  __put_G101
                 
                 ;OPTIMIZER ADDED SUBROUTINE, CALLED 2 TIMES, CODE SIZE REDUCTION:6 WORDS
                 SUBOPT_0x46:
001695 89a8      	LDD  R26,Y+16
001696 89b9      	LDD  R27,Y+16+1
001697 9614      	ADIW R26,4
001698 940e 17ce 	CALL __GETW1P
00169a 83ee      	STD  Y+6,R30
00169b 83ff      	STD  Y+6+1,R31
00169c 93fa      	ST   -Y,R31
00169d 93ea      	ST   -Y,R30
00169e 9508      	RET
                 
                 ;OPTIMIZER ADDED SUBROUTINE, CALLED 3 TIMES, CODE SIZE REDUCTION:3 WORDS
                 SUBOPT_0x47:
00169f e0e4      	LDI  R30,LOW(4)
0016a0 e0f0      	LDI  R31,HIGH(4)
0016a1 23ea      	AND  R30,R26
0016a2 23fb      	AND  R31,R27
0016a3 9730      	SBIW R30,0
0016a4 9508      	RET
                 
                 ;OPTIMIZER ADDED SUBROUTINE, CALLED 2 TIMES, CODE SIZE REDUCTION:2 WORDS
                 SUBOPT_0x48:
0016a5 89a8      	LDD  R26,Y+16
0016a6 89b9      	LDD  R27,Y+16+1
0016a7 9614      	ADIW R26,4
0016a8 940e 17ce 	CALL __GETW1P
0016aa 87ea      	STD  Y+10,R30
0016ab 87fb      	STD  Y+10+1,R31
0016ac 9508      	RET
                 
                 ;OPTIMIZER ADDED SUBROUTINE, CALLED 3 TIMES, CODE SIZE REDUCTION:1 WORDS
                 SUBOPT_0x49:
0016ad efeb      	LDI  R30,LOW(65531)
0016ae efff      	LDI  R31,HIGH(65531)
0016af 23ea      	AND  R30,R26
0016b0 2f0e      	MOV  R16,R30
0016b1 9508      	RET
                 
                 ;OPTIMIZER ADDED SUBROUTINE, CALLED 3 TIMES, CODE SIZE REDUCTION:3 WORDS
                 SUBOPT_0x4A:
0016b2 2fe0      	MOV  R30,R16
0016b3 e0f0      	LDI  R31,0
0016b4 70e1      	ANDI R30,LOW(0x1)
0016b5 9508      	RET
                 
                 ;OPTIMIZER ADDED SUBROUTINE, CALLED 6 TIMES, CODE SIZE REDUCTION:7 WORDS
                 SUBOPT_0x4B:
                +
0016b6 81a8     +LDD R26 , Y + 0
0016b7 81b9     +LDD R27 , Y + 0 + 1
0016b8 818a     +LDD R24 , Y + 0 + 2
0016b9 819b     +LDD R25 , Y + 0 + 3
                 	__GETD2S 0
0016ba 9508      	RET
                 
                 ;OPTIMIZER ADDED SUBROUTINE, CALLED 2 TIMES, CODE SIZE REDUCTION:1 WORDS
                 SUBOPT_0x4C:
                +
0016bb e0e0     +LDI R30 , LOW ( 0x3F800000 )
0016bc e0f0     +LDI R31 , HIGH ( 0x3F800000 )
0016bd e860     +LDI R22 , BYTE3 ( 0x3F800000 )
0016be e37f     +LDI R23 , BYTE4 ( 0x3F800000 )
                 	__GETD1N 0x3F800000
0016bf ce01      	RJMP SUBOPT_0x20
                 
                 ;OPTIMIZER ADDED SUBROUTINE, CALLED 2 TIMES, CODE SIZE REDUCTION:2 WORDS
                 SUBOPT_0x4D:
0016c0 9724      	SBIW R28,4
0016c1 931a      	ST   -Y,R17
0016c2 e010      	LDI  R17,0
                +
0016c3 81ad     +LDD R26 , Y + 5
0016c4 81be     +LDD R27 , Y + 5 + 1
0016c5 818f     +LDD R24 , Y + 5 + 2
0016c6 8598     +LDD R25 , Y + 5 + 3
                 	__GETD2S 5
0016c7 9508      	RET
                 
                 ;OPTIMIZER ADDED SUBROUTINE, CALLED 6 TIMES, CODE SIZE REDUCTION:7 WORDS
                 SUBOPT_0x4E:
                +
0016c8 83ed     +STD Y + 5 , R30
0016c9 83fe     +STD Y + 5 + 1 , R31
0016ca 836f     +STD Y + 5 + 2 , R22
0016cb 8778     +STD Y + 5 + 3 , R23
                 	__PUTD1S 5
0016cc 9508      	RET
                 
                 ;OPTIMIZER ADDED SUBROUTINE, CALLED 6 TIMES, CODE SIZE REDUCTION:7 WORDS
                 SUBOPT_0x4F:
                +
0016cd 81ed     +LDD R30 , Y + 5
0016ce 81fe     +LDD R31 , Y + 5 + 1
0016cf 816f     +LDD R22 , Y + 5 + 2
0016d0 8578     +LDD R23 , Y + 5 + 3
                 	__GETD1S 5
0016d1 9508      	RET
                 
                 ;OPTIMIZER ADDED SUBROUTINE, CALLED 11 TIMES, CODE SIZE REDUCTION:17 WORDS
                 SUBOPT_0x50:
                +
0016d2 81ad     +LDD R26 , Y + 5
0016d3 81be     +LDD R27 , Y + 5 + 1
0016d4 818f     +LDD R24 , Y + 5 + 2
0016d5 8598     +LDD R25 , Y + 5 + 3
                 	__GETD2S 5
0016d6 9508      	RET
                 
                 ;OPTIMIZER ADDED SUBROUTINE, CALLED 3 TIMES, CODE SIZE REDUCTION:5 WORDS
                 SUBOPT_0x51:
0016d7 dffa      	RCALL SUBOPT_0x50
                +
0016d8 e0e0     +LDI R30 , LOW ( 0x3F000000 )
0016d9 e0f0     +LDI R31 , HIGH ( 0x3F000000 )
0016da e060     +LDI R22 , BYTE3 ( 0x3F000000 )
0016db e37f     +LDI R23 , BYTE4 ( 0x3F000000 )
                 	__GETD1N 0x3F000000
0016dc 9508      	RET
                 
                 ;OPTIMIZER ADDED SUBROUTINE, CALLED 2 TIMES, CODE SIZE REDUCTION:1 WORDS
                 SUBOPT_0x52:
0016dd dfef      	RCALL SUBOPT_0x4F
0016de 940e 17ed 	CALL __ANEGF1
0016e0 cfe7      	RJMP SUBOPT_0x4E
                 
                 ;OPTIMIZER ADDED SUBROUTINE, CALLED 2 TIMES, CODE SIZE REDUCTION:1 WORDS
                 SUBOPT_0x53:
0016e1 dfeb      	RCALL SUBOPT_0x4F
0016e2 dfef      	RCALL SUBOPT_0x50
0016e3 940e 18e1 	CALL __MULF12
0016e5 9508      	RET
                 
                 ;OPTIMIZER ADDED SUBROUTINE, CALLED 5 TIMES, CODE SIZE REDUCTION:5 WORDS
                 SUBOPT_0x54:
                +
0016e6 81e9     +LDD R30 , Y + 1
0016e7 81fa     +LDD R31 , Y + 1 + 1
0016e8 816b     +LDD R22 , Y + 1 + 2
0016e9 817c     +LDD R23 , Y + 1 + 3
                 	__GETD1S 1
0016ea 9508      	RET
                 
                 ;OPTIMIZER ADDED SUBROUTINE, CALLED 2 TIMES, CODE SIZE REDUCTION:1 WORDS
                 SUBOPT_0x55:
                +
0016eb 81a9     +LDD R26 , Y + 1
0016ec 81ba     +LDD R27 , Y + 1 + 1
0016ed 818b     +LDD R24 , Y + 1 + 2
0016ee 819c     +LDD R25 , Y + 1 + 3
                 	__GETD2S 1
0016ef 940e 18e1 	CALL __MULF12
0016f1 9508      	RET
                 
                 ;OPTIMIZER ADDED SUBROUTINE, CALLED 3 TIMES, CODE SIZE REDUCTION:1 WORDS
                 SUBOPT_0x56:
                +
0016f2 81ec     +LDD R30 , Y + 4
0016f3 81fd     +LDD R31 , Y + 4 + 1
0016f4 816e     +LDD R22 , Y + 4 + 2
0016f5 817f     +LDD R23 , Y + 4 + 3
                 	__GETD1S 4
0016f6 9508      	RET
                 
                 ;OPTIMIZER ADDED SUBROUTINE, CALLED 2 TIMES, CODE SIZE REDUCTION:1 WORDS
                 SUBOPT_0x57:
                +
0016f7 81ac     +LDD R26 , Y + 4
0016f8 81bd     +LDD R27 , Y + 4 + 1
0016f9 818e     +LDD R24 , Y + 4 + 2
0016fa 819f     +LDD R25 , Y + 4 + 3
                 	__GETD2S 4
0016fb 940e 18e1 	CALL __MULF12
0016fd 9508      	RET
                 
                 ;OPTIMIZER ADDED SUBROUTINE, CALLED 2 TIMES, CODE SIZE REDUCTION:3 WORDS
                 SUBOPT_0x58:
0016fe 940e 18e1 	CALL __MULF12
                +
001700 e4ae     +LDI R26 , LOW ( 0x414A8F4E )
001701 e8bf     +LDI R27 , HIGH ( 0x414A8F4E )
001702 e48a     +LDI R24 , BYTE3 ( 0x414A8F4E )
001703 e491     +LDI R25 , BYTE4 ( 0x414A8F4E )
                 	__GETD2N 0x414A8F4E
001704 940e 1893 	CALL __ADDF12
001706 9508      	RET
                 
                 ;OPTIMIZER ADDED SUBROUTINE, CALLED 2 TIMES, CODE SIZE REDUCTION:1 WORDS
                 SUBOPT_0x59:
001707 dda9      	RCALL SUBOPT_0x1D
                +
001708 e0a0     +LDI R26 , LOW ( 0x3F800000 )
001709 e0b0     +LDI R27 , HIGH ( 0x3F800000 )
00170a e880     +LDI R24 , BYTE3 ( 0x3F800000 )
00170b e39f     +LDI R25 , BYTE4 ( 0x3F800000 )
                 	__GETD2N 0x3F800000
00170c 9508      	RET
                 
                 ;OPTIMIZER ADDED SUBROUTINE, CALLED 2 TIMES, CODE SIZE REDUCTION:1 WORDS
                 SUBOPT_0x5A:
                +
00170d edab     +LDI R26 , LOW ( 0x3FC90FDB )
00170e e0bf     +LDI R27 , HIGH ( 0x3FC90FDB )
00170f ec89     +LDI R24 , BYTE3 ( 0x3FC90FDB )
001710 e39f     +LDI R25 , BYTE4 ( 0x3FC90FDB )
                 	__GETD2N 0x3FC90FDB
001711 cdaf      	RJMP SUBOPT_0x20
                 
                 ;OPTIMIZER ADDED SUBROUTINE, CALLED 2 TIMES, CODE SIZE REDUCTION:3 WORDS
                 SUBOPT_0x5B:
001712 dd9e      	RCALL SUBOPT_0x1D
001713 940e 17ed 	CALL __ANEGF1
001715 940e 17d6 	CALL __PUTPARD1
001717 940c 12f3 	JMP  _yatan
                 
                 
                 	.CSEG
                 _delay_ms:
001719 91e9      	ld   r30,y+
00171a 91f9      	ld   r31,y+
00171b 9630      	adiw r30,0
00171c f039      	breq __delay_ms1
                 __delay_ms0:
                +
00171d e080     +LDI R24 , LOW ( 0x1000 )
00171e e190     +LDI R25 , HIGH ( 0x1000 )
                +__DELAY_USW_LOOP :
00171f 9701     +SBIW R24 , 1
001720 f7f1     +BRNE __DELAY_USW_LOOP
                 	__DELAY_USW 0x1000
001721 95a8      	wdr
001722 9731      	sbiw r30,1
001723 f7c9      	brne __delay_ms0
                 __delay_ms1:
001724 9508      	ret
                 
                 _sqrt:
001725 9724      	sbiw r28,4
001726 935f      	push r21
001727 819f      	ldd  r25,y+7
001728 2399      	tst  r25
001729 f411      	brne __sqrt0
00172a 9628      	adiw r28,8
00172b c1a3      	rjmp __zerores
                 __sqrt0:
00172c f412      	brpl __sqrt1
00172d 9628      	adiw r28,8
00172e c1ac      	rjmp __maxres
                 __sqrt1:
00172f 934f      	push r20
001730 e442      	ldi  r20,66
001731 818e      	ldd  r24,y+6
001732 81bd      	ldd  r27,y+5
001733 81ac      	ldd  r26,y+4
                 __sqrt2:
001734 8388      	st   y,r24
001735 8399      	std  y+1,r25
001736 83aa      	std  y+2,r26
001737 83bb      	std  y+3,r27
001738 01fd      	movw r30,r26
001739 01bc      	movw r22,r24
00173a 81ac      	ldd  r26,y+4
00173b 81bd      	ldd  r27,y+5
00173c 818e      	ldd  r24,y+6
00173d 819f      	ldd  r25,y+7
00173e d1f0      	rcall __divf21
00173f 8188      	ld   r24,y
001740 8199      	ldd  r25,y+1
001741 81aa      	ldd  r26,y+2
001742 81bb      	ldd  r27,y+3
001743 d14f      	rcall __addf12
001744 d0d2      	rcall __unpack1
001745 957a      	dec  r23
001746 d0b6      	rcall __repack
001747 8188      	ld   r24,y
001748 8199      	ldd  r25,y+1
001749 81aa      	ldd  r26,y+2
00174a 81bb      	ldd  r27,y+3
00174b 27ae      	eor  r26,r30
00174c 7fa8      	andi r26,0xf8
00174d f421      	brne __sqrt4
00174e 17bf      	cp   r27,r31
00174f 0786      	cpc  r24,r22
001750 0797      	cpc  r25,r23
001751 f029      	breq __sqrt3
                 __sqrt4:
001752 954a      	dec  r20
001753 f019      	breq __sqrt3
001754 01df      	movw r26,r30
001755 01cb      	movw r24,r22
001756 cfdd      	rjmp __sqrt2
                 __sqrt3:
001757 914f      	pop  r20
001758 915f      	pop  r21
001759 9628      	adiw r28,8
00175a 9508      	ret
                 
                 __ADDW2R15:
00175b 2400      	CLR  R0
00175c 0daf      	ADD  R26,R15
00175d 1db0      	ADC  R27,R0
00175e 9508      	RET
                 
                 __ADDD12:
00175f 0fea      	ADD  R30,R26
001760 1ffb      	ADC  R31,R27
001761 1f68      	ADC  R22,R24
001762 1f79      	ADC  R23,R25
001763 9508      	RET
                 
                 __ANEGW1:
001764 95f1      	NEG  R31
001765 95e1      	NEG  R30
001766 40f0      	SBCI R31,0
001767 9508      	RET
                 
                 __ANEGD1:
001768 95f0      	COM  R31
001769 9560      	COM  R22
00176a 9570      	COM  R23
00176b 95e1      	NEG  R30
00176c 4fff      	SBCI R31,-1
00176d 4f6f      	SBCI R22,-1
00176e 4f7f      	SBCI R23,-1
00176f 9508      	RET
                 
                 __CBD1:
001770 2ffe      	MOV  R31,R30
001771 0fff      	ADD  R31,R31
001772 0bff      	SBC  R31,R31
001773 2f6f      	MOV  R22,R31
001774 2f7f      	MOV  R23,R31
001775 9508      	RET
                 
                 __CWD1:
001776 2f6f      	MOV  R22,R31
001777 0f66      	ADD  R22,R22
001778 0b66      	SBC  R22,R22
001779 2f76      	MOV  R23,R22
00177a 9508      	RET
                 
                 __CWD2:
00177b 2f8b      	MOV  R24,R27
00177c 0f88      	ADD  R24,R24
00177d 0b88      	SBC  R24,R24
00177e 2f98      	MOV  R25,R24
00177f 9508      	RET
                 
                 __MULD12U:
001780 9f7a      	MUL  R23,R26
001781 2d70      	MOV  R23,R0
001782 9f6b      	MUL  R22,R27
001783 0d70      	ADD  R23,R0
001784 9ff8      	MUL  R31,R24
001785 0d70      	ADD  R23,R0
001786 9fe9      	MUL  R30,R25
001787 0d70      	ADD  R23,R0
001788 9f6a      	MUL  R22,R26
001789 2d60      	MOV  R22,R0
00178a 0d71      	ADD  R23,R1
00178b 9ffb      	MUL  R31,R27
00178c 0d60      	ADD  R22,R0
00178d 1d71      	ADC  R23,R1
00178e 9fe8      	MUL  R30,R24
00178f 0d60      	ADD  R22,R0
001790 1d71      	ADC  R23,R1
001791 2788      	CLR  R24
001792 9ffa      	MUL  R31,R26
001793 2df0      	MOV  R31,R0
001794 0d61      	ADD  R22,R1
001795 1f78      	ADC  R23,R24
001796 9feb      	MUL  R30,R27
001797 0df0      	ADD  R31,R0
001798 1d61      	ADC  R22,R1
001799 1f78      	ADC  R23,R24
00179a 9fea      	MUL  R30,R26
00179b 2de0      	MOV  R30,R0
00179c 0df1      	ADD  R31,R1
00179d 1f68      	ADC  R22,R24
00179e 1f78      	ADC  R23,R24
00179f 9508      	RET
                 
                 __MULD12:
0017a0 d01a      	RCALL __CHKSIGND
0017a1 dfde      	RCALL __MULD12U
0017a2 f40e      	BRTC __MULD121
0017a3 dfc4      	RCALL __ANEGD1
                 __MULD121:
0017a4 9508      	RET
                 
                 __DIVW21U:
0017a5 2400      	CLR  R0
0017a6 2411      	CLR  R1
0017a7 e190      	LDI  R25,16
                 __DIVW21U1:
0017a8 0faa      	LSL  R26
0017a9 1fbb      	ROL  R27
0017aa 1c00      	ROL  R0
0017ab 1c11      	ROL  R1
0017ac 1a0e      	SUB  R0,R30
0017ad 0a1f      	SBC  R1,R31
0017ae f418      	BRCC __DIVW21U2
0017af 0e0e      	ADD  R0,R30
0017b0 1e1f      	ADC  R1,R31
0017b1 c001      	RJMP __DIVW21U3
                 __DIVW21U2:
0017b2 60a1      	SBR  R26,1
                 __DIVW21U3:
0017b3 959a      	DEC  R25
0017b4 f799      	BRNE __DIVW21U1
0017b5 01fd      	MOVW R30,R26
0017b6 01d0      	MOVW R26,R0
0017b7 9508      	RET
                 
                 __MODW21U:
0017b8 dfec      	RCALL __DIVW21U
0017b9 01fd      	MOVW R30,R26
0017ba 9508      	RET
                 
                 __CHKSIGND:
0017bb 94e8      	CLT
0017bc ff77      	SBRS R23,7
0017bd c002      	RJMP __CHKSD1
0017be dfa9      	RCALL __ANEGD1
0017bf 9468      	SET
                 __CHKSD1:
0017c0 ff97      	SBRS R25,7
0017c1 c00b      	RJMP __CHKSD2
0017c2 2400      	CLR  R0
0017c3 95a0      	COM  R26
0017c4 95b0      	COM  R27
0017c5 9580      	COM  R24
0017c6 9590      	COM  R25
0017c7 9611      	ADIW R26,1
0017c8 1d80      	ADC  R24,R0
0017c9 1d90      	ADC  R25,R0
0017ca f800      	BLD  R0,0
0017cb 9403      	INC  R0
0017cc fa00      	BST  R0,0
                 __CHKSD2:
0017cd 9508      	RET
                 
                 __GETW1P:
0017ce 91ed      	LD   R30,X+
0017cf 91fc      	LD   R31,X
0017d0 9711      	SBIW R26,1
0017d1 9508      	RET
                 
                 __GETW1PF:
0017d2 9005      	LPM  R0,Z+
0017d3 91f4      	LPM  R31,Z
0017d4 2de0      	MOV  R30,R0
0017d5 9508      	RET
                 
                 __PUTPARD1:
0017d6 937a      	ST   -Y,R23
0017d7 936a      	ST   -Y,R22
0017d8 93fa      	ST   -Y,R31
0017d9 93ea      	ST   -Y,R30
0017da 9508      	RET
                 
                 __CDF2U:
0017db 9468      	SET
0017dc c001      	RJMP __CDF2U0
                 __CDF2:
0017dd 94e8      	CLT
                 __CDF2U0:
0017de d001      	RCALL __SWAPD12
0017df d07a      	RCALL __CDF1U0
                 
                 __SWAPD12:
0017e0 2e18      	MOV  R1,R24
0017e1 2f86      	MOV  R24,R22
0017e2 2d61      	MOV  R22,R1
0017e3 2e19      	MOV  R1,R25
0017e4 2f97      	MOV  R25,R23
0017e5 2d71      	MOV  R23,R1
                 
                 __SWAPW12:
0017e6 2e1b      	MOV  R1,R27
0017e7 2fbf      	MOV  R27,R31
0017e8 2df1      	MOV  R31,R1
                 
                 __SWAPB12:
0017e9 2e1a      	MOV  R1,R26
0017ea 2fae      	MOV  R26,R30
0017eb 2de1      	MOV  R30,R1
0017ec 9508      	RET
                 
                 __ANEGF1:
0017ed 9730      	SBIW R30,0
0017ee 4060      	SBCI R22,0
0017ef 4070      	SBCI R23,0
0017f0 f009      	BREQ __ANEGF10
0017f1 5870      	SUBI R23,0x80
                 __ANEGF10:
0017f2 9508      	RET
                 
                 __ROUND_REPACK:
0017f3 2355      	TST  R21
0017f4 f442      	BRPL __REPACK
0017f5 3850      	CPI  R21,0x80
0017f6 f411      	BRNE __ROUND_REPACK0
0017f7 ffe0      	SBRS R30,0
0017f8 c004      	RJMP __REPACK
                 __ROUND_REPACK0:
0017f9 9631      	ADIW R30,1
0017fa 1f69      	ADC  R22,R25
0017fb 1f79      	ADC  R23,R25
0017fc f06b      	BRVS __REPACK1
                 
                 __REPACK:
0017fd e850      	LDI  R21,0x80
0017fe 2757      	EOR  R21,R23
0017ff f411      	BRNE __REPACK0
001800 935f      	PUSH R21
001801 c0cd      	RJMP __ZERORES
                 __REPACK0:
001802 3f5f      	CPI  R21,0xFF
001803 f031      	BREQ __REPACK1
001804 0f66      	LSL  R22
001805 0c00      	LSL  R0
001806 9557      	ROR  R21
001807 9567      	ROR  R22
001808 2f75      	MOV  R23,R21
001809 9508      	RET
                 __REPACK1:
00180a 935f      	PUSH R21
00180b 2000      	TST  R0
00180c f00a      	BRMI __REPACK2
00180d c0cd      	RJMP __MAXRES
                 __REPACK2:
00180e c0c6      	RJMP __MINRES
                 
                 __UNPACK:
00180f e850      	LDI  R21,0x80
001810 2e19      	MOV  R1,R25
001811 2215      	AND  R1,R21
001812 0f88      	LSL  R24
001813 1f99      	ROL  R25
001814 2795      	EOR  R25,R21
001815 0f55      	LSL  R21
001816 9587      	ROR  R24
                 
                 __UNPACK1:
001817 e850      	LDI  R21,0x80
001818 2e07      	MOV  R0,R23
001819 2205      	AND  R0,R21
00181a 0f66      	LSL  R22
00181b 1f77      	ROL  R23
00181c 2775      	EOR  R23,R21
00181d 0f55      	LSL  R21
00181e 9567      	ROR  R22
00181f 9508      	RET
                 
                 __CFD1U:
001820 9468      	SET
001821 c001      	RJMP __CFD1U0
                 __CFD1:
001822 94e8      	CLT
                 __CFD1U0:
001823 935f      	PUSH R21
001824 dff2      	RCALL __UNPACK1
001825 3870      	CPI  R23,0x80
001826 f018      	BRLO __CFD10
001827 3f7f      	CPI  R23,0xFF
001828 f408      	BRCC __CFD10
001829 c0a5      	RJMP __ZERORES
                 __CFD10:
00182a e156      	LDI  R21,22
00182b 1b57      	SUB  R21,R23
00182c f4aa      	BRPL __CFD11
00182d 9551      	NEG  R21
00182e 3058      	CPI  R21,8
00182f f40e      	BRTC __CFD19
001830 3059      	CPI  R21,9
                 __CFD19:
001831 f030      	BRLO __CFD17
001832 efef      	SER  R30
001833 efff      	SER  R31
001834 ef6f      	SER  R22
001835 e77f      	LDI  R23,0x7F
001836 f977      	BLD  R23,7
001837 c01a      	RJMP __CFD15
                 __CFD17:
001838 2777      	CLR  R23
001839 2355      	TST  R21
00183a f0b9      	BREQ __CFD15
                 __CFD18:
00183b 0fee      	LSL  R30
00183c 1fff      	ROL  R31
00183d 1f66      	ROL  R22
00183e 1f77      	ROL  R23
00183f 955a      	DEC  R21
001840 f7d1      	BRNE __CFD18
001841 c010      	RJMP __CFD15
                 __CFD11:
001842 2777      	CLR  R23
                 __CFD12:
001843 3058      	CPI  R21,8
001844 f028      	BRLO __CFD13
001845 2fef      	MOV  R30,R31
001846 2ff6      	MOV  R31,R22
001847 2f67      	MOV  R22,R23
001848 5058      	SUBI R21,8
001849 cff9      	RJMP __CFD12
                 __CFD13:
00184a 2355      	TST  R21
00184b f031      	BREQ __CFD15
                 __CFD14:
00184c 9576      	LSR  R23
00184d 9567      	ROR  R22
00184e 95f7      	ROR  R31
00184f 95e7      	ROR  R30
001850 955a      	DEC  R21
001851 f7d1      	BRNE __CFD14
                 __CFD15:
001852 2000      	TST  R0
001853 f40a      	BRPL __CFD16
001854 df13      	RCALL __ANEGD1
                 __CFD16:
001855 915f      	POP  R21
001856 9508      	RET
                 
                 __CDF1U:
001857 9468      	SET
001858 c001      	RJMP __CDF1U0
                 __CDF1:
001859 94e8      	CLT
                 __CDF1U0:
00185a 9730      	SBIW R30,0
00185b 4060      	SBCI R22,0
00185c 4070      	SBCI R23,0
00185d f0b1      	BREQ __CDF10
00185e 2400      	CLR  R0
00185f f026      	BRTS __CDF11
001860 2377      	TST  R23
001861 f412      	BRPL __CDF11
001862 9400      	COM  R0
001863 df04      	RCALL __ANEGD1
                 __CDF11:
001864 2e17      	MOV  R1,R23
001865 e17e      	LDI  R23,30
001866 2011      	TST  R1
                 __CDF12:
001867 f032      	BRMI __CDF13
001868 957a      	DEC  R23
001869 0fee      	LSL  R30
00186a 1fff      	ROL  R31
00186b 1f66      	ROL  R22
00186c 1c11      	ROL  R1
00186d cff9      	RJMP __CDF12
                 __CDF13:
00186e 2fef      	MOV  R30,R31
00186f 2ff6      	MOV  R31,R22
001870 2d61      	MOV  R22,R1
001871 935f      	PUSH R21
001872 df8a      	RCALL __REPACK
001873 915f      	POP  R21
                 __CDF10:
001874 9508      	RET
                 
                 __SWAPACC:
001875 934f      	PUSH R20
001876 01af      	MOVW R20,R30
001877 01fd      	MOVW R30,R26
001878 01da      	MOVW R26,R20
001879 01ab      	MOVW R20,R22
00187a 01bc      	MOVW R22,R24
00187b 01ca      	MOVW R24,R20
00187c 2d40      	MOV  R20,R0
00187d 2c01      	MOV  R0,R1
00187e 2e14      	MOV  R1,R20
00187f 914f      	POP  R20
001880 9508      	RET
                 
                 __UADD12:
001881 0fea      	ADD  R30,R26
001882 1ffb      	ADC  R31,R27
001883 1f68      	ADC  R22,R24
001884 9508      	RET
                 
                 __NEGMAN1:
001885 95e0      	COM  R30
001886 95f0      	COM  R31
001887 9560      	COM  R22
001888 5fef      	SUBI R30,-1
001889 4fff      	SBCI R31,-1
00188a 4f6f      	SBCI R22,-1
00188b 9508      	RET
                 
                 __SUBF12:
00188c 935f      	PUSH R21
00188d df81      	RCALL __UNPACK
00188e 3890      	CPI  R25,0x80
00188f f171      	BREQ __ADDF129
001890 e850      	LDI  R21,0x80
001891 2615      	EOR  R1,R21
                 
001892 c004      	RJMP __ADDF120
                 
                 __ADDF12:
001893 935f      	PUSH R21
001894 df7a      	RCALL __UNPACK
001895 3890      	CPI  R25,0x80
001896 f139      	BREQ __ADDF129
                 
                 __ADDF120:
001897 3870      	CPI  R23,0x80
001898 f121      	BREQ __ADDF128
                 __ADDF121:
001899 2f57      	MOV  R21,R23
00189a 1b59      	SUB  R21,R25
00189b f113      	BRVS __ADDF129
00189c f412      	BRPL __ADDF122
00189d dfd7      	RCALL __SWAPACC
00189e cffa      	RJMP __ADDF121
                 __ADDF122:
00189f 3158      	CPI  R21,24
0018a0 f018      	BRLO __ADDF123
0018a1 27aa      	CLR  R26
0018a2 27bb      	CLR  R27
0018a3 2788      	CLR  R24
                 __ADDF123:
0018a4 3058      	CPI  R21,8
0018a5 f028      	BRLO __ADDF124
0018a6 2fab      	MOV  R26,R27
0018a7 2fb8      	MOV  R27,R24
0018a8 2788      	CLR  R24
0018a9 5058      	SUBI R21,8
0018aa cff9      	RJMP __ADDF123
                 __ADDF124:
0018ab 2355      	TST  R21
0018ac f029      	BREQ __ADDF126
                 __ADDF125:
0018ad 9586      	LSR  R24
0018ae 95b7      	ROR  R27
0018af 95a7      	ROR  R26
0018b0 955a      	DEC  R21
0018b1 f7d9      	BRNE __ADDF125
                 __ADDF126:
0018b2 2d50      	MOV  R21,R0
0018b3 2551      	EOR  R21,R1
0018b4 f062      	BRMI __ADDF127
0018b5 dfcb      	RCALL __UADD12
0018b6 f438      	BRCC __ADDF129
0018b7 9567      	ROR  R22
0018b8 95f7      	ROR  R31
0018b9 95e7      	ROR  R30
0018ba 9573      	INC  R23
0018bb f413      	BRVC __ADDF129
0018bc c01e      	RJMP __MAXRES
                 __ADDF128:
0018bd dfb7      	RCALL __SWAPACC
                 __ADDF129:
0018be df3e      	RCALL __REPACK
0018bf 915f      	POP  R21
0018c0 9508      	RET
                 __ADDF127:
0018c1 1bea      	SUB  R30,R26
0018c2 0bfb      	SBC  R31,R27
0018c3 0b68      	SBC  R22,R24
0018c4 f051      	BREQ __ZERORES
0018c5 f410      	BRCC __ADDF1210
0018c6 9400      	COM  R0
0018c7 dfbd      	RCALL __NEGMAN1
                 __ADDF1210:
0018c8 2366      	TST  R22
0018c9 f3a2      	BRMI __ADDF129
0018ca 0fee      	LSL  R30
0018cb 1fff      	ROL  R31
0018cc 1f66      	ROL  R22
0018cd 957a      	DEC  R23
0018ce f7cb      	BRVC __ADDF1210
                 
                 __ZERORES:
0018cf 27ee      	CLR  R30
0018d0 27ff      	CLR  R31
0018d1 2766      	CLR  R22
0018d2 2777      	CLR  R23
0018d3 915f      	POP  R21
0018d4 9508      	RET
                 
                 __MINRES:
0018d5 efef      	SER  R30
0018d6 efff      	SER  R31
0018d7 e76f      	LDI  R22,0x7F
0018d8 ef7f      	SER  R23
0018d9 915f      	POP  R21
0018da 9508      	RET
                 
                 __MAXRES:
0018db efef      	SER  R30
0018dc efff      	SER  R31
0018dd e76f      	LDI  R22,0x7F
0018de e77f      	LDI  R23,0x7F
0018df 915f      	POP  R21
0018e0 9508      	RET
                 
                 __MULF12:
0018e1 935f      	PUSH R21
0018e2 df2c      	RCALL __UNPACK
0018e3 3870      	CPI  R23,0x80
0018e4 f351      	BREQ __ZERORES
0018e5 3890      	CPI  R25,0x80
0018e6 f341      	BREQ __ZERORES
0018e7 2401      	EOR  R0,R1
0018e8 9408      	SEC
0018e9 1f79      	ADC  R23,R25
0018ea f423      	BRVC __MULF124
0018eb f31c      	BRLT __ZERORES
                 __MULF125:
0018ec 2000      	TST  R0
0018ed f33a      	BRMI __MINRES
0018ee cfec      	RJMP __MAXRES
                 __MULF124:
0018ef 920f      	PUSH R0
0018f0 931f      	PUSH R17
0018f1 932f      	PUSH R18
0018f2 933f      	PUSH R19
0018f3 934f      	PUSH R20
0018f4 2711      	CLR  R17
0018f5 2722      	CLR  R18
0018f6 2799      	CLR  R25
0018f7 9f68      	MUL  R22,R24
0018f8 01a0      	MOVW R20,R0
0018f9 9f8f      	MUL  R24,R31
0018fa 2d30      	MOV  R19,R0
0018fb 0d41      	ADD  R20,R1
0018fc 1f59      	ADC  R21,R25
0018fd 9f6b      	MUL  R22,R27
0018fe 0d30      	ADD  R19,R0
0018ff 1d41      	ADC  R20,R1
001900 1f59      	ADC  R21,R25
001901 9f8e      	MUL  R24,R30
001902 d027      	RCALL __MULF126
001903 9fbf      	MUL  R27,R31
001904 d025      	RCALL __MULF126
001905 9f6a      	MUL  R22,R26
001906 d023      	RCALL __MULF126
001907 9fbe      	MUL  R27,R30
001908 d01d      	RCALL __MULF127
001909 9faf      	MUL  R26,R31
00190a d01b      	RCALL __MULF127
00190b 9fae      	MUL  R26,R30
00190c 0d11      	ADD  R17,R1
00190d 1f29      	ADC  R18,R25
00190e 1f39      	ADC  R19,R25
00190f 1f49      	ADC  R20,R25
001910 1f59      	ADC  R21,R25
001911 2fe3      	MOV  R30,R19
001912 2ff4      	MOV  R31,R20
001913 2f65      	MOV  R22,R21
001914 2f52      	MOV  R21,R18
001915 914f      	POP  R20
001916 913f      	POP  R19
001917 912f      	POP  R18
001918 911f      	POP  R17
001919 900f      	POP  R0
00191a 2366      	TST  R22
00191b f02a      	BRMI __MULF122
00191c 0f55      	LSL  R21
00191d 1fee      	ROL  R30
00191e 1fff      	ROL  R31
00191f 1f66      	ROL  R22
001920 c002      	RJMP __MULF123
                 __MULF122:
001921 9573      	INC  R23
001922 f24b      	BRVS __MULF125
                 __MULF123:
001923 decf      	RCALL __ROUND_REPACK
001924 915f      	POP  R21
001925 9508      	RET
                 
                 __MULF127:
001926 0d10      	ADD  R17,R0
001927 1d21      	ADC  R18,R1
001928 1f39      	ADC  R19,R25
001929 c002      	RJMP __MULF128
                 __MULF126:
00192a 0d20      	ADD  R18,R0
00192b 1d31      	ADC  R19,R1
                 __MULF128:
00192c 1f49      	ADC  R20,R25
00192d 1f59      	ADC  R21,R25
00192e 9508      	RET
                 
                 __DIVF21:
00192f 935f      	PUSH R21
001930 dede      	RCALL __UNPACK
001931 3870      	CPI  R23,0x80
001932 f421      	BRNE __DIVF210
001933 2011      	TST  R1
                 __DIVF211:
001934 f40a      	BRPL __DIVF219
001935 cf9f      	RJMP __MINRES
                 __DIVF219:
001936 cfa4      	RJMP __MAXRES
                 __DIVF210:
001937 3890      	CPI  R25,0x80
001938 f409      	BRNE __DIVF218
                 __DIVF217:
001939 cf95      	RJMP __ZERORES
                 __DIVF218:
00193a 2401      	EOR  R0,R1
00193b 9408      	SEC
00193c 0b97      	SBC  R25,R23
00193d f41b      	BRVC __DIVF216
00193e f3d4      	BRLT __DIVF217
00193f 2000      	TST  R0
001940 cff3      	RJMP __DIVF211
                 __DIVF216:
001941 2f79      	MOV  R23,R25
001942 931f      	PUSH R17
001943 932f      	PUSH R18
001944 933f      	PUSH R19
001945 934f      	PUSH R20
001946 2411      	CLR  R1
001947 2711      	CLR  R17
001948 2722      	CLR  R18
001949 2733      	CLR  R19
00194a 2744      	CLR  R20
00194b 2755      	CLR  R21
00194c e290      	LDI  R25,32
                 __DIVF212:
00194d 17ae      	CP   R26,R30
00194e 07bf      	CPC  R27,R31
00194f 0786      	CPC  R24,R22
001950 0741      	CPC  R20,R17
001951 f030      	BRLO __DIVF213
001952 1bae      	SUB  R26,R30
001953 0bbf      	SBC  R27,R31
001954 0b86      	SBC  R24,R22
001955 0b41      	SBC  R20,R17
001956 9408      	SEC
001957 c001      	RJMP __DIVF214
                 __DIVF213:
001958 9488      	CLC
                 __DIVF214:
001959 1f55      	ROL  R21
00195a 1f22      	ROL  R18
00195b 1f33      	ROL  R19
00195c 1c11      	ROL  R1
00195d 1faa      	ROL  R26
00195e 1fbb      	ROL  R27
00195f 1f88      	ROL  R24
001960 1f44      	ROL  R20
001961 959a      	DEC  R25
001962 f751      	BRNE __DIVF212
001963 01f9      	MOVW R30,R18
001964 2d61      	MOV  R22,R1
001965 914f      	POP  R20
001966 913f      	POP  R19
001967 912f      	POP  R18
001968 911f      	POP  R17
001969 2366      	TST  R22
00196a f032      	BRMI __DIVF215
00196b 0f55      	LSL  R21
00196c 1fee      	ROL  R30
00196d 1fff      	ROL  R31
00196e 1f66      	ROL  R22
00196f 957a      	DEC  R23
001970 f243      	BRVS __DIVF217
                 __DIVF215:
001971 de81      	RCALL __ROUND_REPACK
001972 915f      	POP  R21
001973 9508      	RET
                 
                 __CMPF12:
001974 2399      	TST  R25
001975 f09a      	BRMI __CMPF120
001976 2377      	TST  R23
001977 f042      	BRMI __CMPF121
001978 1797      	CP   R25,R23
001979 f048      	BRLO __CMPF122
00197a f429      	BRNE __CMPF121
00197b 17ae      	CP   R26,R30
00197c 07bf      	CPC  R27,R31
00197d 0786      	CPC  R24,R22
00197e f020      	BRLO __CMPF122
00197f f031      	BREQ __CMPF123
                 __CMPF121:
001980 9498      	CLZ
001981 9488      	CLC
001982 9508      	RET
                 __CMPF122:
001983 9498      	CLZ
001984 9408      	SEC
001985 9508      	RET
                 __CMPF123:
001986 9418      	SEZ
001987 9488      	CLC
001988 9508      	RET
                 __CMPF120:
001989 2377      	TST  R23
00198a f7c2      	BRPL __CMPF122
00198b 1797      	CP   R25,R23
00198c f398      	BRLO __CMPF121
00198d f7a9      	BRNE __CMPF122
00198e 17ea      	CP   R30,R26
00198f 07fb      	CPC  R31,R27
001990 0768      	CPC  R22,R24
001991 f388      	BRLO __CMPF122
001992 f399      	BREQ __CMPF123
001993 cfec      	RJMP __CMPF121
                 
                 __CPD10:
001994 9730      	SBIW R30,0
001995 4060      	SBCI R22,0
001996 4070      	SBCI R23,0
001997 9508      	RET
                 
                 __CPD02:
001998 2400      	CLR  R0
001999 160a      	CP   R0,R26
00199a 060b      	CPC  R0,R27
00199b 0608      	CPC  R0,R24
00199c 0609      	CPC  R0,R25
00199d 9508      	RET
                 
                 __SAVELOCR6:
00199e 935a      	ST   -Y,R21
                 __SAVELOCR5:
00199f 934a      	ST   -Y,R20
                 __SAVELOCR4:
0019a0 933a      	ST   -Y,R19
                 __SAVELOCR3:
0019a1 932a      	ST   -Y,R18
                 __SAVELOCR2:
0019a2 931a      	ST   -Y,R17
0019a3 930a      	ST   -Y,R16
0019a4 9508      	RET
                 
                 __LOADLOCR6:
0019a5 815d      	LDD  R21,Y+5
                 __LOADLOCR5:
0019a6 814c      	LDD  R20,Y+4
                 __LOADLOCR4:
0019a7 813b      	LDD  R19,Y+3
                 __LOADLOCR3:
0019a8 812a      	LDD  R18,Y+2
                 __LOADLOCR2:
0019a9 8119      	LDD  R17,Y+1
0019aa 8108      	LD   R16,Y
0019ab 9508      	RET
                 
                 ;END OF CODE MARKER
                 __END_OF_CODE:


RESOURCE USE INFORMATION
------------------------

Notice:
The register and instruction counts are symbol table hit counts,
and hence implicitly used resources are not counted, eg, the
'lpm' instruction without operands implicitly uses r0 and z,
none of which are counted.

x,y,z are separate entities in the symbol table and are
counted separately from r26..r31 here.

.dseg memory usage only counts static data declared with .byte

ATmega32 register use summary:
r0 :  59 r1 :  40 r2 :  28 r3 :  12 r4 :   3 r5 :   2 r6 :   3 r7 :   2 
r8 :  23 r9 :   5 r10: 132 r11:  38 r12:   2 r13:  20 r14:   0 r15:   4 
r16:  36 r17:  48 r18:  38 r19:  20 r20:  35 r21:  83 r22: 221 r23: 212 
r24: 121 r25: 104 r26: 324 r27: 144 r28:  40 r29:   1 r30:1132 r31: 457 
x  :  15 y  : 446 z  :  15 
Registers used: 34 out of 35 (97.1%)

ATmega32 instruction use summary:
adc   :  32 add   :  23 adiw  :  41 and   :  21 andi  :   8 asr   :   0 
bclr  :   0 bld   :  15 brbc  :   0 brbs  :   0 brcc  :  57 brcs  :  10 
break :   0 breq  : 118 brge  :   6 brhc  :   0 brhs  :   0 brid  :   0 
brie  :   0 brlo  :  18 brlt  :   2 brmi  :  11 brne  : 156 brpl  :  10 
brsh  :  64 brtc  :   3 brts  :   2 brvc  :   4 brvs  :   4 bset  :   0 
bst   :   3 call  : 733 cbi   :  17 cbr   :   3 clc   :   3 clh   :   0 
cli   :   1 cln   :   0 clr   :  64 cls   :   0 clt   :   7 clv   :   0 
clz   :   2 com   :  12 cp    : 146 cpc   :  32 cpi   :  77 cpse  :   0 
dec   :  14 des   :   0 eor   :  13 fmul  :   0 fmuls :   0 fmulsu:   0 
icall :   0 ijmp  :   0 in    :  10 inc   :   4 jmp   : 103 ld    :  33 
ldd   : 229 ldi   :1035 lds   : 133 lpm   :  15 lsl   :  13 lsr   :   3 
mov   : 157 movw  :  52 mul   :  19 muls  :   1 mulsu :   0 neg   :   4 
nop   :   0 or    :   8 ori   :   3 out   :  55 pop   :  51 push  :  51 
rcall :  98 ret   : 148 reti  :   1 rjmp  : 239 rol   :  27 ror   :  15 
sbc   :  17 sbci  :  15 sbi   :  17 sbic  :   9 sbis  :   1 sbiw  :  37 
sbr   :   4 sbrc  :  25 sbrs  :   3 sec   :   5 seh   :   0 sei   :   1 
sen   :   0 ser   :   8 ses   :   0 set   :  11 sev   :   0 sez   :   1 
sleep :   1 spm   :   0 st    : 130 std   :  72 sts   :  65 sub   :  12 
subi  :  20 swap  :   2 tst   :  27 wdr   :   1 
Instructions used: 84 out of 112 (75.0%)

ATmega32 memory use summary [bytes]:
Segment   Begin    End      Code   Data   Used    Size   Use%
---------------------------------------------------------------
[.cseg] 0x000000 0x003358  11508   1636  13144   32768  40.1%
[.dseg] 0x000060 0x0002cd      0    109    109    2048   5.3%
[.eseg] 0x000000 0x000000      0      0      0    1024   0.0%

Assembly complete, 0 errors, 10 warnings
