
;CodeVisionAVR C Compiler V2.03.4 Standard
;(C) Copyright 1998-2008 Pavel Haiduc, HP InfoTech s.r.l.
;http://www.hpinfotech.com

;Chip type              : ATmega8
;Program type           : Application
;Clock frequency        : 8,000000 MHz
;Memory model           : Small
;Optimize for           : Size
;(s)printf features     : long, width
;(s)scanf features      : int, width
;External RAM size      : 0
;Data Stack size        : 256 byte(s)
;Heap size              : 0 byte(s)
;Promote char to int    : No
;char is unsigned       : Yes
;global const stored in FLASH  : No
;8 bit enums            : Yes
;Enhanced core instructions    : On
;Smart register allocation : On
;Automatic register allocation : On

	#pragma AVRPART ADMIN PART_NAME ATmega8
	#pragma AVRPART MEMORY PROG_FLASH 8192
	#pragma AVRPART MEMORY EEPROM 512
	#pragma AVRPART MEMORY INT_SRAM SIZE 1024
	#pragma AVRPART MEMORY INT_SRAM START_ADDR 0x60

	.LISTMAC
	.EQU UDRE=0x5
	.EQU RXC=0x7
	.EQU USR=0xB
	.EQU UDR=0xC
	.EQU SPSR=0xE
	.EQU SPDR=0xF
	.EQU EERE=0x0
	.EQU EEWE=0x1
	.EQU EEMWE=0x2
	.EQU EECR=0x1C
	.EQU EEDR=0x1D
	.EQU EEARL=0x1E
	.EQU EEARH=0x1F
	.EQU WDTCR=0x21
	.EQU MCUCR=0x35
	.EQU GICR=0x3B
	.EQU SPL=0x3D
	.EQU SPH=0x3E
	.EQU SREG=0x3F

	.DEF R0X0=R0
	.DEF R0X1=R1
	.DEF R0X2=R2
	.DEF R0X3=R3
	.DEF R0X4=R4
	.DEF R0X5=R5
	.DEF R0X6=R6
	.DEF R0X7=R7
	.DEF R0X8=R8
	.DEF R0X9=R9
	.DEF R0XA=R10
	.DEF R0XB=R11
	.DEF R0XC=R12
	.DEF R0XD=R13
	.DEF R0XE=R14
	.DEF R0XF=R15
	.DEF R0X10=R16
	.DEF R0X11=R17
	.DEF R0X12=R18
	.DEF R0X13=R19
	.DEF R0X14=R20
	.DEF R0X15=R21
	.DEF R0X16=R22
	.DEF R0X17=R23
	.DEF R0X18=R24
	.DEF R0X19=R25
	.DEF R0X1A=R26
	.DEF R0X1B=R27
	.DEF R0X1C=R28
	.DEF R0X1D=R29
	.DEF R0X1E=R30
	.DEF R0X1F=R31

	.MACRO __CPD1N
	CPI  R30,LOW(@0)
	LDI  R26,HIGH(@0)
	CPC  R31,R26
	LDI  R26,BYTE3(@0)
	CPC  R22,R26
	LDI  R26,BYTE4(@0)
	CPC  R23,R26
	.ENDM

	.MACRO __CPD2N
	CPI  R26,LOW(@0)
	LDI  R30,HIGH(@0)
	CPC  R27,R30
	LDI  R30,BYTE3(@0)
	CPC  R24,R30
	LDI  R30,BYTE4(@0)
	CPC  R25,R30
	.ENDM

	.MACRO __CPWRR
	CP   R@0,R@2
	CPC  R@1,R@3
	.ENDM

	.MACRO __CPWRN
	CPI  R@0,LOW(@2)
	LDI  R30,HIGH(@2)
	CPC  R@1,R30
	.ENDM

	.MACRO __ADDB1MN
	SUBI R30,LOW(-@0-(@1))
	.ENDM

	.MACRO __ADDB2MN
	SUBI R26,LOW(-@0-(@1))
	.ENDM

	.MACRO __ADDW1MN
	SUBI R30,LOW(-@0-(@1))
	SBCI R31,HIGH(-@0-(@1))
	.ENDM

	.MACRO __ADDW2MN
	SUBI R26,LOW(-@0-(@1))
	SBCI R27,HIGH(-@0-(@1))
	.ENDM

	.MACRO __ADDW1FN
	SUBI R30,LOW(-2*@0-(@1))
	SBCI R31,HIGH(-2*@0-(@1))
	.ENDM

	.MACRO __ADDD1FN
	SUBI R30,LOW(-2*@0-(@1))
	SBCI R31,HIGH(-2*@0-(@1))
	SBCI R22,BYTE3(-2*@0-(@1))
	.ENDM

	.MACRO __ADDD1N
	SUBI R30,LOW(-@0)
	SBCI R31,HIGH(-@0)
	SBCI R22,BYTE3(-@0)
	SBCI R23,BYTE4(-@0)
	.ENDM

	.MACRO __ADDD2N
	SUBI R26,LOW(-@0)
	SBCI R27,HIGH(-@0)
	SBCI R24,BYTE3(-@0)
	SBCI R25,BYTE4(-@0)
	.ENDM

	.MACRO __SUBD1N
	SUBI R30,LOW(@0)
	SBCI R31,HIGH(@0)
	SBCI R22,BYTE3(@0)
	SBCI R23,BYTE4(@0)
	.ENDM

	.MACRO __SUBD2N
	SUBI R26,LOW(@0)
	SBCI R27,HIGH(@0)
	SBCI R24,BYTE3(@0)
	SBCI R25,BYTE4(@0)
	.ENDM

	.MACRO __ANDBMNN
	LDS  R30,@0+@1
	ANDI R30,LOW(@2)
	STS  @0+@1,R30
	.ENDM

	.MACRO __ANDWMNN
	LDS  R30,@0+@1
	ANDI R30,LOW(@2)
	STS  @0+@1,R30
	LDS  R30,@0+@1+1
	ANDI R30,HIGH(@2)
	STS  @0+@1+1,R30
	.ENDM

	.MACRO __ANDD1N
	ANDI R30,LOW(@0)
	ANDI R31,HIGH(@0)
	ANDI R22,BYTE3(@0)
	ANDI R23,BYTE4(@0)
	.ENDM

	.MACRO __ANDD2N
	ANDI R26,LOW(@0)
	ANDI R27,HIGH(@0)
	ANDI R24,BYTE3(@0)
	ANDI R25,BYTE4(@0)
	.ENDM

	.MACRO __ORBMNN
	LDS  R30,@0+@1
	ORI  R30,LOW(@2)
	STS  @0+@1,R30
	.ENDM

	.MACRO __ORWMNN
	LDS  R30,@0+@1
	ORI  R30,LOW(@2)
	STS  @0+@1,R30
	LDS  R30,@0+@1+1
	ORI  R30,HIGH(@2)
	STS  @0+@1+1,R30
	.ENDM

	.MACRO __ORD1N
	ORI  R30,LOW(@0)
	ORI  R31,HIGH(@0)
	ORI  R22,BYTE3(@0)
	ORI  R23,BYTE4(@0)
	.ENDM

	.MACRO __ORD2N
	ORI  R26,LOW(@0)
	ORI  R27,HIGH(@0)
	ORI  R24,BYTE3(@0)
	ORI  R25,BYTE4(@0)
	.ENDM

	.MACRO __DELAY_USB
	LDI  R24,LOW(@0)
__DELAY_USB_LOOP:
	DEC  R24
	BRNE __DELAY_USB_LOOP
	.ENDM

	.MACRO __DELAY_USW
	LDI  R24,LOW(@0)
	LDI  R25,HIGH(@0)
__DELAY_USW_LOOP:
	SBIW R24,1
	BRNE __DELAY_USW_LOOP
	.ENDM

	.MACRO __CLRD1S
	LDI  R30,0
	STD  Y+@0,R30
	STD  Y+@0+1,R30
	STD  Y+@0+2,R30
	STD  Y+@0+3,R30
	.ENDM

	.MACRO __GETD1S
	LDD  R30,Y+@0
	LDD  R31,Y+@0+1
	LDD  R22,Y+@0+2
	LDD  R23,Y+@0+3
	.ENDM

	.MACRO __PUTD1S
	STD  Y+@0,R30
	STD  Y+@0+1,R31
	STD  Y+@0+2,R22
	STD  Y+@0+3,R23
	.ENDM

	.MACRO __PUTD2S
	STD  Y+@0,R26
	STD  Y+@0+1,R27
	STD  Y+@0+2,R24
	STD  Y+@0+3,R25
	.ENDM

	.MACRO __POINTB1MN
	LDI  R30,LOW(@0+@1)
	.ENDM

	.MACRO __POINTW1MN
	LDI  R30,LOW(@0+@1)
	LDI  R31,HIGH(@0+@1)
	.ENDM

	.MACRO __POINTD1M
	LDI  R30,LOW(@0)
	LDI  R31,HIGH(@0)
	LDI  R22,BYTE3(@0)
	LDI  R23,BYTE4(@0)
	.ENDM

	.MACRO __POINTW1FN
	LDI  R30,LOW(2*@0+@1)
	LDI  R31,HIGH(2*@0+@1)
	.ENDM

	.MACRO __POINTD1FN
	LDI  R30,LOW(2*@0+@1)
	LDI  R31,HIGH(2*@0+@1)
	LDI  R22,BYTE3(2*@0+@1)
	LDI  R23,BYTE4(2*@0+@1)
	.ENDM

	.MACRO __POINTB2MN
	LDI  R26,LOW(@0+@1)
	.ENDM

	.MACRO __POINTW2MN
	LDI  R26,LOW(@0+@1)
	LDI  R27,HIGH(@0+@1)
	.ENDM

	.MACRO __POINTBRM
	LDI  R@0,LOW(@1)
	.ENDM

	.MACRO __POINTWRM
	LDI  R@0,LOW(@2)
	LDI  R@1,HIGH(@2)
	.ENDM

	.MACRO __POINTBRMN
	LDI  R@0,LOW(@1+@2)
	.ENDM

	.MACRO __POINTWRMN
	LDI  R@0,LOW(@2+@3)
	LDI  R@1,HIGH(@2+@3)
	.ENDM

	.MACRO __POINTWRFN
	LDI  R@0,LOW(@2*2+@3)
	LDI  R@1,HIGH(@2*2+@3)
	.ENDM

	.MACRO __GETD1N
	LDI  R30,LOW(@0)
	LDI  R31,HIGH(@0)
	LDI  R22,BYTE3(@0)
	LDI  R23,BYTE4(@0)
	.ENDM

	.MACRO __GETD2N
	LDI  R26,LOW(@0)
	LDI  R27,HIGH(@0)
	LDI  R24,BYTE3(@0)
	LDI  R25,BYTE4(@0)
	.ENDM

	.MACRO __GETD2S
	LDD  R26,Y+@0
	LDD  R27,Y+@0+1
	LDD  R24,Y+@0+2
	LDD  R25,Y+@0+3
	.ENDM

	.MACRO __GETB1MN
	LDS  R30,@0+@1
	.ENDM

	.MACRO __GETB1HMN
	LDS  R31,@0+@1
	.ENDM

	.MACRO __GETW1MN
	LDS  R30,@0+@1
	LDS  R31,@0+@1+1
	.ENDM

	.MACRO __GETD1MN
	LDS  R30,@0+@1
	LDS  R31,@0+@1+1
	LDS  R22,@0+@1+2
	LDS  R23,@0+@1+3
	.ENDM

	.MACRO __GETBRMN
	LDS  R@0,@1+@2
	.ENDM

	.MACRO __GETWRMN
	LDS  R@0,@2+@3
	LDS  R@1,@2+@3+1
	.ENDM

	.MACRO __GETWRZ
	LDD  R@0,Z+@2
	LDD  R@1,Z+@2+1
	.ENDM

	.MACRO __GETD2Z
	LDD  R26,Z+@0
	LDD  R27,Z+@0+1
	LDD  R24,Z+@0+2
	LDD  R25,Z+@0+3
	.ENDM

	.MACRO __GETB2MN
	LDS  R26,@0+@1
	.ENDM

	.MACRO __GETW2MN
	LDS  R26,@0+@1
	LDS  R27,@0+@1+1
	.ENDM

	.MACRO __GETD2MN
	LDS  R26,@0+@1
	LDS  R27,@0+@1+1
	LDS  R24,@0+@1+2
	LDS  R25,@0+@1+3
	.ENDM

	.MACRO __PUTB1MN
	STS  @0+@1,R30
	.ENDM

	.MACRO __PUTW1MN
	STS  @0+@1,R30
	STS  @0+@1+1,R31
	.ENDM

	.MACRO __PUTD1MN
	STS  @0+@1,R30
	STS  @0+@1+1,R31
	STS  @0+@1+2,R22
	STS  @0+@1+3,R23
	.ENDM

	.MACRO __PUTB1EN
	LDI  R26,LOW(@0+@1)
	LDI  R27,HIGH(@0+@1)
	RCALL __EEPROMWRB
	.ENDM

	.MACRO __PUTW1EN
	LDI  R26,LOW(@0+@1)
	LDI  R27,HIGH(@0+@1)
	RCALL __EEPROMWRW
	.ENDM

	.MACRO __PUTD1EN
	LDI  R26,LOW(@0+@1)
	LDI  R27,HIGH(@0+@1)
	RCALL __EEPROMWRD
	.ENDM

	.MACRO __PUTBR0MN
	STS  @0+@1,R0
	.ENDM

	.MACRO __PUTDZ2
	STD  Z+@0,R26
	STD  Z+@0+1,R27
	STD  Z+@0+2,R24
	STD  Z+@0+3,R25
	.ENDM

	.MACRO __PUTBMRN
	STS  @0+@1,R@2
	.ENDM

	.MACRO __PUTWMRN
	STS  @0+@1,R@2
	STS  @0+@1+1,R@3
	.ENDM

	.MACRO __PUTBZR
	STD  Z+@1,R@0
	.ENDM

	.MACRO __PUTWZR
	STD  Z+@2,R@0
	STD  Z+@2+1,R@1
	.ENDM

	.MACRO __GETW1R
	MOV  R30,R@0
	MOV  R31,R@1
	.ENDM

	.MACRO __GETW2R
	MOV  R26,R@0
	MOV  R27,R@1
	.ENDM

	.MACRO __GETWRN
	LDI  R@0,LOW(@2)
	LDI  R@1,HIGH(@2)
	.ENDM

	.MACRO __PUTW1R
	MOV  R@0,R30
	MOV  R@1,R31
	.ENDM

	.MACRO __PUTW2R
	MOV  R@0,R26
	MOV  R@1,R27
	.ENDM

	.MACRO __ADDWRN
	SUBI R@0,LOW(-@2)
	SBCI R@1,HIGH(-@2)
	.ENDM

	.MACRO __ADDWRR
	ADD  R@0,R@2
	ADC  R@1,R@3
	.ENDM

	.MACRO __SUBWRN
	SUBI R@0,LOW(@2)
	SBCI R@1,HIGH(@2)
	.ENDM

	.MACRO __SUBWRR
	SUB  R@0,R@2
	SBC  R@1,R@3
	.ENDM

	.MACRO __ANDWRN
	ANDI R@0,LOW(@2)
	ANDI R@1,HIGH(@2)
	.ENDM

	.MACRO __ANDWRR
	AND  R@0,R@2
	AND  R@1,R@3
	.ENDM

	.MACRO __ORWRN
	ORI  R@0,LOW(@2)
	ORI  R@1,HIGH(@2)
	.ENDM

	.MACRO __ORWRR
	OR   R@0,R@2
	OR   R@1,R@3
	.ENDM

	.MACRO __EORWRR
	EOR  R@0,R@2
	EOR  R@1,R@3
	.ENDM

	.MACRO __GETWRS
	LDD  R@0,Y+@2
	LDD  R@1,Y+@2+1
	.ENDM

	.MACRO __PUTWSR
	STD  Y+@2,R@0
	STD  Y+@2+1,R@1
	.ENDM

	.MACRO __MOVEWRR
	MOV  R@0,R@2
	MOV  R@1,R@3
	.ENDM

	.MACRO __INWR
	IN   R@0,@2
	IN   R@1,@2+1
	.ENDM

	.MACRO __OUTWR
	OUT  @2+1,R@1
	OUT  @2,R@0
	.ENDM

	.MACRO __CALL1MN
	LDS  R30,@0+@1
	LDS  R31,@0+@1+1
	ICALL
	.ENDM

	.MACRO __CALL1FN
	LDI  R30,LOW(2*@0+@1)
	LDI  R31,HIGH(2*@0+@1)
	RCALL __GETW1PF
	ICALL
	.ENDM

	.MACRO __CALL2EN
	LDI  R26,LOW(@0+@1)
	LDI  R27,HIGH(@0+@1)
	RCALL __EEPROMRDW
	ICALL
	.ENDM

	.MACRO __GETW1STACK
	IN   R26,SPL
	IN   R27,SPH
	ADIW R26,@0+1
	LD   R30,X+
	LD   R31,X
	.ENDM

	.MACRO __NBST
	BST  R@0,@1
	IN   R30,SREG
	LDI  R31,0x40
	EOR  R30,R31
	OUT  SREG,R30
	.ENDM


	.MACRO __PUTB1SN
	LDD  R26,Y+@0
	LDD  R27,Y+@0+1
	SUBI R26,LOW(-@1)
	SBCI R27,HIGH(-@1)
	ST   X,R30
	.ENDM

	.MACRO __PUTW1SN
	LDD  R26,Y+@0
	LDD  R27,Y+@0+1
	SUBI R26,LOW(-@1)
	SBCI R27,HIGH(-@1)
	ST   X+,R30
	ST   X,R31
	.ENDM

	.MACRO __PUTD1SN
	LDD  R26,Y+@0
	LDD  R27,Y+@0+1
	SUBI R26,LOW(-@1)
	SBCI R27,HIGH(-@1)
	RCALL __PUTDP1
	.ENDM

	.MACRO __PUTB1SNS
	LDD  R26,Y+@0
	LDD  R27,Y+@0+1
	ADIW R26,@1
	ST   X,R30
	.ENDM

	.MACRO __PUTW1SNS
	LDD  R26,Y+@0
	LDD  R27,Y+@0+1
	ADIW R26,@1
	ST   X+,R30
	ST   X,R31
	.ENDM

	.MACRO __PUTD1SNS
	LDD  R26,Y+@0
	LDD  R27,Y+@0+1
	ADIW R26,@1
	RCALL __PUTDP1
	.ENDM

	.MACRO __PUTB1PMN
	LDS  R26,@0
	LDS  R27,@0+1
	SUBI R26,LOW(-@1)
	SBCI R27,HIGH(-@1)
	ST   X,R30
	.ENDM

	.MACRO __PUTW1PMN
	LDS  R26,@0
	LDS  R27,@0+1
	SUBI R26,LOW(-@1)
	SBCI R27,HIGH(-@1)
	ST   X+,R30
	ST   X,R31
	.ENDM

	.MACRO __PUTD1PMN
	LDS  R26,@0
	LDS  R27,@0+1
	SUBI R26,LOW(-@1)
	SBCI R27,HIGH(-@1)
	RCALL __PUTDP1
	.ENDM

	.MACRO __PUTB1PMNS
	LDS  R26,@0
	LDS  R27,@0+1
	ADIW R26,@1
	ST   X,R30
	.ENDM

	.MACRO __PUTW1PMNS
	LDS  R26,@0
	LDS  R27,@0+1
	ADIW R26,@1
	ST   X+,R30
	ST   X,R31
	.ENDM

	.MACRO __PUTD1PMNS
	LDS  R26,@0
	LDS  R27,@0+1
	ADIW R26,@1
	RCALL __PUTDP1
	.ENDM

	.MACRO __PUTB1RN
	MOVW R26,R@0
	SUBI R26,LOW(-@1)
	SBCI R27,HIGH(-@1)
	ST   X,R30
	.ENDM

	.MACRO __PUTW1RN
	MOVW R26,R@0
	SUBI R26,LOW(-@1)
	SBCI R27,HIGH(-@1)
	ST   X+,R30
	ST   X,R31
	.ENDM

	.MACRO __PUTD1RN
	MOVW R26,R@0
	SUBI R26,LOW(-@1)
	SBCI R27,HIGH(-@1)
	RCALL __PUTDP1
	.ENDM

	.MACRO __PUTB1RNS
	MOVW R26,R@0
	ADIW R26,@1
	ST   X,R30
	.ENDM

	.MACRO __PUTW1RNS
	MOVW R26,R@0
	ADIW R26,@1
	ST   X+,R30
	ST   X,R31
	.ENDM

	.MACRO __PUTD1RNS
	MOVW R26,R@0
	ADIW R26,@1
	RCALL __PUTDP1
	.ENDM

	.MACRO __PUTB1RON
	MOV  R26,R@0
	MOV  R27,R@1
	SUBI R26,LOW(-@2)
	SBCI R27,HIGH(-@2)
	ST   X,R30
	.ENDM

	.MACRO __PUTW1RON
	MOV  R26,R@0
	MOV  R27,R@1
	SUBI R26,LOW(-@2)
	SBCI R27,HIGH(-@2)
	ST   X+,R30
	ST   X,R31
	.ENDM

	.MACRO __PUTD1RON
	MOV  R26,R@0
	MOV  R27,R@1
	SUBI R26,LOW(-@2)
	SBCI R27,HIGH(-@2)
	RCALL __PUTDP1
	.ENDM

	.MACRO __PUTB1RONS
	MOV  R26,R@0
	MOV  R27,R@1
	ADIW R26,@2
	ST   X,R30
	.ENDM

	.MACRO __PUTW1RONS
	MOV  R26,R@0
	MOV  R27,R@1
	ADIW R26,@2
	ST   X+,R30
	ST   X,R31
	.ENDM

	.MACRO __PUTD1RONS
	MOV  R26,R@0
	MOV  R27,R@1
	ADIW R26,@2
	RCALL __PUTDP1
	.ENDM


	.MACRO __GETB1SX
	MOVW R30,R28
	SUBI R30,LOW(-@0)
	SBCI R31,HIGH(-@0)
	LD   R30,Z
	.ENDM

	.MACRO __GETB1HSX
	MOVW R30,R28
	SUBI R30,LOW(-@0)
	SBCI R31,HIGH(-@0)
	LD   R31,Z
	.ENDM

	.MACRO __GETW1SX
	MOVW R30,R28
	SUBI R30,LOW(-@0)
	SBCI R31,HIGH(-@0)
	LD   R0,Z+
	LD   R31,Z
	MOV  R30,R0
	.ENDM

	.MACRO __GETD1SX
	MOVW R30,R28
	SUBI R30,LOW(-@0)
	SBCI R31,HIGH(-@0)
	LD   R0,Z+
	LD   R1,Z+
	LD   R22,Z+
	LD   R23,Z
	MOVW R30,R0
	.ENDM

	.MACRO __GETB2SX
	MOVW R26,R28
	SUBI R26,LOW(-@0)
	SBCI R27,HIGH(-@0)
	LD   R26,X
	.ENDM

	.MACRO __GETW2SX
	MOVW R26,R28
	SUBI R26,LOW(-@0)
	SBCI R27,HIGH(-@0)
	LD   R0,X+
	LD   R27,X
	MOV  R26,R0
	.ENDM

	.MACRO __GETD2SX
	MOVW R26,R28
	SUBI R26,LOW(-@0)
	SBCI R27,HIGH(-@0)
	LD   R0,X+
	LD   R1,X+
	LD   R24,X+
	LD   R25,X
	MOVW R26,R0
	.ENDM

	.MACRO __GETBRSX
	MOVW R30,R28
	SUBI R30,LOW(-@1)
	SBCI R31,HIGH(-@1)
	LD   R@0,Z
	.ENDM

	.MACRO __GETWRSX
	MOVW R30,R28
	SUBI R30,LOW(-@2)
	SBCI R31,HIGH(-@2)
	LD   R@0,Z+
	LD   R@1,Z
	.ENDM

	.MACRO __LSLW8SX
	MOVW R30,R28
	SUBI R30,LOW(-@0)
	SBCI R31,HIGH(-@0)
	LD   R31,Z
	CLR  R30
	.ENDM

	.MACRO __PUTB1SX
	MOVW R26,R28
	SUBI R26,LOW(-@0)
	SBCI R27,HIGH(-@0)
	ST   X,R30
	.ENDM

	.MACRO __PUTW1SX
	MOVW R26,R28
	SUBI R26,LOW(-@0)
	SBCI R27,HIGH(-@0)
	ST   X+,R30
	ST   X,R31
	.ENDM

	.MACRO __PUTD1SX
	MOVW R26,R28
	SUBI R26,LOW(-@0)
	SBCI R27,HIGH(-@0)
	ST   X+,R30
	ST   X+,R31
	ST   X+,R22
	ST   X,R23
	.ENDM

	.MACRO __CLRW1SX
	MOVW R30,R28
	SUBI R30,LOW(-@0)
	SBCI R31,HIGH(-@0)
	CLR  R0
	ST   Z+,R0
	ST   Z,R0
	.ENDM

	.MACRO __CLRD1SX
	MOVW R30,R28
	SUBI R30,LOW(-@0)
	SBCI R31,HIGH(-@0)
	CLR  R0
	ST   Z+,R0
	ST   Z+,R0
	ST   Z+,R0
	ST   Z,R0
	.ENDM

	.MACRO __PUTB2SX
	MOVW R30,R28
	SUBI R30,LOW(-@0)
	SBCI R31,HIGH(-@0)
	ST   Z,R26
	.ENDM

	.MACRO __PUTW2SX
	MOVW R30,R28
	SUBI R30,LOW(-@0)
	SBCI R31,HIGH(-@0)
	ST   Z+,R26
	ST   Z,R27
	.ENDM

	.MACRO __PUTD2SX
	MOVW R30,R28
	SUBI R30,LOW(-@0)
	SBCI R31,HIGH(-@0)
	ST   Z+,R26
	ST   Z+,R27
	ST   Z+,R24
	ST   Z,R25
	.ENDM

	.MACRO __PUTBSRX
	MOVW R30,R28
	SUBI R30,LOW(-@0)
	SBCI R31,HIGH(-@0)
	ST   Z,R@1
	.ENDM

	.MACRO __PUTWSRX
	MOVW R30,R28
	SUBI R30,LOW(-@2)
	SBCI R31,HIGH(-@2)
	ST   Z+,R@0
	ST   Z,R@1
	.ENDM

	.MACRO __PUTB1SNX
	MOVW R26,R28
	SUBI R26,LOW(-@0)
	SBCI R27,HIGH(-@0)
	LD   R0,X+
	LD   R27,X
	MOV  R26,R0
	SUBI R26,LOW(-@1)
	SBCI R27,HIGH(-@1)
	ST   X,R30
	.ENDM

	.MACRO __PUTW1SNX
	MOVW R26,R28
	SUBI R26,LOW(-@0)
	SBCI R27,HIGH(-@0)
	LD   R0,X+
	LD   R27,X
	MOV  R26,R0
	SUBI R26,LOW(-@1)
	SBCI R27,HIGH(-@1)
	ST   X+,R30
	ST   X,R31
	.ENDM

	.MACRO __PUTD1SNX
	MOVW R26,R28
	SUBI R26,LOW(-@0)
	SBCI R27,HIGH(-@0)
	LD   R0,X+
	LD   R27,X
	MOV  R26,R0
	SUBI R26,LOW(-@1)
	SBCI R27,HIGH(-@1)
	ST   X+,R30
	ST   X+,R31
	ST   X+,R22
	ST   X,R23
	.ENDM

	.MACRO __MULBRR
	MULS R@0,R@1
	MOVW R30,R0
	.ENDM

	.MACRO __MULBRRU
	MUL  R@0,R@1
	MOVW R30,R0
	.ENDM

	.MACRO __MULBRR0
	MULS R@0,R@1
	.ENDM

	.MACRO __MULBRRU0
	MUL  R@0,R@1
	.ENDM

	.MACRO __MULBNWRU
	LDI  R26,@2
	MUL  R26,R@0
	MOVW R30,R0
	MUL  R26,R@1
	ADD  R31,R0
	.ENDM

;NAME DEFINITIONS FOR GLOBAL VARIABLES ALLOCATED TO REGISTERS
	.DEF __lcd_x=R4
	.DEF __lcd_y=R3
	.DEF __lcd_maxx=R6

	.CSEG
	.ORG 0x00

;INTERRUPT VECTORS
	RJMP __RESET
	RJMP 0x00
	RJMP 0x00
	RJMP 0x00
	RJMP 0x00
	RJMP 0x00
	RJMP 0x00
	RJMP 0x00
	RJMP 0x00
	RJMP 0x00
	RJMP 0x00
	RJMP 0x00
	RJMP 0x00
	RJMP 0x00
	RJMP 0x00
	RJMP 0x00
	RJMP 0x00
	RJMP 0x00
	RJMP 0x00

_0x0:
	.DB  0x25,0x78,0x20,0x20,0x20,0x20,0x25,0x66
	.DB  0x20,0x20,0x20,0x0,0x25,0x78,0x20,0x20
	.DB  0x25,0x66,0x20,0x20,0x20,0x20,0x20,0x0
_0x2000003:
	.DB  0x80,0xC0,0x0,0x0
_0x2080003:
	.DB  0x0,0x0
_0x20A005F:
	.DB  0x1,0x0,0x0,0x0
_0x20A0000:
	.DB  0x2D,0x4E,0x41,0x4E,0x0

__GLOBAL_INI_TBL:
	.DW  0x04
	.DW  __base_y_G100
	.DW  _0x2000003*2

	.DW  0x02
	.DW  _p_S1040024
	.DW  _0x2080003*2

	.DW  0x04
	.DW  __seed_G105
	.DW  _0x20A005F*2

_0xFFFFFFFF:
	.DW  0

__RESET:
	CLI
	CLR  R30
	OUT  EECR,R30

;INTERRUPT VECTORS ARE PLACED
;AT THE START OF FLASH
	LDI  R31,1
	OUT  GICR,R31
	OUT  GICR,R30
	OUT  MCUCR,R30

;DISABLE WATCHDOG
	LDI  R31,0x18
	OUT  WDTCR,R31
	OUT  WDTCR,R30

;GLOBAL VARIABLES INITIALIZATION
	LDI  R30,LOW(__GLOBAL_INI_TBL*2)
	LDI  R31,HIGH(__GLOBAL_INI_TBL*2)
__GLOBAL_INI_NEXT:
	LPM  R24,Z+
	LPM  R25,Z+
	SBIW R24,0
	BREQ __GLOBAL_INI_END
	LPM  R26,Z+
	LPM  R27,Z+
	LPM  R0,Z+
	LPM  R1,Z+
	MOVW R22,R30
	MOVW R30,R0
__GLOBAL_INI_LOOP:
	LPM  R0,Z+
	ST   X+,R0
	SBIW R24,1
	BRNE __GLOBAL_INI_LOOP
	MOVW R30,R22
	RJMP __GLOBAL_INI_NEXT
__GLOBAL_INI_END:

;STACK POINTER INITIALIZATION
	LDI  R30,LOW(0x45F)
	OUT  SPL,R30
	LDI  R30,HIGH(0x45F)
	OUT  SPH,R30

;DATA STACK POINTER INITIALIZATION
	LDI  R28,LOW(0x160)
	LDI  R29,HIGH(0x160)

	RJMP _main

	.ESEG
	.ORG 0

	.DSEG
	.ORG 0x160

	.CSEG
;/*****************************************************
;This program was produced by the
;CodeWizardAVR V2.03.4 Standard
;Automatic Program Generator
;© Copyright 1998-2008 Pavel Haiduc, HP InfoTech s.r.l.
;http://www.hpinfotech.com
;
;Project :
;Version :
;Date    : 22.04.2009
;Author  :
;Company :
;Comments:
;
;
;Chip type           : ATmega8
;Program type        : Application
;Clock frequency     : 8,000000 MHz
;Memory model        : Small
;External RAM size   : 0
;Data Stack size     : 256
;*****************************************************/
;
;#include <mega8.h>
	#ifndef __SLEEP_DEFINED__
	#define __SLEEP_DEFINED__
	.EQU __se_bit=0x80
	.EQU __sm_mask=0x70
	.EQU __sm_powerdown=0x20
	.EQU __sm_powersave=0x30
	.EQU __sm_standby=0x60
	.EQU __sm_ext_standby=0x70
	.EQU __sm_adc_noise_red=0x10
	.SET power_ctrl_reg=mcucr
	#endif
;
;// Alphanumeric LCD Module functions
;#asm
   .equ __lcd_port=0x18 ;PORTB
; 0000 001D #endasm
;#include <lcd.h>
;#include <stdio.h>
;#include <math.h>
;
;// Declare your global variables here
;      char asd_asd[20];
;      unsigned long int temp1;
;      unsigned long int temp2;
;
;void main(void)
; 0000 0028 {

	.CSEG
_main:
; 0000 0029 // Declare your local variables here
; 0000 002A 
; 0000 002B // Input/Output Ports initialization
; 0000 002C // Port B initialization
; 0000 002D // Func7=In Func6=In Func5=In Func4=In Func3=Out Func2=In Func1=In Func0=In
; 0000 002E // State7=T State6=T State5=T State4=T State3=0 State2=T State1=T State0=T
; 0000 002F PORTB=0x00;
	LDI  R30,LOW(0)
	OUT  0x18,R30
; 0000 0030 DDRB=0xff;
	LDI  R30,LOW(255)
	OUT  0x17,R30
; 0000 0031 
; 0000 0032 // Port C initialization
; 0000 0033 // Func6=In Func5=In Func4=In Func3=In Func2=In Func1=In Func0=In
; 0000 0034 // State6=T State5=T State4=T State3=T State2=T State1=T State0=T
; 0000 0035 PORTC=0x00;
	LDI  R30,LOW(0)
	OUT  0x15,R30
; 0000 0036 DDRC=0x00;
	OUT  0x14,R30
; 0000 0037 
; 0000 0038 // Port D initialization
; 0000 0039 // Func7=In Func6=In Func5=In Func4=In Func3=In Func2=In Func1=In Func0=In
; 0000 003A // State7=T State6=T State5=T State4=T State3=T State2=T State1=T State0=T
; 0000 003B PORTD=0x00;
	OUT  0x12,R30
; 0000 003C DDRD=0x00;
	OUT  0x11,R30
; 0000 003D 
; 0000 003E // Timer/Counter 0 initialization
; 0000 003F // Clock source: System Clock
; 0000 0040 // Clock value: Timer 0 Stopped
; 0000 0041 TCCR0=0x00;
	OUT  0x33,R30
; 0000 0042 TCNT0=0x00;
	OUT  0x32,R30
; 0000 0043 
; 0000 0044 // Timer/Counter 1 initialization
; 0000 0045 // Clock source: System Clock
; 0000 0046 // Clock value: Timer 1 Stopped
; 0000 0047 // Mode: Normal top=FFFFh
; 0000 0048 // OC1A output: Discon.
; 0000 0049 // OC1B output: Discon.
; 0000 004A // Noise Canceler: Off
; 0000 004B // Input Capture on Falling Edge
; 0000 004C // Timer 1 Overflow Interrupt: Off
; 0000 004D // Input Capture Interrupt: Off
; 0000 004E // Compare A Match Interrupt: Off
; 0000 004F // Compare B Match Interrupt: Off
; 0000 0050 TCCR1A=0x00;
	OUT  0x2F,R30
; 0000 0051 TCCR1B=0x00;
	OUT  0x2E,R30
; 0000 0052 TCNT1H=0x00;
	OUT  0x2D,R30
; 0000 0053 TCNT1L=0x00;
	OUT  0x2C,R30
; 0000 0054 ICR1H=0x00;
	OUT  0x27,R30
; 0000 0055 ICR1L=0x00;
	OUT  0x26,R30
; 0000 0056 OCR1AH=0x00;
	OUT  0x2B,R30
; 0000 0057 OCR1AL=0x00;
	OUT  0x2A,R30
; 0000 0058 OCR1BH=0x00;
	OUT  0x29,R30
; 0000 0059 OCR1BL=0x00;
	OUT  0x28,R30
; 0000 005A 
; 0000 005B // Timer/Counter 2 initialization
; 0000 005C // Clock source: System Clock
; 0000 005D // Clock value: 8000,000 kHz
; 0000 005E // Mode: Phase correct PWM top=FFh
; 0000 005F // OC2 output: Non-Inverted PWM
; 0000 0060 ASSR=0x00;
	OUT  0x22,R30
; 0000 0061 TCCR2=0x61;
	LDI  R30,LOW(97)
	OUT  0x25,R30
; 0000 0062 TCNT2=0x00;
	LDI  R30,LOW(0)
	OUT  0x24,R30
; 0000 0063 OCR2=0x7F;
	LDI  R30,LOW(127)
	OUT  0x23,R30
; 0000 0064 
; 0000 0065 // External Interrupt(s) initialization
; 0000 0066 // INT0: Off
; 0000 0067 // INT1: Off
; 0000 0068 MCUCR=0x00;
	LDI  R30,LOW(0)
	OUT  0x35,R30
; 0000 0069 
; 0000 006A // Timer(s)/Counter(s) Interrupt(s) initialization
; 0000 006B TIMSK=0x00;
	OUT  0x39,R30
; 0000 006C 
; 0000 006D // Analog Comparator initialization
; 0000 006E // Analog Comparator: Off
; 0000 006F // Analog Comparator Input Capture by Timer/Counter 1: Off
; 0000 0070 ACSR=0x80;
	LDI  R30,LOW(128)
	OUT  0x8,R30
; 0000 0071 SFIOR=0x00;
	LDI  R30,LOW(0)
	OUT  0x30,R30
; 0000 0072 
; 0000 0073 // LCD module initialization
; 0000 0074 lcd_init(16);
	LDI  R30,LOW(16)
	ST   -Y,R30
	RCALL _lcd_init
; 0000 0075 
; 0000 0076 while (1)
_0x3:
; 0000 0077       {
; 0000 0078       // Place your code here
; 0000 0079       float ab;
; 0000 007A       float b;
; 0000 007B       float c;
; 0000 007C       float a;
; 0000 007D       float temp;
; 0000 007E       a=10;
	SBIW R28,20
;	ab -> Y+16
;	b -> Y+12
;	c -> Y+8
;	a -> Y+4
;	temp -> Y+0
	__GETD1N 0x41200000
	__PUTD1S 4
; 0000 007F       b=20;
	__GETD1N 0x41A00000
	RCALL SUBOPT_0x0
; 0000 0080       ab=0.785;
	__GETD1N 0x3F48F5C3
	__PUTD1S 16
; 0000 0081       c=a*a+b*b;
	RCALL SUBOPT_0x1
	__GETD2S 4
	RCALL __MULF12
	PUSH R23
	PUSH R22
	PUSH R31
	PUSH R30
	RCALL SUBOPT_0x2
	RCALL SUBOPT_0x3
	POP  R26
	POP  R27
	POP  R24
	POP  R25
	RCALL __ADDF12
	RCALL SUBOPT_0x4
; 0000 0082       temp = cos(ab);
	RCALL SUBOPT_0x5
	RCALL _cos
	RCALL SUBOPT_0x6
; 0000 0083       c=c-2*a*b*temp;
	RCALL SUBOPT_0x1
	__GETD2N 0x40000000
	RCALL __MULF12
	RCALL SUBOPT_0x3
	RCALL SUBOPT_0x7
	RCALL __MULF12
	RCALL SUBOPT_0x8
	RCALL SUBOPT_0x9
	RCALL SUBOPT_0x4
; 0000 0084       c = sqrt(c);
	RCALL SUBOPT_0xA
	RCALL _sqrt
	RCALL SUBOPT_0x4
; 0000 0085 
; 0000 0086 //    c = sqrt (a*a + b*b - 2*a*b*cos(ab));
; 0000 0087 
; 0000 0088       lcd_gotoxy(0,0);
	RCALL SUBOPT_0xB
	RCALL SUBOPT_0xB
	RCALL SUBOPT_0xC
; 0000 0089       sprintf(asd_asd, "%x    %f   ", temp1, c);
	__POINTW1FN _0x0,0
	RCALL SUBOPT_0xD
	RCALL SUBOPT_0xE
	RCALL __PUTPARD1
	RCALL SUBOPT_0x5
	RCALL SUBOPT_0xF
; 0000 008A       lcd_puts(asd_asd);
; 0000 008B 
; 0000 008C       temp2=temp1*temp1;
	RCALL SUBOPT_0xE
	LDS  R26,_temp1
	LDS  R27,_temp1+1
	LDS  R24,_temp1+2
	LDS  R25,_temp1+3
	RCALL __MULD12U
	STS  _temp2,R30
	STS  _temp2+1,R31
	STS  _temp2+2,R22
	STS  _temp2+3,R23
; 0000 008D       lcd_gotoxy(0,1);
	RCALL SUBOPT_0xB
	LDI  R30,LOW(1)
	ST   -Y,R30
	RCALL SUBOPT_0xC
; 0000 008E       sprintf(asd_asd, "%x  %f     ", temp2, temp);
	__POINTW1FN _0x0,12
	RCALL SUBOPT_0xD
	LDS  R30,_temp2
	LDS  R31,_temp2+1
	LDS  R22,_temp2+2
	LDS  R23,_temp2+3
	RCALL __PUTPARD1
	RCALL SUBOPT_0xA
	RCALL SUBOPT_0xF
; 0000 008F       lcd_puts(asd_asd);
; 0000 0090       temp1++;
	RCALL SUBOPT_0x10
; 0000 0091       temp1++;
	RCALL SUBOPT_0x10
; 0000 0092       temp1++;
	RCALL SUBOPT_0x10
; 0000 0093       temp1++;
	RCALL SUBOPT_0x10
; 0000 0094 
; 0000 0095       while (PINC.0==1);
_0x6:
	LDI  R26,0
	SBIC 0x13,0
	LDI  R26,1
	CPI  R26,LOW(0x1)
	BREQ _0x6
; 0000 0096       while (PINC.0==0);
_0x9:
	SBIS 0x13,0
	RJMP _0x9
; 0000 0097       };
	ADIW R28,20
	RJMP _0x3
; 0000 0098 }
_0xC:
	RJMP _0xC
    .equ __lcd_direction=__lcd_port-1
    .equ __lcd_pin=__lcd_port-2
    .equ __lcd_rs=0
    .equ __lcd_rd=1
    .equ __lcd_enable=2
    .equ __lcd_busy_flag=7

	.DSEG

	.CSEG
__lcd_delay_G100:
    ldi   r31,15
__lcd_delay0:
    dec   r31
    brne  __lcd_delay0
	RET
__lcd_ready:
    in    r26,__lcd_direction
    andi  r26,0xf                 ;set as input
    out   __lcd_direction,r26
    sbi   __lcd_port,__lcd_rd     ;RD=1
    cbi   __lcd_port,__lcd_rs     ;RS=0
__lcd_busy:
	RCALL __lcd_delay_G100
    sbi   __lcd_port,__lcd_enable ;EN=1
	RCALL __lcd_delay_G100
    in    r26,__lcd_pin
    cbi   __lcd_port,__lcd_enable ;EN=0
	RCALL __lcd_delay_G100
    sbi   __lcd_port,__lcd_enable ;EN=1
	RCALL __lcd_delay_G100
    cbi   __lcd_port,__lcd_enable ;EN=0
    sbrc  r26,__lcd_busy_flag
    rjmp  __lcd_busy
	RET
__lcd_write_nibble_G100:
    andi  r26,0xf0
    or    r26,r27
    out   __lcd_port,r26          ;write
    sbi   __lcd_port,__lcd_enable ;EN=1
	RCALL __lcd_delay_G100
    cbi   __lcd_port,__lcd_enable ;EN=0
	RCALL __lcd_delay_G100
	RET
__lcd_write_data:
    cbi  __lcd_port,__lcd_rd 	  ;RD=0
    in    r26,__lcd_direction
    ori   r26,0xf0 | (1<<__lcd_rs) | (1<<__lcd_rd) | (1<<__lcd_enable) ;set as output
    out   __lcd_direction,r26
    in    r27,__lcd_port
    andi  r27,0xf
    ld    r26,y
	RCALL __lcd_write_nibble_G100
    ld    r26,y
    swap  r26
	RCALL __lcd_write_nibble_G100
    sbi   __lcd_port,__lcd_rd     ;RD=1
	RJMP _0x20C0003
__lcd_read_nibble_G100:
    sbi   __lcd_port,__lcd_enable ;EN=1
	RCALL __lcd_delay_G100
    in    r30,__lcd_pin           ;read
    cbi   __lcd_port,__lcd_enable ;EN=0
	RCALL __lcd_delay_G100
    andi  r30,0xf0
	RET
_lcd_read_byte0_G100:
	RCALL __lcd_delay_G100
	RCALL __lcd_read_nibble_G100
    mov   r26,r30
	RCALL __lcd_read_nibble_G100
    cbi   __lcd_port,__lcd_rd     ;RD=0
    swap  r30
    or    r30,r26
	RET
_lcd_gotoxy:
	RCALL __lcd_ready
	LD   R30,Y
	LDI  R31,0
	SUBI R30,LOW(-__base_y_G100)
	SBCI R31,HIGH(-__base_y_G100)
	LD   R30,Z
	LDD  R26,Y+1
	ADD  R30,R26
	RCALL SUBOPT_0x11
	LDD  R4,Y+1
	LDD  R3,Y+0
	ADIW R28,2
	RET
_lcd_clear:
	RCALL __lcd_ready
	LDI  R30,LOW(2)
	RCALL SUBOPT_0x11
	RCALL __lcd_ready
	LDI  R30,LOW(12)
	RCALL SUBOPT_0x11
	RCALL __lcd_ready
	LDI  R30,LOW(1)
	RCALL SUBOPT_0x11
	LDI  R30,LOW(0)
	MOV  R3,R30
	MOV  R4,R30
	RET
_lcd_putchar:
    push r30
    push r31
    ld   r26,y
    set
    cpi  r26,10
    breq __lcd_putchar1
    clt
	INC  R4
	CP   R6,R4
	BRSH _0x2000004
	__lcd_putchar1:
	INC  R3
	RCALL SUBOPT_0xB
	ST   -Y,R3
	RCALL _lcd_gotoxy
	brts __lcd_putchar0
_0x2000004:
    rcall __lcd_ready
    sbi  __lcd_port,__lcd_rs ;RS=1
    ld   r26,y
    st   -y,r26
    rcall __lcd_write_data
__lcd_putchar0:
    pop  r31
    pop  r30
	RJMP _0x20C0003
_lcd_puts:
	ST   -Y,R17
_0x2000005:
	LDD  R26,Y+1
	LDD  R27,Y+1+1
	LD   R30,X+
	STD  Y+1,R26
	STD  Y+1+1,R27
	MOV  R17,R30
	CPI  R30,0
	BREQ _0x2000007
	ST   -Y,R17
	RCALL _lcd_putchar
	RJMP _0x2000005
_0x2000007:
	LDD  R17,Y+0
	ADIW R28,3
	RET
__long_delay_G100:
    clr   r26
    clr   r27
__long_delay0:
    sbiw  r26,1         ;2 cycles
    brne  __long_delay0 ;2 cycles
	RET
__lcd_init_write_G100:
    cbi  __lcd_port,__lcd_rd 	  ;RD=0
    in    r26,__lcd_direction
    ori   r26,0xf7                ;set as output
    out   __lcd_direction,r26
    in    r27,__lcd_port
    andi  r27,0xf
    ld    r26,y
	RCALL __lcd_write_nibble_G100
    sbi   __lcd_port,__lcd_rd     ;RD=1
	RJMP _0x20C0003
_lcd_init:
    cbi   __lcd_port,__lcd_enable ;EN=0
    cbi   __lcd_port,__lcd_rs     ;RS=0
	LDD  R6,Y+0
	LD   R30,Y
	SUBI R30,-LOW(128)
	__PUTB1MN __base_y_G100,2
	LD   R30,Y
	SUBI R30,-LOW(192)
	__PUTB1MN __base_y_G100,3
	RCALL SUBOPT_0x12
	RCALL SUBOPT_0x12
	RCALL SUBOPT_0x12
	RCALL __long_delay_G100
	LDI  R30,LOW(32)
	ST   -Y,R30
	RCALL __lcd_init_write_G100
	RCALL __long_delay_G100
	LDI  R30,LOW(40)
	RCALL SUBOPT_0x11
	RCALL __long_delay_G100
	LDI  R30,LOW(4)
	RCALL SUBOPT_0x11
	RCALL __long_delay_G100
	LDI  R30,LOW(133)
	RCALL SUBOPT_0x11
	RCALL __long_delay_G100
    in    r26,__lcd_direction
    andi  r26,0xf                 ;set as input
    out   __lcd_direction,r26
    sbi   __lcd_port,__lcd_rd     ;RD=1
	RCALL _lcd_read_byte0_G100
	CPI  R30,LOW(0x5)
	BREQ _0x200000B
	LDI  R30,LOW(0)
	RJMP _0x20C0002
_0x200000B:
	RCALL __lcd_ready
	LDI  R30,LOW(6)
	RCALL SUBOPT_0x11
	RCALL _lcd_clear
	LDI  R30,LOW(1)
	RJMP _0x20C0002
	#ifndef __SLEEP_DEFINED__
	#define __SLEEP_DEFINED__
	.EQU __se_bit=0x80
	.EQU __sm_mask=0x70
	.EQU __sm_powerdown=0x20
	.EQU __sm_powersave=0x30
	.EQU __sm_standby=0x60
	.EQU __sm_ext_standby=0x70
	.EQU __sm_adc_noise_red=0x10
	.SET power_ctrl_reg=mcucr
	#endif

	.CSEG
_putchar:
     sbis usr,udre
     rjmp _putchar
     ld   r30,y
     out  udr,r30
_0x20C0003:
_0x20C0002:
	ADIW R28,1
	RET
__put_G101:
	RCALL __SAVELOCR2
	LDD  R26,Y+4
	LDD  R27,Y+4+1
	RCALL __GETW1P
	SBIW R30,0
	BREQ _0x2020010
	LDD  R26,Y+2
	LDD  R27,Y+2+1
	RCALL __GETW1P
	MOVW R16,R30
	SBIW R30,0
	BREQ _0x2020012
	__CPWRN 16,17,2
	BRLO _0x2020013
	MOVW R30,R16
	SBIW R30,1
	MOVW R16,R30
	ST   X+,R30
	ST   X,R31
_0x2020012:
	LDD  R26,Y+4
	LDD  R27,Y+4+1
	LD   R30,X+
	LD   R31,X+
	ADIW R30,1
	ST   -X,R31
	ST   -X,R30
	SBIW R30,1
	LDD  R26,Y+6
	STD  Z+0,R26
_0x2020013:
	RJMP _0x2020014
_0x2020010:
	LDD  R30,Y+6
	ST   -Y,R30
	RCALL _putchar
_0x2020014:
	RCALL __LOADLOCR2
	ADIW R28,7
	RET
__print_G101:
	SBIW R28,11
	RCALL __SAVELOCR6
	LDI  R17,0
_0x2020015:
	LDD  R30,Y+23
	LDD  R31,Y+23+1
	ADIW R30,1
	STD  Y+23,R30
	STD  Y+23+1,R31
	SBIW R30,1
	LPM  R30,Z
	MOV  R18,R30
	CPI  R30,0
	BRNE PC+2
	RJMP _0x2020017
	MOV  R30,R17
	CPI  R30,0
	BRNE _0x202001B
	CPI  R18,37
	BRNE _0x202001C
	LDI  R17,LOW(1)
	RJMP _0x202001D
_0x202001C:
	RCALL SUBOPT_0x13
_0x202001D:
	RJMP _0x202001A
_0x202001B:
	CPI  R30,LOW(0x1)
	BRNE _0x202001E
	CPI  R18,37
	BRNE _0x202001F
	RCALL SUBOPT_0x13
	RJMP _0x20200C2
_0x202001F:
	LDI  R17,LOW(2)
	LDI  R20,LOW(0)
	LDI  R16,LOW(0)
	CPI  R18,45
	BRNE _0x2020020
	LDI  R16,LOW(1)
	RJMP _0x202001A
_0x2020020:
	CPI  R18,43
	BRNE _0x2020021
	LDI  R20,LOW(43)
	RJMP _0x202001A
_0x2020021:
	CPI  R18,32
	BRNE _0x2020022
	LDI  R20,LOW(32)
	RJMP _0x202001A
_0x2020022:
	RJMP _0x2020023
_0x202001E:
	CPI  R30,LOW(0x2)
	BRNE _0x2020024
_0x2020023:
	LDI  R21,LOW(0)
	LDI  R17,LOW(3)
	CPI  R18,48
	BRNE _0x2020025
	ORI  R16,LOW(128)
	RJMP _0x202001A
_0x2020025:
	RJMP _0x2020026
_0x2020024:
	CPI  R30,LOW(0x3)
	BRNE _0x2020027
_0x2020026:
	CPI  R18,48
	BRLO _0x2020029
	CPI  R18,58
	BRLO _0x202002A
_0x2020029:
	RJMP _0x2020028
_0x202002A:
	MOV  R26,R21
	LDI  R30,LOW(10)
	MUL  R30,R26
	MOVW R30,R0
	MOV  R21,R30
	MOV  R30,R18
	SUBI R30,LOW(48)
	ADD  R21,R30
	RJMP _0x202001A
_0x2020028:
	CPI  R18,108
	BRNE _0x202002B
	ORI  R16,LOW(2)
	LDI  R17,LOW(5)
	RJMP _0x202001A
_0x202002B:
	RJMP _0x202002C
_0x2020027:
	CPI  R30,LOW(0x5)
	BREQ PC+2
	RJMP _0x202001A
_0x202002C:
	MOV  R30,R18
	CPI  R30,LOW(0x63)
	BRNE _0x2020031
	RCALL SUBOPT_0x14
	RCALL SUBOPT_0x15
	RCALL SUBOPT_0x14
	LDD  R26,Z+4
	ST   -Y,R26
	RCALL SUBOPT_0x16
	RJMP _0x2020032
_0x2020031:
	CPI  R30,LOW(0x73)
	BRNE _0x2020034
	RCALL SUBOPT_0x17
	RCALL SUBOPT_0x18
	RCALL _strlen
	MOV  R17,R30
	RJMP _0x2020035
_0x2020034:
	CPI  R30,LOW(0x70)
	BRNE _0x2020037
	RCALL SUBOPT_0x17
	RCALL SUBOPT_0x18
	RCALL _strlenf
	MOV  R17,R30
	ORI  R16,LOW(8)
_0x2020035:
	ANDI R16,LOW(127)
	LDI  R30,LOW(0)
	STD  Y+16,R30
	LDI  R19,LOW(0)
	RJMP _0x2020038
_0x2020037:
	CPI  R30,LOW(0x64)
	BREQ _0x202003B
	CPI  R30,LOW(0x69)
	BRNE _0x202003C
_0x202003B:
	ORI  R16,LOW(4)
	RJMP _0x202003D
_0x202003C:
	CPI  R30,LOW(0x75)
	BRNE _0x202003E
_0x202003D:
	LDI  R30,LOW(10)
	STD  Y+16,R30
	SBRS R16,1
	RJMP _0x202003F
	__GETD1N 0x3B9ACA00
	RCALL SUBOPT_0x4
	LDI  R17,LOW(10)
	RJMP _0x2020040
_0x202003F:
	__GETD1N 0x2710
	RCALL SUBOPT_0x4
	LDI  R17,LOW(5)
	RJMP _0x2020040
_0x202003E:
	CPI  R30,LOW(0x58)
	BRNE _0x2020042
	ORI  R16,LOW(8)
	RJMP _0x2020043
_0x2020042:
	CPI  R30,LOW(0x78)
	BREQ PC+2
	RJMP _0x2020076
_0x2020043:
	LDI  R30,LOW(16)
	STD  Y+16,R30
	SBRS R16,1
	RJMP _0x2020045
	__GETD1N 0x10000000
	RCALL SUBOPT_0x4
	LDI  R17,LOW(8)
	RJMP _0x2020040
_0x2020045:
	__GETD1N 0x1000
	RCALL SUBOPT_0x4
	LDI  R17,LOW(4)
_0x2020040:
	SBRS R16,1
	RJMP _0x2020046
	RCALL SUBOPT_0x17
	RCALL SUBOPT_0x19
	RCALL __GETD1P
	RJMP _0x20200C3
_0x2020046:
	SBRS R16,2
	RJMP _0x2020048
	RCALL SUBOPT_0x17
	RCALL SUBOPT_0x19
	RCALL __GETW1P
	RCALL __CWD1
	RJMP _0x20200C3
_0x2020048:
	RCALL SUBOPT_0x17
	RCALL SUBOPT_0x19
	RCALL __GETW1P
	CLR  R22
	CLR  R23
_0x20200C3:
	__PUTD1S 12
	SBRS R16,2
	RJMP _0x202004A
	LDD  R26,Y+15
	TST  R26
	BRPL _0x202004B
	RCALL SUBOPT_0x2
	RCALL __ANEGD1
	RCALL SUBOPT_0x0
	LDI  R20,LOW(45)
_0x202004B:
	CPI  R20,0
	BREQ _0x202004C
	SUBI R17,-LOW(1)
	RJMP _0x202004D
_0x202004C:
	ANDI R16,LOW(251)
_0x202004D:
_0x202004A:
_0x2020038:
	SBRC R16,0
	RJMP _0x202004E
_0x202004F:
	CP   R17,R21
	BRSH _0x2020051
	SBRS R16,7
	RJMP _0x2020052
	SBRS R16,2
	RJMP _0x2020053
	ANDI R16,LOW(251)
	MOV  R18,R20
	SUBI R17,LOW(1)
	RJMP _0x2020054
_0x2020053:
	LDI  R18,LOW(48)
_0x2020054:
	RJMP _0x2020055
_0x2020052:
	LDI  R18,LOW(32)
_0x2020055:
	RCALL SUBOPT_0x13
	SUBI R21,LOW(1)
	RJMP _0x202004F
_0x2020051:
_0x202004E:
	MOV  R19,R17
	LDD  R30,Y+16
	CPI  R30,0
	BRNE _0x2020056
_0x2020057:
	CPI  R19,0
	BREQ _0x2020059
	SBRS R16,3
	RJMP _0x202005A
	LDD  R30,Y+6
	LDD  R31,Y+6+1
	ADIW R30,1
	STD  Y+6,R30
	STD  Y+6+1,R31
	SBIW R30,1
	LPM  R30,Z
	RJMP _0x20200C4
_0x202005A:
	LDD  R26,Y+6
	LDD  R27,Y+6+1
	LD   R30,X+
	STD  Y+6,R26
	STD  Y+6+1,R27
_0x20200C4:
	ST   -Y,R30
	RCALL SUBOPT_0x16
	CPI  R21,0
	BREQ _0x202005C
	SUBI R21,LOW(1)
_0x202005C:
	SUBI R19,LOW(1)
	RJMP _0x2020057
_0x2020059:
	RJMP _0x202005D
_0x2020056:
_0x202005F:
	RCALL SUBOPT_0x1A
	RCALL __DIVD21U
	MOV  R18,R30
	CPI  R18,10
	BRLO _0x2020061
	SBRS R16,3
	RJMP _0x2020062
	SUBI R18,-LOW(55)
	RJMP _0x2020063
_0x2020062:
	SUBI R18,-LOW(87)
_0x2020063:
	RJMP _0x2020064
_0x2020061:
	SUBI R18,-LOW(48)
_0x2020064:
	SBRC R16,4
	RJMP _0x2020066
	CPI  R18,49
	BRSH _0x2020068
	RCALL SUBOPT_0x8
	__CPD2N 0x1
	BRNE _0x2020067
_0x2020068:
	RJMP _0x202006A
_0x2020067:
	CP   R21,R19
	BRLO _0x202006C
	SBRS R16,0
	RJMP _0x202006D
_0x202006C:
	RJMP _0x202006B
_0x202006D:
	LDI  R18,LOW(32)
	SBRS R16,7
	RJMP _0x202006E
	LDI  R18,LOW(48)
_0x202006A:
	ORI  R16,LOW(16)
	SBRS R16,2
	RJMP _0x202006F
	ANDI R16,LOW(251)
	ST   -Y,R20
	RCALL SUBOPT_0x16
	CPI  R21,0
	BREQ _0x2020070
	SUBI R21,LOW(1)
_0x2020070:
_0x202006F:
_0x202006E:
_0x2020066:
	RCALL SUBOPT_0x13
	CPI  R21,0
	BREQ _0x2020071
	SUBI R21,LOW(1)
_0x2020071:
_0x202006B:
	SUBI R19,LOW(1)
	RCALL SUBOPT_0x1A
	RCALL __MODD21U
	RCALL SUBOPT_0x0
	LDD  R30,Y+16
	RCALL SUBOPT_0x8
	CLR  R31
	CLR  R22
	CLR  R23
	RCALL __DIVD21U
	RCALL SUBOPT_0x4
	__GETD1S 8
	RCALL __CPD10
	BREQ _0x2020060
	RJMP _0x202005F
_0x2020060:
_0x202005D:
	SBRS R16,0
	RJMP _0x2020072
_0x2020073:
	CPI  R21,0
	BREQ _0x2020075
	SUBI R21,LOW(1)
	LDI  R30,LOW(32)
	ST   -Y,R30
	RCALL SUBOPT_0x16
	RJMP _0x2020073
_0x2020075:
_0x2020072:
_0x2020076:
_0x2020032:
_0x20200C2:
	LDI  R17,LOW(0)
_0x202001A:
	RJMP _0x2020015
_0x2020017:
	RCALL __LOADLOCR6
	ADIW R28,25
	RET
_sprintf:
	PUSH R15
	MOV  R15,R24
	SBIW R28,2
	RCALL __SAVELOCR2
	MOVW R26,R28
	RCALL __ADDW2R15
	MOVW R16,R26
	MOVW R26,R28
	ADIW R26,6
	RCALL __ADDW2R15
	RCALL __GETW1P
	STD  Y+2,R30
	STD  Y+2+1,R31
	MOVW R26,R28
	ADIW R26,4
	RCALL __ADDW2R15
	RCALL __GETW1P
	RCALL SUBOPT_0xD
	ST   -Y,R17
	ST   -Y,R16
	MOVW R30,R28
	ADIW R30,6
	RCALL SUBOPT_0xD
	LDI  R30,LOW(0)
	LDI  R31,HIGH(0)
	RCALL SUBOPT_0xD
	RCALL __print_G101
	LDD  R26,Y+2
	LDD  R27,Y+2+1
	LDI  R30,LOW(0)
	ST   X,R30
	RCALL __LOADLOCR2
	ADIW R28,4
	POP  R15
	RET

	.CSEG
_ftrunc:
   ldd  r23,y+3
   ldd  r22,y+2
   ldd  r31,y+1
   ld   r30,y
   bst  r23,7
   lsl  r23
   sbrc r22,7
   sbr  r23,1
   mov  r25,r23
   subi r25,0x7e
   breq __ftrunc0
   brcs __ftrunc0
   cpi  r25,24
   brsh __ftrunc1
   clr  r26
   clr  r27
   clr  r24
__ftrunc2:
   sec
   ror  r24
   ror  r27
   ror  r26
   dec  r25
   brne __ftrunc2
   and  r30,r26
   and  r31,r27
   and  r22,r24
   rjmp __ftrunc1
__ftrunc0:
   clt
   clr  r23
   clr  r30
   clr  r31
   clr  r22
__ftrunc1:
   cbr  r22,0x80
   lsr  r23
   brcc __ftrunc3
   sbr  r22,0x80
__ftrunc3:
   bld  r23,7
   ld   r26,y+
   ld   r27,y+
   ld   r24,y+
   ld   r25,y+
   cp   r30,r26
   cpc  r31,r27
   cpc  r22,r24
   cpc  r23,r25
   bst  r25,7
   ret
_floor:
	RCALL SUBOPT_0x1B
	RCALL __PUTPARD1
	RCALL _ftrunc
	RCALL SUBOPT_0x6
    brne __floor1
__floor0:
	RCALL SUBOPT_0x1B
	RJMP _0x20C0001
__floor1:
    brtc __floor0
	RCALL SUBOPT_0x7
	__GETD1N 0x3F800000
	RCALL SUBOPT_0x9
	RJMP _0x20C0001
_sin:
	SBIW R28,4
	ST   -Y,R17
	LDI  R17,0
	RCALL SUBOPT_0x1C
	__GETD1N 0x3E22F983
	RCALL __MULF12
	RCALL SUBOPT_0x1D
	RCALL SUBOPT_0x1E
	RCALL __PUTPARD1
	RCALL _floor
	RCALL SUBOPT_0x1C
	RCALL SUBOPT_0x9
	RCALL SUBOPT_0x1D
	RCALL SUBOPT_0x1F
	RCALL __CMPF12
	BREQ PC+2
	BRCC PC+2
	RJMP _0x2040017
	RCALL SUBOPT_0x1F
	RCALL SUBOPT_0x9
	RCALL SUBOPT_0x1D
	LDI  R17,LOW(1)
_0x2040017:
	RCALL SUBOPT_0x1C
	__GETD1N 0x3E800000
	RCALL __CMPF12
	BREQ PC+2
	BRCC PC+2
	RJMP _0x2040018
	RCALL SUBOPT_0x1F
	RCALL __SUBF12
	RCALL SUBOPT_0x1D
_0x2040018:
	CPI  R17,0
	BREQ _0x2040019
	RCALL SUBOPT_0x1E
	RCALL __ANEGF1
	RCALL SUBOPT_0x1D
_0x2040019:
	RCALL SUBOPT_0x1E
	RCALL SUBOPT_0x1C
	RCALL __MULF12
	__PUTD1S 1
	RCALL SUBOPT_0x20
	__GETD2N 0x4226C4B1
	RCALL __MULF12
	MOVW R26,R30
	MOVW R24,R22
	__GETD1N 0x422DE51D
	RCALL SUBOPT_0x9
	RCALL SUBOPT_0x21
	__GETD2N 0x4104534C
	RCALL __ADDF12
	RCALL SUBOPT_0x1C
	RCALL __MULF12
	PUSH R23
	PUSH R22
	PUSH R31
	PUSH R30
	RCALL SUBOPT_0x20
	__GETD2N 0x3FDEED11
	RCALL __ADDF12
	RCALL SUBOPT_0x21
	__GETD2N 0x3FA87B5E
	RCALL __ADDF12
	POP  R26
	POP  R27
	POP  R24
	POP  R25
	RCALL __DIVF21
	LDD  R17,Y+0
	ADIW R28,9
	RET
_cos:
	RCALL SUBOPT_0x7
	__GETD1N 0x3FC90FDB
	RCALL __SUBF12
	RCALL __PUTPARD1
	RCALL _sin
_0x20C0001:
	ADIW R28,4
	RET

	.CSEG

	.CSEG
_strlen:
    ld   r26,y+
    ld   r27,y+
    clr  r30
    clr  r31
strlen0:
    ld   r22,x+
    tst  r22
    breq strlen1
    adiw r30,1
    rjmp strlen0
strlen1:
    ret
_strlenf:
    clr  r26
    clr  r27
    ld   r30,y+
    ld   r31,y+
strlenf0:
    lpm  r0,z+
    tst  r0
    breq strlenf1
    adiw r26,1
    rjmp strlenf0
strlenf1:
    movw r30,r26
    ret

	.DSEG

	.CSEG

	.CSEG

	.DSEG

	.CSEG

	.DSEG
_asd_asd:
	.BYTE 0x14
_temp1:
	.BYTE 0x4
_temp2:
	.BYTE 0x4
__base_y_G100:
	.BYTE 0x4
_p_S1040024:
	.BYTE 0x2
__seed_G105:
	.BYTE 0x4

	.CSEG
;OPTIMIZER ADDED SUBROUTINE, CALLED 3 TIMES, CODE SIZE REDUCTION:4 WORDS
SUBOPT_0x0:
	__PUTD1S 12
	RET

;OPTIMIZER ADDED SUBROUTINE, CALLED 2 TIMES, CODE SIZE REDUCTION:1 WORDS
SUBOPT_0x1:
	__GETD1S 4
	RET

;OPTIMIZER ADDED SUBROUTINE, CALLED 2 TIMES, CODE SIZE REDUCTION:1 WORDS
SUBOPT_0x2:
	__GETD1S 12
	RET

;OPTIMIZER ADDED SUBROUTINE, CALLED 2 TIMES, CODE SIZE REDUCTION:2 WORDS
SUBOPT_0x3:
	__GETD2S 12
	RCALL __MULF12
	RET

;OPTIMIZER ADDED SUBROUTINE, CALLED 8 TIMES, CODE SIZE REDUCTION:19 WORDS
SUBOPT_0x4:
	__PUTD1S 8
	RET

;OPTIMIZER ADDED SUBROUTINE, CALLED 2 TIMES, CODE SIZE REDUCTION:2 WORDS
SUBOPT_0x5:
	__GETD1S 16
	RCALL __PUTPARD1
	RET

;OPTIMIZER ADDED SUBROUTINE, CALLED 2 TIMES, CODE SIZE REDUCTION:1 WORDS
SUBOPT_0x6:
	__PUTD1S 0
	RET

;OPTIMIZER ADDED SUBROUTINE, CALLED 3 TIMES, CODE SIZE REDUCTION:4 WORDS
SUBOPT_0x7:
	__GETD2S 0
	RET

;OPTIMIZER ADDED SUBROUTINE, CALLED 3 TIMES, CODE SIZE REDUCTION:4 WORDS
SUBOPT_0x8:
	__GETD2S 8
	RET

;OPTIMIZER ADDED SUBROUTINE, CALLED 5 TIMES, CODE SIZE REDUCTION:2 WORDS
SUBOPT_0x9:
	RCALL __SWAPD12
	RCALL __SUBF12
	RET

;OPTIMIZER ADDED SUBROUTINE, CALLED 2 TIMES, CODE SIZE REDUCTION:2 WORDS
SUBOPT_0xA:
	__GETD1S 8
	RCALL __PUTPARD1
	RET

;OPTIMIZER ADDED SUBROUTINE, CALLED 4 TIMES, CODE SIZE REDUCTION:1 WORDS
SUBOPT_0xB:
	LDI  R30,LOW(0)
	ST   -Y,R30
	RET

;OPTIMIZER ADDED SUBROUTINE, CALLED 2 TIMES, CODE SIZE REDUCTION:2 WORDS
SUBOPT_0xC:
	RCALL _lcd_gotoxy
	LDI  R30,LOW(_asd_asd)
	LDI  R31,HIGH(_asd_asd)
	ST   -Y,R31
	ST   -Y,R30
	RET

;OPTIMIZER ADDED SUBROUTINE, CALLED 25 TIMES, CODE SIZE REDUCTION:22 WORDS
SUBOPT_0xD:
	ST   -Y,R31
	ST   -Y,R30
	RET

;OPTIMIZER ADDED SUBROUTINE, CALLED 2 TIMES, CODE SIZE REDUCTION:5 WORDS
SUBOPT_0xE:
	LDS  R30,_temp1
	LDS  R31,_temp1+1
	LDS  R22,_temp1+2
	LDS  R23,_temp1+3
	RET

;OPTIMIZER ADDED SUBROUTINE, CALLED 2 TIMES, CODE SIZE REDUCTION:4 WORDS
SUBOPT_0xF:
	LDI  R24,8
	RCALL _sprintf
	ADIW R28,12
	LDI  R30,LOW(_asd_asd)
	LDI  R31,HIGH(_asd_asd)
	RCALL SUBOPT_0xD
	RJMP _lcd_puts

;OPTIMIZER ADDED SUBROUTINE, CALLED 4 TIMES, CODE SIZE REDUCTION:19 WORDS
SUBOPT_0x10:
	LDI  R26,LOW(_temp1)
	LDI  R27,HIGH(_temp1)
	RCALL __GETD1P_INC
	__SUBD1N -1
	RCALL __PUTDP1_DEC
	RET

;OPTIMIZER ADDED SUBROUTINE, CALLED 8 TIMES, CODE SIZE REDUCTION:5 WORDS
SUBOPT_0x11:
	ST   -Y,R30
	RJMP __lcd_write_data

;OPTIMIZER ADDED SUBROUTINE, CALLED 3 TIMES, CODE SIZE REDUCTION:4 WORDS
SUBOPT_0x12:
	RCALL __long_delay_G100
	LDI  R30,LOW(48)
	ST   -Y,R30
	RJMP __lcd_init_write_G100

;OPTIMIZER ADDED SUBROUTINE, CALLED 4 TIMES, CODE SIZE REDUCTION:19 WORDS
SUBOPT_0x13:
	ST   -Y,R18
	LDD  R30,Y+20
	LDD  R31,Y+20+1
	RCALL SUBOPT_0xD
	MOVW R30,R28
	ADIW R30,20
	RCALL SUBOPT_0xD
	RJMP __put_G101

;OPTIMIZER ADDED SUBROUTINE, CALLED 7 TIMES, CODE SIZE REDUCTION:4 WORDS
SUBOPT_0x14:
	LDD  R30,Y+21
	LDD  R31,Y+21+1
	RET

;OPTIMIZER ADDED SUBROUTINE, CALLED 6 TIMES, CODE SIZE REDUCTION:8 WORDS
SUBOPT_0x15:
	SBIW R30,4
	STD  Y+21,R30
	STD  Y+21+1,R31
	RET

;OPTIMIZER ADDED SUBROUTINE, CALLED 4 TIMES, CODE SIZE REDUCTION:16 WORDS
SUBOPT_0x16:
	LDD  R30,Y+20
	LDD  R31,Y+20+1
	RCALL SUBOPT_0xD
	MOVW R30,R28
	ADIW R30,20
	RCALL SUBOPT_0xD
	RJMP __put_G101

;OPTIMIZER ADDED SUBROUTINE, CALLED 5 TIMES, CODE SIZE REDUCTION:2 WORDS
SUBOPT_0x17:
	RCALL SUBOPT_0x14
	RJMP SUBOPT_0x15

;OPTIMIZER ADDED SUBROUTINE, CALLED 2 TIMES, CODE SIZE REDUCTION:6 WORDS
SUBOPT_0x18:
	LDD  R26,Y+21
	LDD  R27,Y+21+1
	ADIW R26,4
	RCALL __GETW1P
	STD  Y+6,R30
	STD  Y+6+1,R31
	RJMP SUBOPT_0xD

;OPTIMIZER ADDED SUBROUTINE, CALLED 3 TIMES, CODE SIZE REDUCTION:2 WORDS
SUBOPT_0x19:
	LDD  R26,Y+21
	LDD  R27,Y+21+1
	ADIW R26,4
	RET

;OPTIMIZER ADDED SUBROUTINE, CALLED 2 TIMES, CODE SIZE REDUCTION:5 WORDS
SUBOPT_0x1A:
	__GETD1S 8
	__GETD2S 12
	RET

;OPTIMIZER ADDED SUBROUTINE, CALLED 2 TIMES, CODE SIZE REDUCTION:1 WORDS
SUBOPT_0x1B:
	__GETD1S 0
	RET

;OPTIMIZER ADDED SUBROUTINE, CALLED 8 TIMES, CODE SIZE REDUCTION:19 WORDS
SUBOPT_0x1C:
	__GETD2S 5
	RET

;OPTIMIZER ADDED SUBROUTINE, CALLED 5 TIMES, CODE SIZE REDUCTION:10 WORDS
SUBOPT_0x1D:
	__PUTD1S 5
	RET

;OPTIMIZER ADDED SUBROUTINE, CALLED 3 TIMES, CODE SIZE REDUCTION:4 WORDS
SUBOPT_0x1E:
	__GETD1S 5
	RET

;OPTIMIZER ADDED SUBROUTINE, CALLED 3 TIMES, CODE SIZE REDUCTION:6 WORDS
SUBOPT_0x1F:
	RCALL SUBOPT_0x1C
	__GETD1N 0x3F000000
	RET

;OPTIMIZER ADDED SUBROUTINE, CALLED 2 TIMES, CODE SIZE REDUCTION:1 WORDS
SUBOPT_0x20:
	__GETD1S 1
	RET

;OPTIMIZER ADDED SUBROUTINE, CALLED 2 TIMES, CODE SIZE REDUCTION:2 WORDS
SUBOPT_0x21:
	__GETD2S 1
	RCALL __MULF12
	RET


	.CSEG
_sqrt:
	sbiw r28,4
	push r21
	ldd  r25,y+7
	tst  r25
	brne __sqrt0
	adiw r28,8
	rjmp __zerores
__sqrt0:
	brpl __sqrt1
	adiw r28,8
	rjmp __maxres
__sqrt1:
	push r20
	ldi  r20,66
	ldd  r24,y+6
	ldd  r27,y+5
	ldd  r26,y+4
__sqrt2:
	st   y,r24
	std  y+1,r25
	std  y+2,r26
	std  y+3,r27
	movw r30,r26
	movw r22,r24
	ldd  r26,y+4
	ldd  r27,y+5
	ldd  r24,y+6
	ldd  r25,y+7
	rcall __divf21
	ld   r24,y
	ldd  r25,y+1
	ldd  r26,y+2
	ldd  r27,y+3
	rcall __addf12
	rcall __unpack1
	dec  r23
	rcall __repack
	ld   r24,y
	ldd  r25,y+1
	ldd  r26,y+2
	ldd  r27,y+3
	eor  r26,r30
	andi r26,0xf8
	brne __sqrt4
	cp   r27,r31
	cpc  r24,r22
	cpc  r25,r23
	breq __sqrt3
__sqrt4:
	dec  r20
	breq __sqrt3
	movw r26,r30
	movw r24,r22
	rjmp __sqrt2
__sqrt3:
	pop  r20
	pop  r21
	adiw r28,8
	ret

__ADDW2R15:
	CLR  R0
	ADD  R26,R15
	ADC  R27,R0
	RET

__ANEGD1:
	COM  R31
	COM  R22
	COM  R23
	NEG  R30
	SBCI R31,-1
	SBCI R22,-1
	SBCI R23,-1
	RET

__CWD1:
	MOV  R22,R31
	ADD  R22,R22
	SBC  R22,R22
	MOV  R23,R22
	RET

__MULD12U:
	MUL  R23,R26
	MOV  R23,R0
	MUL  R22,R27
	ADD  R23,R0
	MUL  R31,R24
	ADD  R23,R0
	MUL  R30,R25
	ADD  R23,R0
	MUL  R22,R26
	MOV  R22,R0
	ADD  R23,R1
	MUL  R31,R27
	ADD  R22,R0
	ADC  R23,R1
	MUL  R30,R24
	ADD  R22,R0
	ADC  R23,R1
	CLR  R24
	MUL  R31,R26
	MOV  R31,R0
	ADD  R22,R1
	ADC  R23,R24
	MUL  R30,R27
	ADD  R31,R0
	ADC  R22,R1
	ADC  R23,R24
	MUL  R30,R26
	MOV  R30,R0
	ADD  R31,R1
	ADC  R22,R24
	ADC  R23,R24
	RET

__DIVD21U:
	PUSH R19
	PUSH R20
	PUSH R21
	CLR  R0
	CLR  R1
	CLR  R20
	CLR  R21
	LDI  R19,32
__DIVD21U1:
	LSL  R26
	ROL  R27
	ROL  R24
	ROL  R25
	ROL  R0
	ROL  R1
	ROL  R20
	ROL  R21
	SUB  R0,R30
	SBC  R1,R31
	SBC  R20,R22
	SBC  R21,R23
	BRCC __DIVD21U2
	ADD  R0,R30
	ADC  R1,R31
	ADC  R20,R22
	ADC  R21,R23
	RJMP __DIVD21U3
__DIVD21U2:
	SBR  R26,1
__DIVD21U3:
	DEC  R19
	BRNE __DIVD21U1
	MOVW R30,R26
	MOVW R22,R24
	MOVW R26,R0
	MOVW R24,R20
	POP  R21
	POP  R20
	POP  R19
	RET

__MODD21U:
	RCALL __DIVD21U
	MOVW R30,R26
	MOVW R22,R24
	RET

__GETW1P:
	LD   R30,X+
	LD   R31,X
	SBIW R26,1
	RET

__GETD1P:
	LD   R30,X+
	LD   R31,X+
	LD   R22,X+
	LD   R23,X
	SBIW R26,3
	RET

__GETD1P_INC:
	LD   R30,X+
	LD   R31,X+
	LD   R22,X+
	LD   R23,X+
	RET

__PUTDP1_DEC:
	ST   -X,R23
	ST   -X,R22
	ST   -X,R31
	ST   -X,R30
	RET

__PUTPARD1:
	ST   -Y,R23
	ST   -Y,R22
	ST   -Y,R31
	ST   -Y,R30
	RET

__SWAPD12:
	MOV  R1,R24
	MOV  R24,R22
	MOV  R22,R1
	MOV  R1,R25
	MOV  R25,R23
	MOV  R23,R1

__SWAPW12:
	MOV  R1,R27
	MOV  R27,R31
	MOV  R31,R1

__SWAPB12:
	MOV  R1,R26
	MOV  R26,R30
	MOV  R30,R1
	RET

__ANEGF1:
	SBIW R30,0
	SBCI R22,0
	SBCI R23,0
	BREQ __ANEGF10
	SUBI R23,0x80
__ANEGF10:
	RET

__ROUND_REPACK:
	TST  R21
	BRPL __REPACK
	CPI  R21,0x80
	BRNE __ROUND_REPACK0
	SBRS R30,0
	RJMP __REPACK
__ROUND_REPACK0:
	ADIW R30,1
	ADC  R22,R25
	ADC  R23,R25
	BRVS __REPACK1

__REPACK:
	LDI  R21,0x80
	EOR  R21,R23
	BRNE __REPACK0
	PUSH R21
	RJMP __ZERORES
__REPACK0:
	CPI  R21,0xFF
	BREQ __REPACK1
	LSL  R22
	LSL  R0
	ROR  R21
	ROR  R22
	MOV  R23,R21
	RET
__REPACK1:
	PUSH R21
	TST  R0
	BRMI __REPACK2
	RJMP __MAXRES
__REPACK2:
	RJMP __MINRES

__UNPACK:
	LDI  R21,0x80
	MOV  R1,R25
	AND  R1,R21
	LSL  R24
	ROL  R25
	EOR  R25,R21
	LSL  R21
	ROR  R24

__UNPACK1:
	LDI  R21,0x80
	MOV  R0,R23
	AND  R0,R21
	LSL  R22
	ROL  R23
	EOR  R23,R21
	LSL  R21
	ROR  R22
	RET

__SWAPACC:
	PUSH R20
	MOVW R20,R30
	MOVW R30,R26
	MOVW R26,R20
	MOVW R20,R22
	MOVW R22,R24
	MOVW R24,R20
	MOV  R20,R0
	MOV  R0,R1
	MOV  R1,R20
	POP  R20
	RET

__UADD12:
	ADD  R30,R26
	ADC  R31,R27
	ADC  R22,R24
	RET

__NEGMAN1:
	COM  R30
	COM  R31
	COM  R22
	SUBI R30,-1
	SBCI R31,-1
	SBCI R22,-1
	RET

__SUBF12:
	PUSH R21
	RCALL __UNPACK
	CPI  R25,0x80
	BREQ __ADDF129
	LDI  R21,0x80
	EOR  R1,R21

	RJMP __ADDF120

__ADDF12:
	PUSH R21
	RCALL __UNPACK
	CPI  R25,0x80
	BREQ __ADDF129

__ADDF120:
	CPI  R23,0x80
	BREQ __ADDF128
__ADDF121:
	MOV  R21,R23
	SUB  R21,R25
	BRVS __ADDF129
	BRPL __ADDF122
	RCALL __SWAPACC
	RJMP __ADDF121
__ADDF122:
	CPI  R21,24
	BRLO __ADDF123
	CLR  R26
	CLR  R27
	CLR  R24
__ADDF123:
	CPI  R21,8
	BRLO __ADDF124
	MOV  R26,R27
	MOV  R27,R24
	CLR  R24
	SUBI R21,8
	RJMP __ADDF123
__ADDF124:
	TST  R21
	BREQ __ADDF126
__ADDF125:
	LSR  R24
	ROR  R27
	ROR  R26
	DEC  R21
	BRNE __ADDF125
__ADDF126:
	MOV  R21,R0
	EOR  R21,R1
	BRMI __ADDF127
	RCALL __UADD12
	BRCC __ADDF129
	ROR  R22
	ROR  R31
	ROR  R30
	INC  R23
	BRVC __ADDF129
	RJMP __MAXRES
__ADDF128:
	RCALL __SWAPACC
__ADDF129:
	RCALL __REPACK
	POP  R21
	RET
__ADDF127:
	SUB  R30,R26
	SBC  R31,R27
	SBC  R22,R24
	BREQ __ZERORES
	BRCC __ADDF1210
	COM  R0
	RCALL __NEGMAN1
__ADDF1210:
	TST  R22
	BRMI __ADDF129
	LSL  R30
	ROL  R31
	ROL  R22
	DEC  R23
	BRVC __ADDF1210

__ZERORES:
	CLR  R30
	CLR  R31
	CLR  R22
	CLR  R23
	POP  R21
	RET

__MINRES:
	SER  R30
	SER  R31
	LDI  R22,0x7F
	SER  R23
	POP  R21
	RET

__MAXRES:
	SER  R30
	SER  R31
	LDI  R22,0x7F
	LDI  R23,0x7F
	POP  R21
	RET

__MULF12:
	PUSH R21
	RCALL __UNPACK
	CPI  R23,0x80
	BREQ __ZERORES
	CPI  R25,0x80
	BREQ __ZERORES
	EOR  R0,R1
	SEC
	ADC  R23,R25
	BRVC __MULF124
	BRLT __ZERORES
__MULF125:
	TST  R0
	BRMI __MINRES
	RJMP __MAXRES
__MULF124:
	PUSH R0
	PUSH R17
	PUSH R18
	PUSH R19
	PUSH R20
	CLR  R17
	CLR  R18
	CLR  R25
	MUL  R22,R24
	MOVW R20,R0
	MUL  R24,R31
	MOV  R19,R0
	ADD  R20,R1
	ADC  R21,R25
	MUL  R22,R27
	ADD  R19,R0
	ADC  R20,R1
	ADC  R21,R25
	MUL  R24,R30
	RCALL __MULF126
	MUL  R27,R31
	RCALL __MULF126
	MUL  R22,R26
	RCALL __MULF126
	MUL  R27,R30
	RCALL __MULF127
	MUL  R26,R31
	RCALL __MULF127
	MUL  R26,R30
	ADD  R17,R1
	ADC  R18,R25
	ADC  R19,R25
	ADC  R20,R25
	ADC  R21,R25
	MOV  R30,R19
	MOV  R31,R20
	MOV  R22,R21
	MOV  R21,R18
	POP  R20
	POP  R19
	POP  R18
	POP  R17
	POP  R0
	TST  R22
	BRMI __MULF122
	LSL  R21
	ROL  R30
	ROL  R31
	ROL  R22
	RJMP __MULF123
__MULF122:
	INC  R23
	BRVS __MULF125
__MULF123:
	RCALL __ROUND_REPACK
	POP  R21
	RET

__MULF127:
	ADD  R17,R0
	ADC  R18,R1
	ADC  R19,R25
	RJMP __MULF128
__MULF126:
	ADD  R18,R0
	ADC  R19,R1
__MULF128:
	ADC  R20,R25
	ADC  R21,R25
	RET

__DIVF21:
	PUSH R21
	RCALL __UNPACK
	CPI  R23,0x80
	BRNE __DIVF210
	TST  R1
__DIVF211:
	BRPL __DIVF219
	RJMP __MINRES
__DIVF219:
	RJMP __MAXRES
__DIVF210:
	CPI  R25,0x80
	BRNE __DIVF218
__DIVF217:
	RJMP __ZERORES
__DIVF218:
	EOR  R0,R1
	SEC
	SBC  R25,R23
	BRVC __DIVF216
	BRLT __DIVF217
	TST  R0
	RJMP __DIVF211
__DIVF216:
	MOV  R23,R25
	PUSH R17
	PUSH R18
	PUSH R19
	PUSH R20
	CLR  R1
	CLR  R17
	CLR  R18
	CLR  R19
	CLR  R20
	CLR  R21
	LDI  R25,32
__DIVF212:
	CP   R26,R30
	CPC  R27,R31
	CPC  R24,R22
	CPC  R20,R17
	BRLO __DIVF213
	SUB  R26,R30
	SBC  R27,R31
	SBC  R24,R22
	SBC  R20,R17
	SEC
	RJMP __DIVF214
__DIVF213:
	CLC
__DIVF214:
	ROL  R21
	ROL  R18
	ROL  R19
	ROL  R1
	ROL  R26
	ROL  R27
	ROL  R24
	ROL  R20
	DEC  R25
	BRNE __DIVF212
	MOVW R30,R18
	MOV  R22,R1
	POP  R20
	POP  R19
	POP  R18
	POP  R17
	TST  R22
	BRMI __DIVF215
	LSL  R21
	ROL  R30
	ROL  R31
	ROL  R22
	DEC  R23
	BRVS __DIVF217
__DIVF215:
	RCALL __ROUND_REPACK
	POP  R21
	RET

__CMPF12:
	TST  R25
	BRMI __CMPF120
	TST  R23
	BRMI __CMPF121
	CP   R25,R23
	BRLO __CMPF122
	BRNE __CMPF121
	CP   R26,R30
	CPC  R27,R31
	CPC  R24,R22
	BRLO __CMPF122
	BREQ __CMPF123
__CMPF121:
	CLZ
	CLC
	RET
__CMPF122:
	CLZ
	SEC
	RET
__CMPF123:
	SEZ
	CLC
	RET
__CMPF120:
	TST  R23
	BRPL __CMPF122
	CP   R25,R23
	BRLO __CMPF121
	BRNE __CMPF122
	CP   R30,R26
	CPC  R31,R27
	CPC  R22,R24
	BRLO __CMPF122
	BREQ __CMPF123
	RJMP __CMPF121

__CPD10:
	SBIW R30,0
	SBCI R22,0
	SBCI R23,0
	RET

__SAVELOCR6:
	ST   -Y,R21
__SAVELOCR5:
	ST   -Y,R20
__SAVELOCR4:
	ST   -Y,R19
__SAVELOCR3:
	ST   -Y,R18
__SAVELOCR2:
	ST   -Y,R17
	ST   -Y,R16
	RET

__LOADLOCR6:
	LDD  R21,Y+5
__LOADLOCR5:
	LDD  R20,Y+4
__LOADLOCR4:
	LDD  R19,Y+3
__LOADLOCR3:
	LDD  R18,Y+2
__LOADLOCR2:
	LDD  R17,Y+1
	LD   R16,Y
	RET

;END OF CODE MARKER
__END_OF_CODE:
